
FreeRTOS2560.elf:     file format elf32-avr

Sections:
Idx Name          Size      VMA       LMA       File off  Algn
  0 .data         00000128  00800200  000054fc  00005590  2**0
                  CONTENTS, ALLOC, LOAD, DATA
  1 .text         000054fc  00000000  00000000  00000094  2**1
                  CONTENTS, ALLOC, LOAD, READONLY, CODE
  2 .bss          00001959  00800328  00800328  000056b8  2**0
                  ALLOC
  3 .comment      0000005c  00000000  00000000  000056b8  2**0
                  CONTENTS, READONLY
  4 .debug_aranges 000012e8  00000000  00000000  00005714  2**0
                  CONTENTS, READONLY, DEBUGGING
  5 .debug_info   0001b6ce  00000000  00000000  000069fc  2**0
                  CONTENTS, READONLY, DEBUGGING
  6 .debug_abbrev 000031ef  00000000  00000000  000220ca  2**0
                  CONTENTS, READONLY, DEBUGGING
  7 .debug_line   000089e9  00000000  00000000  000252b9  2**0
                  CONTENTS, READONLY, DEBUGGING
  8 .debug_frame  0000453c  00000000  00000000  0002dca4  2**2
                  CONTENTS, READONLY, DEBUGGING
  9 .debug_str    00007311  00000000  00000000  000321e0  2**0
                  CONTENTS, READONLY, DEBUGGING
 10 .debug_loc    00016fa7  00000000  00000000  000394f1  2**0
                  CONTENTS, READONLY, DEBUGGING
 11 .debug_ranges 000013a8  00000000  00000000  00050498  2**0
                  CONTENTS, READONLY, DEBUGGING

Disassembly of section .text:

00000000 <__vectors>:
       0:	dc c1       	rjmp	.+952    	; 0x3ba <__ctors_end>
       2:	00 00       	nop
       4:	0b c2       	rjmp	.+1046   	; 0x41c <__bad_interrupt>
       6:	00 00       	nop
       8:	09 c2       	rjmp	.+1042   	; 0x41c <__bad_interrupt>
       a:	00 00       	nop
       c:	07 c2       	rjmp	.+1038   	; 0x41c <__bad_interrupt>
       e:	00 00       	nop
      10:	05 c2       	rjmp	.+1034   	; 0x41c <__bad_interrupt>
      12:	00 00       	nop
      14:	03 c2       	rjmp	.+1030   	; 0x41c <__bad_interrupt>
      16:	00 00       	nop
      18:	01 c2       	rjmp	.+1026   	; 0x41c <__bad_interrupt>
      1a:	00 00       	nop
      1c:	ff c1       	rjmp	.+1022   	; 0x41c <__bad_interrupt>
      1e:	00 00       	nop
      20:	fd c1       	rjmp	.+1018   	; 0x41c <__bad_interrupt>
      22:	00 00       	nop
      24:	fb c1       	rjmp	.+1014   	; 0x41c <__bad_interrupt>
      26:	00 00       	nop
      28:	f9 c1       	rjmp	.+1010   	; 0x41c <__bad_interrupt>
      2a:	00 00       	nop
      2c:	f7 c1       	rjmp	.+1006   	; 0x41c <__bad_interrupt>
      2e:	00 00       	nop
      30:	f5 c1       	rjmp	.+1002   	; 0x41c <__bad_interrupt>
      32:	00 00       	nop
      34:	0c 94 5c 11 	jmp	0x22b8	; 0x22b8 <__vector_13>
      38:	f1 c1       	rjmp	.+994    	; 0x41c <__bad_interrupt>
      3a:	00 00       	nop
      3c:	ef c1       	rjmp	.+990    	; 0x41c <__bad_interrupt>
      3e:	00 00       	nop
      40:	ed c1       	rjmp	.+986    	; 0x41c <__bad_interrupt>
      42:	00 00       	nop
      44:	eb c1       	rjmp	.+982    	; 0x41c <__bad_interrupt>
      46:	00 00       	nop
      48:	e9 c1       	rjmp	.+978    	; 0x41c <__bad_interrupt>
      4a:	00 00       	nop
      4c:	e7 c1       	rjmp	.+974    	; 0x41c <__bad_interrupt>
      4e:	00 00       	nop
      50:	0c 94 fb 12 	jmp	0x25f6	; 0x25f6 <__vector_20>
      54:	e3 c1       	rjmp	.+966    	; 0x41c <__bad_interrupt>
      56:	00 00       	nop
      58:	e1 c1       	rjmp	.+962    	; 0x41c <__bad_interrupt>
      5a:	00 00       	nop
      5c:	0c 94 8e 25 	jmp	0x4b1c	; 0x4b1c <__vector_23>
      60:	dd c1       	rjmp	.+954    	; 0x41c <__bad_interrupt>
      62:	00 00       	nop
      64:	0c 94 b1 20 	jmp	0x4162	; 0x4162 <__vector_25>
      68:	0c 94 b1 21 	jmp	0x4362	; 0x4362 <__vector_26>
      6c:	d7 c1       	rjmp	.+942    	; 0x41c <__bad_interrupt>
      6e:	00 00       	nop
      70:	d5 c1       	rjmp	.+938    	; 0x41c <__bad_interrupt>
      72:	00 00       	nop
      74:	d3 c1       	rjmp	.+934    	; 0x41c <__bad_interrupt>
      76:	00 00       	nop
      78:	d1 c1       	rjmp	.+930    	; 0x41c <__bad_interrupt>
      7a:	00 00       	nop
      7c:	cf c1       	rjmp	.+926    	; 0x41c <__bad_interrupt>
      7e:	00 00       	nop
      80:	cd c1       	rjmp	.+922    	; 0x41c <__bad_interrupt>
      82:	00 00       	nop
      84:	cb c1       	rjmp	.+918    	; 0x41c <__bad_interrupt>
      86:	00 00       	nop
      88:	c9 c1       	rjmp	.+914    	; 0x41c <__bad_interrupt>
      8a:	00 00       	nop
      8c:	c7 c1       	rjmp	.+910    	; 0x41c <__bad_interrupt>
      8e:	00 00       	nop
      90:	0c 94 f1 20 	jmp	0x41e2	; 0x41e2 <__vector_36>
      94:	0c 94 f0 21 	jmp	0x43e0	; 0x43e0 <__vector_37>
      98:	c1 c1       	rjmp	.+898    	; 0x41c <__bad_interrupt>
      9a:	00 00       	nop
      9c:	0c 94 7b 1a 	jmp	0x34f6	; 0x34f6 <__vector_39>
      a0:	bd c1       	rjmp	.+890    	; 0x41c <__bad_interrupt>
      a2:	00 00       	nop
      a4:	bb c1       	rjmp	.+886    	; 0x41c <__bad_interrupt>
      a6:	00 00       	nop
      a8:	b9 c1       	rjmp	.+882    	; 0x41c <__bad_interrupt>
      aa:	00 00       	nop
      ac:	b7 c1       	rjmp	.+878    	; 0x41c <__bad_interrupt>
      ae:	00 00       	nop
      b0:	b5 c1       	rjmp	.+874    	; 0x41c <__bad_interrupt>
      b2:	00 00       	nop
      b4:	b3 c1       	rjmp	.+870    	; 0x41c <__bad_interrupt>
      b6:	00 00       	nop
      b8:	b1 c1       	rjmp	.+866    	; 0x41c <__bad_interrupt>
      ba:	00 00       	nop
      bc:	af c1       	rjmp	.+862    	; 0x41c <__bad_interrupt>
      be:	00 00       	nop
      c0:	ad c1       	rjmp	.+858    	; 0x41c <__bad_interrupt>
      c2:	00 00       	nop
      c4:	ab c1       	rjmp	.+854    	; 0x41c <__bad_interrupt>
      c6:	00 00       	nop
      c8:	a9 c1       	rjmp	.+850    	; 0x41c <__bad_interrupt>
      ca:	00 00       	nop
      cc:	0c 94 31 21 	jmp	0x4262	; 0x4262 <__vector_51>
      d0:	0c 94 2f 22 	jmp	0x445e	; 0x445e <__vector_52>
      d4:	a3 c1       	rjmp	.+838    	; 0x41c <__bad_interrupt>
      d6:	00 00       	nop
      d8:	0c 94 71 21 	jmp	0x42e2	; 0x42e2 <__vector_54>
      dc:	0c 94 6e 22 	jmp	0x44dc	; 0x44dc <__vector_55>
      e0:	9d c1       	rjmp	.+826    	; 0x41c <__bad_interrupt>
      e2:	00 00       	nop
      e4:	08 4a       	sbci	r16, 0xA8	; 168
      e6:	d7 3b       	cpi	r29, 0xB7	; 183
      e8:	3b ce       	rjmp	.-906    	; 0xfffffd60 <__eeprom_end+0xff7efd60>
      ea:	01 6e       	ori	r16, 0xE1	; 225
      ec:	84 bc       	out	0x24, r8	; 36
      ee:	bf fd       	.word	0xfdbf	; ????
      f0:	c1 2f       	mov	r28, r17
      f2:	3d 6c       	ori	r19, 0xCD	; 205
      f4:	74 31       	cpi	r23, 0x14	; 20
      f6:	9a bd       	out	0x2a, r25	; 42
      f8:	56 83       	std	Z+6, r21	; 0x06
      fa:	3d da       	rcall	.-2950   	; 0xfffff576 <__eeprom_end+0xff7ef576>
      fc:	3d 00       	.word	0x003d	; ????
      fe:	c7 7f       	andi	r28, 0xF7	; 247
     100:	11 be       	out	0x31, r1	; 49
     102:	d9 e4       	ldi	r29, 0x49	; 73
     104:	bb 4c       	sbci	r27, 0xCB	; 203
     106:	3e 91       	ld	r19, -X
     108:	6b aa       	std	Y+51, r6	; 0x33
     10a:	aa be       	out	0x3a, r10	; 58
     10c:	00 00       	nop
     10e:	00 80       	ld	r0, Z
     110:	3f 05       	cpc	r19, r15
     112:	a8 4c       	sbci	r26, 0xC8	; 200
     114:	cd b2       	in	r12, 0x1d	; 29
     116:	d4 4e       	sbci	r29, 0xE4	; 228
     118:	b9 38       	cpi	r27, 0x89	; 137
     11a:	36 a9       	ldd	r19, Z+54	; 0x36
     11c:	02 0c       	add	r0, r2
     11e:	50 b9       	out	0x00, r21	; 0
     120:	91 86       	std	Z+9, r9	; 0x09
     122:	88 08       	sbc	r8, r8
     124:	3c a6       	std	Y+44, r3	; 0x2c
     126:	aa aa       	std	Y+50, r10	; 0x32
     128:	2a be       	out	0x3a, r2	; 58
     12a:	00 00       	nop
     12c:	00 80       	ld	r0, Z
     12e:	3f 00       	.word	0x003f	; ????
     130:	b5 26       	eor	r11, r21
     132:	b9 26       	eor	r11, r25
     134:	a9 26       	eor	r10, r25
     136:	af 26       	eor	r10, r31
     138:	fe 26       	eor	r15, r30
     13a:	bd 26       	eor	r11, r29
     13c:	c3 26       	eor	r12, r19
     13e:	c9 26       	eor	r12, r25
     140:	cf 26       	eor	r12, r31
     142:	d5 26       	eor	r13, r21
     144:	db 26       	eor	r13, r27
     146:	e1 26       	eor	r14, r17
     148:	e7 26       	eor	r14, r23
     14a:	fe 26       	eor	r15, r30
     14c:	ed 26       	eor	r14, r29
     14e:	f3 26       	eor	r15, r19
     150:	f9 26       	eor	r15, r25

00000152 <__trampolines_end>:
     152:	45 72       	andi	r20, 0x25	; 37
     154:	72 6f       	ori	r23, 0xF2	; 242
     156:	72 20       	and	r7, r2
     158:	72 65       	ori	r23, 0x52	; 82
     15a:	61 64       	ori	r22, 0x41	; 65
     15c:	69 6e       	ori	r22, 0xE9	; 233
     15e:	67 20       	and	r6, r7
     160:	73 65       	ori	r23, 0x53	; 83
     162:	6e 73       	andi	r22, 0x3E	; 62
     164:	6f 72       	andi	r22, 0x2F	; 47
	...

00000167 <_ZZ7i2cReadhhPhhE3__c_0>:
     167:	69 32 63 52 65 61 64 20 74 69 6d 65 6f 75 74 00     i2cRead timeout.

00000177 <_ZZ7i2cReadhhPhhE3__c>:
     177:	69 32 63 52 65 61 64 20 66 61 69 6c 65 64 3a 20     i2cRead failed: 
	...

00000188 <_ZZ8i2cWritehhPhhbE3__c>:
     188:	69 32 63 57 72 69 74 65 20 66 61 69 6c 65 64 3a     i2cWrite failed:
     198:	20 00                                                .

0000019a <digital_pin_to_timer_PGM>:
     19a:	00 00 09 0a 02 08 0b 0c 0d 07 06 03 04 01 00 00     ................
	...
     1c6:	11 10 0f 00 00 00 00 00 00 00 00 00 00 00 00 00     ................
	...

000001e0 <digital_pin_to_bit_mask_PGM>:
     1e0:	01 02 10 20 20 08 08 10 20 40 10 20 40 80 02 01     ...  ... @. @...
     1f0:	02 01 08 04 02 01 01 02 04 08 10 20 40 80 80 40     ........... @..@
     200:	20 10 08 04 02 01 80 04 02 01 80 40 20 10 08 04      ..........@ ...
     210:	02 01 08 04 02 01 01 02 04 08 10 20 40 80 01 02     ........... @...
     220:	04 08 10 20 40 80                                   ... @.

00000226 <digital_pin_to_port_PGM>:
     226:	05 05 05 05 07 05 08 08 08 08 02 02 02 02 0a 0a     ................
     236:	08 08 04 04 04 04 01 01 01 01 01 01 01 01 03 03     ................
     246:	03 03 03 03 03 03 04 07 07 07 0c 0c 0c 0c 0c 0c     ................
     256:	0c 0c 02 02 02 02 06 06 06 06 06 06 06 06 0b 0b     ................
     266:	0b 0b 0b 0b 0b 0b                                   ......

0000026c <port_to_input_PGM>:
     26c:	00 00 20 00 23 00 26 00 29 00 2c 00 2f 00 32 00     .. .#.&.).,./.2.
     27c:	00 01 00 00 03 01 06 01 09 01                       ..........

00000286 <port_to_output_PGM>:
     286:	00 00 22 00 25 00 28 00 2b 00 2e 00 31 00 34 00     ..".%.(.+...1.4.
     296:	02 01 00 00 05 01 08 01 0b 01                       ..........

000002a0 <port_to_mode_PGM>:
     2a0:	00 00 21 00 24 00 27 00 2a 00 2d 00 30 00 33 00     ..!.$.'.*.-.0.3.
     2b0:	01 01 00 00 04 01 07 01 0a 01 00 40 7a 10 f3 5a     ...........@z..Z
     2c0:	00 a0 72 4e 18 09 00 10 a5 d4 e8 00 00 e8 76 48     ..rN..........vH
     2d0:	17 00 00 e4 0b 54 02 00 00 ca 9a 3b 00 00 00 e1     .....T.....;....
     2e0:	f5 05 00 00 80 96 98 00 00 00 40 42 0f 00 00 00     ..........@B....
     2f0:	a0 86 01 00 00 00 10 27 00 00 00 00 e8 03 00 00     .......'........
     300:	00 00 64 00 00 00 00 00 0a 00 00 00 00 00 01 00     ..d.............
     310:	00 00 00 00 2c 76 d8 88 dc 67 4f 08 23 df c1 df     ....,v...gO.#...
     320:	ae 59 e1 b1 b7 96 e5 e3 e4 53 c6 3a e6 51 99 76     .Y.......S.:.Q.v
     330:	96 e8 e6 c2 84 26 eb 89 8c 9b 62 ed 40 7c 6f fc     .....&....b.@|o.
     340:	ef bc 9c 9f 40 f2 ba a5 6f a5 f4 90 05 5a 2a f7     ....@...o....Z*.
     350:	5c 93 6b 6c f9 67 6d c1 1b fc e0 e4 0d 47 fe f5     \.kl.gm......G..
     360:	20 e6 b5 00 d0 ed 90 2e 03 00 94 35 77 05 00 80      ..........5w...
     370:	84 1e 08 00 00 20 4e 0a 00 00 00 c8 0c 33 33 33     ..... N......333
     380:	33 0f 98 6e 12 83 11 41 ef 8d 21 14 89 3b e6 55     3..n...A..!..;.U
     390:	16 cf fe e6 db 18 d1 84 4b 38 1b f7 7c 1d 90 1d     ........K8..|...
     3a0:	a4 bb e4 24 20 32 84 72 5e 22 81 00 c9 f1 24 ec     ...$ 2.r^"....$.
     3b0:	a1 e5 3d 27                                         ..='

000003b4 <__ctors_start>:
     3b4:	8a 06       	cpc	r8, r26
     3b6:	6f 1c       	adc	r6, r15
     3b8:	74 23       	and	r23, r20

000003ba <__ctors_end>:
     3ba:	11 24       	eor	r1, r1
     3bc:	1f be       	out	0x3f, r1	; 63
     3be:	cf ef       	ldi	r28, 0xFF	; 255
     3c0:	d1 e2       	ldi	r29, 0x21	; 33
     3c2:	de bf       	out	0x3e, r29	; 62
     3c4:	cd bf       	out	0x3d, r28	; 61
     3c6:	00 e0       	ldi	r16, 0x00	; 0
     3c8:	0c bf       	out	0x3c, r16	; 60

000003ca <__do_copy_data>:
     3ca:	13 e0       	ldi	r17, 0x03	; 3
     3cc:	a0 e0       	ldi	r26, 0x00	; 0
     3ce:	b2 e0       	ldi	r27, 0x02	; 2
     3d0:	ec ef       	ldi	r30, 0xFC	; 252
     3d2:	f4 e5       	ldi	r31, 0x54	; 84
     3d4:	00 e0       	ldi	r16, 0x00	; 0
     3d6:	0b bf       	out	0x3b, r16	; 59
     3d8:	02 c0       	rjmp	.+4      	; 0x3de <__do_copy_data+0x14>
     3da:	07 90       	elpm	r0, Z+
     3dc:	0d 92       	st	X+, r0
     3de:	a8 32       	cpi	r26, 0x28	; 40
     3e0:	b1 07       	cpc	r27, r17
     3e2:	d9 f7       	brne	.-10     	; 0x3da <__do_copy_data+0x10>

000003e4 <__do_clear_bss>:
     3e4:	2c e1       	ldi	r18, 0x1C	; 28
     3e6:	a8 e2       	ldi	r26, 0x28	; 40
     3e8:	b3 e0       	ldi	r27, 0x03	; 3
     3ea:	01 c0       	rjmp	.+2      	; 0x3ee <.do_clear_bss_start>

000003ec <.do_clear_bss_loop>:
     3ec:	1d 92       	st	X+, r1

000003ee <.do_clear_bss_start>:
     3ee:	a1 38       	cpi	r26, 0x81	; 129
     3f0:	b2 07       	cpc	r27, r18
     3f2:	e1 f7       	brne	.-8      	; 0x3ec <.do_clear_bss_loop>

000003f4 <__do_global_ctors>:
     3f4:	13 e0       	ldi	r17, 0x03	; 3
     3f6:	ca eb       	ldi	r28, 0xBA	; 186
     3f8:	d3 e0       	ldi	r29, 0x03	; 3
     3fa:	00 e0       	ldi	r16, 0x00	; 0
     3fc:	06 c0       	rjmp	.+12     	; 0x40a <__do_global_ctors+0x16>
     3fe:	22 97       	sbiw	r28, 0x02	; 2
     400:	01 09       	sbc	r16, r1
     402:	fe 01       	movw	r30, r28
     404:	0b bf       	out	0x3b, r16	; 59
     406:	0e 94 a9 27 	call	0x4f52	; 0x4f52 <__tablejump_elpm__>
     40a:	c4 3b       	cpi	r28, 0xB4	; 180
     40c:	d1 07       	cpc	r29, r17
     40e:	80 e0       	ldi	r24, 0x00	; 0
     410:	08 07       	cpc	r16, r24
     412:	a9 f7       	brne	.-22     	; 0x3fe <__do_global_ctors+0xa>
     414:	0e 94 5a 0f 	call	0x1eb4	; 0x1eb4 <main>
     418:	0c 94 7c 2a 	jmp	0x54f8	; 0x54f8 <_exit>

0000041c <__bad_interrupt>:
     41c:	f1 cd       	rjmp	.-1054   	; 0x0 <__vectors>

0000041e <_ZN6Kalman8getAngleEddd>:
}

#define STACK_DEPTH 512

void vApplicationIdleHook()
{
     41e:	2f 92       	push	r2
     420:	3f 92       	push	r3
     422:	4f 92       	push	r4
     424:	5f 92       	push	r5
     426:	6f 92       	push	r6
     428:	7f 92       	push	r7
     42a:	8f 92       	push	r8
     42c:	9f 92       	push	r9
     42e:	af 92       	push	r10
     430:	bf 92       	push	r11
     432:	cf 92       	push	r12
     434:	df 92       	push	r13
     436:	ef 92       	push	r14
     438:	ff 92       	push	r15
     43a:	0f 93       	push	r16
     43c:	1f 93       	push	r17
     43e:	cf 93       	push	r28
     440:	df 93       	push	r29
     442:	cd b7       	in	r28, 0x3d	; 61
     444:	de b7       	in	r29, 0x3e	; 62
     446:	6c 97       	sbiw	r28, 0x1c	; 28
     448:	0f b6       	in	r0, 0x3f	; 63
     44a:	f8 94       	cli
     44c:	de bf       	out	0x3e, r29	; 62
     44e:	0f be       	out	0x3f, r0	; 63
     450:	cd bf       	out	0x3d, r28	; 61
     452:	1c 01       	movw	r2, r24
     454:	4d 8b       	std	Y+21, r20	; 0x15
     456:	5e 8b       	std	Y+22, r21	; 0x16
     458:	6f 8b       	std	Y+23, r22	; 0x17
     45a:	78 8f       	std	Y+24, r23	; 0x18
     45c:	c9 01       	movw	r24, r18
     45e:	b8 01       	movw	r22, r16
     460:	d1 01       	movw	r26, r2
     462:	50 96       	adiw	r26, 0x10	; 16
     464:	2d 91       	ld	r18, X+
     466:	3d 91       	ld	r19, X+
     468:	4d 91       	ld	r20, X+
     46a:	5c 91       	ld	r21, X
     46c:	53 97       	sbiw	r26, 0x13	; 19
     46e:	29 8b       	std	Y+17, r18	; 0x11
     470:	3a 8b       	std	Y+18, r19	; 0x12
     472:	4b 8b       	std	Y+19, r20	; 0x13
     474:	5c 8b       	std	Y+20, r21	; 0x14
     476:	0e 94 72 1c 	call	0x38e4	; 0x38e4 <__subsf3>
     47a:	9b 01       	movw	r18, r22
     47c:	ac 01       	movw	r20, r24
     47e:	f1 01       	movw	r30, r2
     480:	64 8b       	std	Z+20, r22	; 0x14
     482:	75 8b       	std	Z+21, r23	; 0x15
     484:	86 8b       	std	Z+22, r24	; 0x16
     486:	97 8b       	std	Z+23, r25	; 0x17
     488:	c7 01       	movw	r24, r14
     48a:	b6 01       	movw	r22, r12
     48c:	0e 94 50 1f 	call	0x3ea0	; 0x3ea0 <__mulsf3>
     490:	d1 01       	movw	r26, r2
     492:	1c 96       	adiw	r26, 0x0c	; 12
     494:	2d 91       	ld	r18, X+
     496:	3d 91       	ld	r19, X+
     498:	4d 91       	ld	r20, X+
     49a:	5c 91       	ld	r21, X
     49c:	1f 97       	sbiw	r26, 0x0f	; 15
     49e:	0e 94 73 1c 	call	0x38e6	; 0x38e6 <__addsf3>
     4a2:	6d 87       	std	Y+13, r22	; 0x0d
     4a4:	7e 87       	std	Y+14, r23	; 0x0e
     4a6:	8f 87       	std	Y+15, r24	; 0x0f
     4a8:	98 8b       	std	Y+16, r25	; 0x10
     4aa:	d1 01       	movw	r26, r2
     4ac:	94 96       	adiw	r26, 0x24	; 36
     4ae:	2d 91       	ld	r18, X+
     4b0:	3d 91       	ld	r19, X+
     4b2:	4d 91       	ld	r20, X+
     4b4:	5c 91       	ld	r21, X
     4b6:	97 97       	sbiw	r26, 0x27	; 39
     4b8:	29 83       	std	Y+1, r18	; 0x01
     4ba:	3a 83       	std	Y+2, r19	; 0x02
     4bc:	4b 83       	std	Y+3, r20	; 0x03
     4be:	5c 83       	std	Y+4, r21	; 0x04
     4c0:	c7 01       	movw	r24, r14
     4c2:	b6 01       	movw	r22, r12
     4c4:	0e 94 50 1f 	call	0x3ea0	; 0x3ea0 <__mulsf3>
     4c8:	4b 01       	movw	r8, r22
     4ca:	5c 01       	movw	r10, r24
     4cc:	d1 01       	movw	r26, r2
     4ce:	5c 96       	adiw	r26, 0x1c	; 28
     4d0:	2d 91       	ld	r18, X+
     4d2:	3d 91       	ld	r19, X+
     4d4:	4d 91       	ld	r20, X+
     4d6:	5c 91       	ld	r21, X
     4d8:	5f 97       	sbiw	r26, 0x1f	; 31
     4da:	2d 83       	std	Y+5, r18	; 0x05
     4dc:	3e 83       	std	Y+6, r19	; 0x06
     4de:	4f 83       	std	Y+7, r20	; 0x07
     4e0:	58 87       	std	Y+8, r21	; 0x08
     4e2:	90 96       	adiw	r26, 0x20	; 32
     4e4:	2d 91       	ld	r18, X+
     4e6:	3d 91       	ld	r19, X+
     4e8:	4d 91       	ld	r20, X+
     4ea:	5c 91       	ld	r21, X
     4ec:	93 97       	sbiw	r26, 0x23	; 35
     4ee:	29 87       	std	Y+9, r18	; 0x09
     4f0:	3a 87       	std	Y+10, r19	; 0x0a
     4f2:	4b 87       	std	Y+11, r20	; 0x0b
     4f4:	5c 87       	std	Y+12, r21	; 0x0c
     4f6:	2d 81       	ldd	r18, Y+5	; 0x05
     4f8:	3e 81       	ldd	r19, Y+6	; 0x06
     4fa:	4f 81       	ldd	r20, Y+7	; 0x07
     4fc:	58 85       	ldd	r21, Y+8	; 0x08
     4fe:	0e 94 72 1c 	call	0x38e4	; 0x38e4 <__subsf3>
     502:	29 85       	ldd	r18, Y+9	; 0x09
     504:	3a 85       	ldd	r19, Y+10	; 0x0a
     506:	4b 85       	ldd	r20, Y+11	; 0x0b
     508:	5c 85       	ldd	r21, Y+12	; 0x0c
     50a:	0e 94 72 1c 	call	0x38e4	; 0x38e4 <__subsf3>
     50e:	f1 01       	movw	r30, r2
     510:	20 81       	ld	r18, Z
     512:	31 81       	ldd	r19, Z+1	; 0x01
     514:	42 81       	ldd	r20, Z+2	; 0x02
     516:	53 81       	ldd	r21, Z+3	; 0x03
     518:	0e 94 73 1c 	call	0x38e6	; 0x38e6 <__addsf3>
     51c:	9b 01       	movw	r18, r22
     51e:	ac 01       	movw	r20, r24
     520:	c7 01       	movw	r24, r14
     522:	b6 01       	movw	r22, r12
     524:	0e 94 50 1f 	call	0x3ea0	; 0x3ea0 <__mulsf3>
     528:	d1 01       	movw	r26, r2
     52a:	58 96       	adiw	r26, 0x18	; 24
     52c:	2d 91       	ld	r18, X+
     52e:	3d 91       	ld	r19, X+
     530:	4d 91       	ld	r20, X+
     532:	5c 91       	ld	r21, X
     534:	5b 97       	sbiw	r26, 0x1b	; 27
     536:	0e 94 73 1c 	call	0x38e6	; 0x38e6 <__addsf3>
     53a:	2b 01       	movw	r4, r22
     53c:	3c 01       	movw	r6, r24
     53e:	a5 01       	movw	r20, r10
     540:	94 01       	movw	r18, r8
     542:	6d 81       	ldd	r22, Y+5	; 0x05
     544:	7e 81       	ldd	r23, Y+6	; 0x06
     546:	8f 81       	ldd	r24, Y+7	; 0x07
     548:	98 85       	ldd	r25, Y+8	; 0x08
     54a:	0e 94 72 1c 	call	0x38e4	; 0x38e4 <__subsf3>
     54e:	6d 83       	std	Y+5, r22	; 0x05
     550:	7e 83       	std	Y+6, r23	; 0x06
     552:	8f 83       	std	Y+7, r24	; 0x07
     554:	98 87       	std	Y+8, r25	; 0x08
     556:	a5 01       	movw	r20, r10
     558:	94 01       	movw	r18, r8
     55a:	69 85       	ldd	r22, Y+9	; 0x09
     55c:	7a 85       	ldd	r23, Y+10	; 0x0a
     55e:	8b 85       	ldd	r24, Y+11	; 0x0b
     560:	9c 85       	ldd	r25, Y+12	; 0x0c
     562:	0e 94 72 1c 	call	0x38e4	; 0x38e4 <__subsf3>
     566:	69 87       	std	Y+9, r22	; 0x09
     568:	7a 87       	std	Y+10, r23	; 0x0a
     56a:	8b 87       	std	Y+11, r24	; 0x0b
     56c:	9c 87       	std	Y+12, r25	; 0x0c
     56e:	f1 01       	movw	r30, r2
     570:	24 81       	ldd	r18, Z+4	; 0x04
     572:	35 81       	ldd	r19, Z+5	; 0x05
     574:	46 81       	ldd	r20, Z+6	; 0x06
     576:	57 81       	ldd	r21, Z+7	; 0x07
     578:	c7 01       	movw	r24, r14
     57a:	b6 01       	movw	r22, r12
     57c:	0e 94 50 1f 	call	0x3ea0	; 0x3ea0 <__mulsf3>
     580:	9b 01       	movw	r18, r22
     582:	ac 01       	movw	r20, r24
     584:	69 81       	ldd	r22, Y+1	; 0x01
     586:	7a 81       	ldd	r23, Y+2	; 0x02
     588:	8b 81       	ldd	r24, Y+3	; 0x03
     58a:	9c 81       	ldd	r25, Y+4	; 0x04
     58c:	0e 94 73 1c 	call	0x38e6	; 0x38e6 <__addsf3>
     590:	69 8f       	std	Y+25, r22	; 0x19
     592:	7a 8f       	std	Y+26, r23	; 0x1a
     594:	8b 8f       	std	Y+27, r24	; 0x1b
     596:	9c 8f       	std	Y+28, r25	; 0x1c
     598:	d1 01       	movw	r26, r2
     59a:	18 96       	adiw	r26, 0x08	; 8
     59c:	2d 91       	ld	r18, X+
     59e:	3d 91       	ld	r19, X+
     5a0:	4d 91       	ld	r20, X+
     5a2:	5c 91       	ld	r21, X
     5a4:	1b 97       	sbiw	r26, 0x0b	; 11
     5a6:	c3 01       	movw	r24, r6
     5a8:	b2 01       	movw	r22, r4
     5aa:	0e 94 73 1c 	call	0x38e6	; 0x38e6 <__addsf3>
     5ae:	6b 01       	movw	r12, r22
     5b0:	7c 01       	movw	r14, r24
     5b2:	f1 01       	movw	r30, r2
     5b4:	64 ab       	std	Z+52, r22	; 0x34
     5b6:	75 ab       	std	Z+53, r23	; 0x35
     5b8:	86 ab       	std	Z+54, r24	; 0x36
     5ba:	97 ab       	std	Z+55, r25	; 0x37
     5bc:	9b 01       	movw	r18, r22
     5be:	ac 01       	movw	r20, r24
     5c0:	c3 01       	movw	r24, r6
     5c2:	b2 01       	movw	r22, r4
     5c4:	0e 94 40 1d 	call	0x3a80	; 0x3a80 <__divsf3>
     5c8:	4b 01       	movw	r8, r22
     5ca:	5c 01       	movw	r10, r24
     5cc:	d1 01       	movw	r26, r2
     5ce:	98 96       	adiw	r26, 0x28	; 40
     5d0:	6d 93       	st	X+, r22
     5d2:	7d 93       	st	X+, r23
     5d4:	8d 93       	st	X+, r24
     5d6:	9c 93       	st	X, r25
     5d8:	9b 97       	sbiw	r26, 0x2b	; 43
     5da:	a7 01       	movw	r20, r14
     5dc:	96 01       	movw	r18, r12
     5de:	69 85       	ldd	r22, Y+9	; 0x09
     5e0:	7a 85       	ldd	r23, Y+10	; 0x0a
     5e2:	8b 85       	ldd	r24, Y+11	; 0x0b
     5e4:	9c 85       	ldd	r25, Y+12	; 0x0c
     5e6:	0e 94 40 1d 	call	0x3a80	; 0x3a80 <__divsf3>
     5ea:	6b 01       	movw	r12, r22
     5ec:	7c 01       	movw	r14, r24
     5ee:	f1 01       	movw	r30, r2
     5f0:	64 a7       	std	Z+44, r22	; 0x2c
     5f2:	75 a7       	std	Z+45, r23	; 0x2d
     5f4:	86 a7       	std	Z+46, r24	; 0x2e
     5f6:	97 a7       	std	Z+47, r25	; 0x2f
     5f8:	2d 85       	ldd	r18, Y+13	; 0x0d
     5fa:	3e 85       	ldd	r19, Y+14	; 0x0e
     5fc:	4f 85       	ldd	r20, Y+15	; 0x0f
     5fe:	58 89       	ldd	r21, Y+16	; 0x10
     600:	6d 89       	ldd	r22, Y+21	; 0x15
     602:	7e 89       	ldd	r23, Y+22	; 0x16
     604:	8f 89       	ldd	r24, Y+23	; 0x17
     606:	98 8d       	ldd	r25, Y+24	; 0x18
     608:	0e 94 72 1c 	call	0x38e4	; 0x38e4 <__subsf3>
     60c:	69 83       	std	Y+1, r22	; 0x01
     60e:	7a 83       	std	Y+2, r23	; 0x02
     610:	8b 83       	std	Y+3, r24	; 0x03
     612:	9c 83       	std	Y+4, r25	; 0x04
     614:	d1 01       	movw	r26, r2
     616:	d0 96       	adiw	r26, 0x30	; 48
     618:	6d 93       	st	X+, r22
     61a:	7d 93       	st	X+, r23
     61c:	8d 93       	st	X+, r24
     61e:	9c 93       	st	X, r25
     620:	d3 97       	sbiw	r26, 0x33	; 51
     622:	9b 01       	movw	r18, r22
     624:	ac 01       	movw	r20, r24
     626:	c5 01       	movw	r24, r10
     628:	b4 01       	movw	r22, r8
     62a:	0e 94 50 1f 	call	0x3ea0	; 0x3ea0 <__mulsf3>
     62e:	9b 01       	movw	r18, r22
     630:	ac 01       	movw	r20, r24
     632:	6d 85       	ldd	r22, Y+13	; 0x0d
     634:	7e 85       	ldd	r23, Y+14	; 0x0e
     636:	8f 85       	ldd	r24, Y+15	; 0x0f
     638:	98 89       	ldd	r25, Y+16	; 0x10
     63a:	0e 94 73 1c 	call	0x38e6	; 0x38e6 <__addsf3>
     63e:	6d 87       	std	Y+13, r22	; 0x0d
     640:	7e 87       	std	Y+14, r23	; 0x0e
     642:	8f 87       	std	Y+15, r24	; 0x0f
     644:	98 8b       	std	Y+16, r25	; 0x10
     646:	f1 01       	movw	r30, r2
     648:	64 87       	std	Z+12, r22	; 0x0c
     64a:	75 87       	std	Z+13, r23	; 0x0d
     64c:	86 87       	std	Z+14, r24	; 0x0e
     64e:	97 87       	std	Z+15, r25	; 0x0f
     650:	29 81       	ldd	r18, Y+1	; 0x01
     652:	3a 81       	ldd	r19, Y+2	; 0x02
     654:	4b 81       	ldd	r20, Y+3	; 0x03
     656:	5c 81       	ldd	r21, Y+4	; 0x04
     658:	c7 01       	movw	r24, r14
     65a:	b6 01       	movw	r22, r12
     65c:	0e 94 50 1f 	call	0x3ea0	; 0x3ea0 <__mulsf3>
     660:	9b 01       	movw	r18, r22
     662:	ac 01       	movw	r20, r24
     664:	69 89       	ldd	r22, Y+17	; 0x11
     666:	7a 89       	ldd	r23, Y+18	; 0x12
     668:	8b 89       	ldd	r24, Y+19	; 0x13
     66a:	9c 89       	ldd	r25, Y+20	; 0x14
     66c:	0e 94 73 1c 	call	0x38e6	; 0x38e6 <__addsf3>
     670:	d1 01       	movw	r26, r2
     672:	50 96       	adiw	r26, 0x10	; 16
     674:	6d 93       	st	X+, r22
     676:	7d 93       	st	X+, r23
     678:	8d 93       	st	X+, r24
     67a:	9c 93       	st	X, r25
     67c:	53 97       	sbiw	r26, 0x13	; 19
     67e:	a3 01       	movw	r20, r6
     680:	92 01       	movw	r18, r4
     682:	c5 01       	movw	r24, r10
     684:	b4 01       	movw	r22, r8
     686:	0e 94 50 1f 	call	0x3ea0	; 0x3ea0 <__mulsf3>
     68a:	9b 01       	movw	r18, r22
     68c:	ac 01       	movw	r20, r24
     68e:	c3 01       	movw	r24, r6
     690:	b2 01       	movw	r22, r4
     692:	0e 94 72 1c 	call	0x38e4	; 0x38e4 <__subsf3>
     696:	2b 01       	movw	r4, r22
     698:	3c 01       	movw	r6, r24
     69a:	f1 01       	movw	r30, r2
     69c:	60 8f       	std	Z+24, r22	; 0x18
     69e:	71 8f       	std	Z+25, r23	; 0x19
     6a0:	82 8f       	std	Z+26, r24	; 0x1a
     6a2:	93 8f       	std	Z+27, r25	; 0x1b
     6a4:	2d 81       	ldd	r18, Y+5	; 0x05
     6a6:	3e 81       	ldd	r19, Y+6	; 0x06
     6a8:	4f 81       	ldd	r20, Y+7	; 0x07
     6aa:	58 85       	ldd	r21, Y+8	; 0x08
     6ac:	c5 01       	movw	r24, r10
     6ae:	b4 01       	movw	r22, r8
     6b0:	0e 94 50 1f 	call	0x3ea0	; 0x3ea0 <__mulsf3>
     6b4:	9b 01       	movw	r18, r22
     6b6:	ac 01       	movw	r20, r24
     6b8:	6d 81       	ldd	r22, Y+5	; 0x05
     6ba:	7e 81       	ldd	r23, Y+6	; 0x06
     6bc:	8f 81       	ldd	r24, Y+7	; 0x07
     6be:	98 85       	ldd	r25, Y+8	; 0x08
     6c0:	0e 94 72 1c 	call	0x38e4	; 0x38e4 <__subsf3>
     6c4:	4b 01       	movw	r8, r22
     6c6:	5c 01       	movw	r10, r24
     6c8:	d1 01       	movw	r26, r2
     6ca:	5c 96       	adiw	r26, 0x1c	; 28
     6cc:	6d 93       	st	X+, r22
     6ce:	7d 93       	st	X+, r23
     6d0:	8d 93       	st	X+, r24
     6d2:	9c 93       	st	X, r25
     6d4:	5f 97       	sbiw	r26, 0x1f	; 31
     6d6:	a3 01       	movw	r20, r6
     6d8:	92 01       	movw	r18, r4
     6da:	c7 01       	movw	r24, r14
     6dc:	b6 01       	movw	r22, r12
     6de:	0e 94 50 1f 	call	0x3ea0	; 0x3ea0 <__mulsf3>
     6e2:	9b 01       	movw	r18, r22
     6e4:	ac 01       	movw	r20, r24
     6e6:	69 85       	ldd	r22, Y+9	; 0x09
     6e8:	7a 85       	ldd	r23, Y+10	; 0x0a
     6ea:	8b 85       	ldd	r24, Y+11	; 0x0b
     6ec:	9c 85       	ldd	r25, Y+12	; 0x0c
     6ee:	0e 94 72 1c 	call	0x38e4	; 0x38e4 <__subsf3>
     6f2:	f1 01       	movw	r30, r2
     6f4:	60 a3       	std	Z+32, r22	; 0x20
     6f6:	71 a3       	std	Z+33, r23	; 0x21
     6f8:	82 a3       	std	Z+34, r24	; 0x22
     6fa:	93 a3       	std	Z+35, r25	; 0x23
     6fc:	a5 01       	movw	r20, r10
     6fe:	94 01       	movw	r18, r8
     700:	c7 01       	movw	r24, r14
     702:	b6 01       	movw	r22, r12
     704:	0e 94 50 1f 	call	0x3ea0	; 0x3ea0 <__mulsf3>
     708:	9b 01       	movw	r18, r22
     70a:	ac 01       	movw	r20, r24
     70c:	69 8d       	ldd	r22, Y+25	; 0x19
     70e:	7a 8d       	ldd	r23, Y+26	; 0x1a
     710:	8b 8d       	ldd	r24, Y+27	; 0x1b
     712:	9c 8d       	ldd	r25, Y+28	; 0x1c
     714:	0e 94 72 1c 	call	0x38e4	; 0x38e4 <__subsf3>
     718:	d1 01       	movw	r26, r2
     71a:	94 96       	adiw	r26, 0x24	; 36
     71c:	6d 93       	st	X+, r22
     71e:	7d 93       	st	X+, r23
     720:	8d 93       	st	X+, r24
     722:	9c 93       	st	X, r25
     724:	97 97       	sbiw	r26, 0x27	; 39
     726:	6d 85       	ldd	r22, Y+13	; 0x0d
     728:	7e 85       	ldd	r23, Y+14	; 0x0e
     72a:	8f 85       	ldd	r24, Y+15	; 0x0f
     72c:	98 89       	ldd	r25, Y+16	; 0x10
     72e:	6c 96       	adiw	r28, 0x1c	; 28
     730:	0f b6       	in	r0, 0x3f	; 63
     732:	f8 94       	cli
     734:	de bf       	out	0x3e, r29	; 62
     736:	0f be       	out	0x3f, r0	; 63
     738:	cd bf       	out	0x3d, r28	; 61
     73a:	df 91       	pop	r29
     73c:	cf 91       	pop	r28
     73e:	1f 91       	pop	r17
     740:	0f 91       	pop	r16
     742:	ff 90       	pop	r15
     744:	ef 90       	pop	r14
     746:	df 90       	pop	r13
     748:	cf 90       	pop	r12
     74a:	bf 90       	pop	r11
     74c:	af 90       	pop	r10
     74e:	9f 90       	pop	r9
     750:	8f 90       	pop	r8
     752:	7f 90       	pop	r7
     754:	6f 90       	pop	r6
     756:	5f 90       	pop	r5
     758:	4f 90       	pop	r4
     75a:	3f 90       	pop	r3
     75c:	2f 90       	pop	r2
     75e:	08 95       	ret

00000760 <_Z15updatePitchRollv>:
     760:	8f 92       	push	r8
     762:	9f 92       	push	r9
     764:	af 92       	push	r10
     766:	bf 92       	push	r11
     768:	cf 92       	push	r12
     76a:	df 92       	push	r13
     76c:	ef 92       	push	r14
     76e:	ff 92       	push	r15
     770:	c0 90 90 03 	lds	r12, 0x0390
     774:	d0 90 91 03 	lds	r13, 0x0391
     778:	e0 90 92 03 	lds	r14, 0x0392
     77c:	f0 90 93 03 	lds	r15, 0x0393
     780:	80 90 94 03 	lds	r8, 0x0394
     784:	90 90 95 03 	lds	r9, 0x0395
     788:	a0 90 96 03 	lds	r10, 0x0396
     78c:	b0 90 97 03 	lds	r11, 0x0397
     790:	a7 01       	movw	r20, r14
     792:	96 01       	movw	r18, r12
     794:	c5 01       	movw	r24, r10
     796:	b4 01       	movw	r22, r8
     798:	0e 94 e6 1c 	call	0x39cc	; 0x39cc <atan2>
     79c:	21 ee       	ldi	r18, 0xE1	; 225
     79e:	3e e2       	ldi	r19, 0x2E	; 46
     7a0:	45 e6       	ldi	r20, 0x65	; 101
     7a2:	52 e4       	ldi	r21, 0x42	; 66
     7a4:	0e 94 50 1f 	call	0x3ea0	; 0x3ea0 <__mulsf3>
     7a8:	60 93 72 03 	sts	0x0372, r22
     7ac:	70 93 73 03 	sts	0x0373, r23
     7b0:	80 93 74 03 	sts	0x0374, r24
     7b4:	90 93 75 03 	sts	0x0375, r25
     7b8:	a5 01       	movw	r20, r10
     7ba:	94 01       	movw	r18, r8
     7bc:	c5 01       	movw	r24, r10
     7be:	b4 01       	movw	r22, r8
     7c0:	0e 94 50 1f 	call	0x3ea0	; 0x3ea0 <__mulsf3>
     7c4:	4b 01       	movw	r8, r22
     7c6:	5c 01       	movw	r10, r24
     7c8:	a7 01       	movw	r20, r14
     7ca:	96 01       	movw	r18, r12
     7cc:	c7 01       	movw	r24, r14
     7ce:	b6 01       	movw	r22, r12
     7d0:	0e 94 50 1f 	call	0x3ea0	; 0x3ea0 <__mulsf3>
     7d4:	9b 01       	movw	r18, r22
     7d6:	ac 01       	movw	r20, r24
     7d8:	c5 01       	movw	r24, r10
     7da:	b4 01       	movw	r22, r8
     7dc:	0e 94 73 1c 	call	0x38e6	; 0x38e6 <__addsf3>
     7e0:	0e 94 bd 1f 	call	0x3f7a	; 0x3f7a <sqrt>
     7e4:	9b 01       	movw	r18, r22
     7e6:	ac 01       	movw	r20, r24
     7e8:	80 91 98 03 	lds	r24, 0x0398
     7ec:	90 91 99 03 	lds	r25, 0x0399
     7f0:	a0 91 9a 03 	lds	r26, 0x039A
     7f4:	b0 91 9b 03 	lds	r27, 0x039B
     7f8:	bc 01       	movw	r22, r24
     7fa:	cd 01       	movw	r24, r26
     7fc:	90 58       	subi	r25, 0x80	; 128
     7fe:	0e 94 40 1d 	call	0x3a80	; 0x3a80 <__divsf3>
     802:	0e 94 11 1d 	call	0x3a22	; 0x3a22 <atan>
     806:	21 ee       	ldi	r18, 0xE1	; 225
     808:	3e e2       	ldi	r19, 0x2E	; 46
     80a:	45 e6       	ldi	r20, 0x65	; 101
     80c:	52 e4       	ldi	r21, 0x42	; 66
     80e:	0e 94 50 1f 	call	0x3ea0	; 0x3ea0 <__mulsf3>
     812:	60 93 6e 03 	sts	0x036E, r22
     816:	70 93 6f 03 	sts	0x036F, r23
     81a:	80 93 70 03 	sts	0x0370, r24
     81e:	90 93 71 03 	sts	0x0371, r25
     822:	ff 90       	pop	r15
     824:	ef 90       	pop	r14
     826:	df 90       	pop	r13
     828:	cf 90       	pop	r12
     82a:	bf 90       	pop	r11
     82c:	af 90       	pop	r10
     82e:	9f 90       	pop	r9
     830:	8f 90       	pop	r8
     832:	08 95       	ret

00000834 <_Z9updateYawv>:
     834:	4f 92       	push	r4
     836:	5f 92       	push	r5
     838:	6f 92       	push	r6
     83a:	7f 92       	push	r7
     83c:	8f 92       	push	r8
     83e:	9f 92       	push	r9
     840:	af 92       	push	r10
     842:	bf 92       	push	r11
     844:	cf 92       	push	r12
     846:	df 92       	push	r13
     848:	ef 92       	push	r14
     84a:	ff 92       	push	r15
     84c:	cf 93       	push	r28
     84e:	df 93       	push	r29
     850:	cd b7       	in	r28, 0x3d	; 61
     852:	de b7       	in	r29, 0x3e	; 62
     854:	64 97       	sbiw	r28, 0x14	; 20
     856:	0f b6       	in	r0, 0x3f	; 63
     858:	f8 94       	cli
     85a:	de bf       	out	0x3e, r29	; 62
     85c:	0f be       	out	0x3f, r0	; 63
     85e:	cd bf       	out	0x3d, r28	; 61
     860:	20 91 2c 03 	lds	r18, 0x032C
     864:	30 91 2d 03 	lds	r19, 0x032D
     868:	40 91 2e 03 	lds	r20, 0x032E
     86c:	50 91 2f 03 	lds	r21, 0x032F
     870:	60 91 7c 03 	lds	r22, 0x037C
     874:	70 91 7d 03 	lds	r23, 0x037D
     878:	80 91 7e 03 	lds	r24, 0x037E
     87c:	90 91 7f 03 	lds	r25, 0x037F
     880:	0e 94 50 1f 	call	0x3ea0	; 0x3ea0 <__mulsf3>
     884:	2b 01       	movw	r4, r22
     886:	3c 01       	movw	r6, r24
     888:	80 91 78 03 	lds	r24, 0x0378
     88c:	90 91 79 03 	lds	r25, 0x0379
     890:	a0 91 7a 03 	lds	r26, 0x037A
     894:	b0 91 7b 03 	lds	r27, 0x037B
     898:	bc 01       	movw	r22, r24
     89a:	cd 01       	movw	r24, r26
     89c:	90 58       	subi	r25, 0x80	; 128
     89e:	20 91 30 03 	lds	r18, 0x0330
     8a2:	30 91 31 03 	lds	r19, 0x0331
     8a6:	40 91 32 03 	lds	r20, 0x0332
     8aa:	50 91 33 03 	lds	r21, 0x0333
     8ae:	0e 94 50 1f 	call	0x3ea0	; 0x3ea0 <__mulsf3>
     8b2:	6b 01       	movw	r12, r22
     8b4:	7c 01       	movw	r14, r24
     8b6:	80 91 80 03 	lds	r24, 0x0380
     8ba:	90 91 81 03 	lds	r25, 0x0381
     8be:	a0 91 82 03 	lds	r26, 0x0382
     8c2:	b0 91 83 03 	lds	r27, 0x0383
     8c6:	bc 01       	movw	r22, r24
     8c8:	cd 01       	movw	r24, r26
     8ca:	90 58       	subi	r25, 0x80	; 128
     8cc:	20 91 28 03 	lds	r18, 0x0328
     8d0:	30 91 29 03 	lds	r19, 0x0329
     8d4:	40 91 2a 03 	lds	r20, 0x032A
     8d8:	50 91 2b 03 	lds	r21, 0x032B
     8dc:	0e 94 50 1f 	call	0x3ea0	; 0x3ea0 <__mulsf3>
     8e0:	20 91 06 02 	lds	r18, 0x0206
     8e4:	30 91 07 02 	lds	r19, 0x0207
     8e8:	40 91 08 02 	lds	r20, 0x0208
     8ec:	50 91 09 02 	lds	r21, 0x0209
     8f0:	0e 94 72 1c 	call	0x38e4	; 0x38e4 <__subsf3>
     8f4:	4b 01       	movw	r8, r22
     8f6:	5c 01       	movw	r10, r24
     8f8:	60 93 80 03 	sts	0x0380, r22
     8fc:	70 93 81 03 	sts	0x0381, r23
     900:	80 93 82 03 	sts	0x0382, r24
     904:	90 93 83 03 	sts	0x0383, r25
     908:	20 91 0a 02 	lds	r18, 0x020A
     90c:	30 91 0b 02 	lds	r19, 0x020B
     910:	40 91 0c 02 	lds	r20, 0x020C
     914:	50 91 0d 02 	lds	r21, 0x020D
     918:	c3 01       	movw	r24, r6
     91a:	b2 01       	movw	r22, r4
     91c:	0e 94 72 1c 	call	0x38e4	; 0x38e4 <__subsf3>
     920:	69 83       	std	Y+1, r22	; 0x01
     922:	7a 83       	std	Y+2, r23	; 0x02
     924:	8b 83       	std	Y+3, r24	; 0x03
     926:	9c 83       	std	Y+4, r25	; 0x04
     928:	60 93 7c 03 	sts	0x037C, r22
     92c:	70 93 7d 03 	sts	0x037D, r23
     930:	80 93 7e 03 	sts	0x037E, r24
     934:	90 93 7f 03 	sts	0x037F, r25
     938:	20 91 0e 02 	lds	r18, 0x020E
     93c:	30 91 0f 02 	lds	r19, 0x020F
     940:	40 91 10 02 	lds	r20, 0x0210
     944:	50 91 11 02 	lds	r21, 0x0211
     948:	c7 01       	movw	r24, r14
     94a:	b6 01       	movw	r22, r12
     94c:	0e 94 72 1c 	call	0x38e4	; 0x38e4 <__subsf3>
     950:	6b 01       	movw	r12, r22
     952:	7c 01       	movw	r14, r24
     954:	60 93 78 03 	sts	0x0378, r22
     958:	70 93 79 03 	sts	0x0379, r23
     95c:	80 93 7a 03 	sts	0x037A, r24
     960:	90 93 7b 03 	sts	0x037B, r25
     964:	25 e3       	ldi	r18, 0x35	; 53
     966:	3a ef       	ldi	r19, 0xFA	; 250
     968:	4e e8       	ldi	r20, 0x8E	; 142
     96a:	5c e3       	ldi	r21, 0x3C	; 60
     96c:	60 91 4e 03 	lds	r22, 0x034E
     970:	70 91 4f 03 	lds	r23, 0x034F
     974:	80 91 50 03 	lds	r24, 0x0350
     978:	90 91 51 03 	lds	r25, 0x0351
     97c:	0e 94 50 1f 	call	0x3ea0	; 0x3ea0 <__mulsf3>
     980:	2b 01       	movw	r4, r22
     982:	3c 01       	movw	r6, r24
     984:	25 e3       	ldi	r18, 0x35	; 53
     986:	3a ef       	ldi	r19, 0xFA	; 250
     988:	4e e8       	ldi	r20, 0x8E	; 142
     98a:	5c e3       	ldi	r21, 0x3C	; 60
     98c:	60 91 4a 03 	lds	r22, 0x034A
     990:	70 91 4b 03 	lds	r23, 0x034B
     994:	80 91 4c 03 	lds	r24, 0x034C
     998:	90 91 4d 03 	lds	r25, 0x034D
     99c:	0e 94 50 1f 	call	0x3ea0	; 0x3ea0 <__mulsf3>
     9a0:	6d 87       	std	Y+13, r22	; 0x0d
     9a2:	7e 87       	std	Y+14, r23	; 0x0e
     9a4:	8f 87       	std	Y+15, r24	; 0x0f
     9a6:	98 8b       	std	Y+16, r25	; 0x10
     9a8:	c3 01       	movw	r24, r6
     9aa:	b2 01       	movw	r22, r4
     9ac:	0e 94 b3 1f 	call	0x3f66	; 0x3f66 <sin>
     9b0:	6d 83       	std	Y+5, r22	; 0x05
     9b2:	7e 83       	std	Y+6, r23	; 0x06
     9b4:	8f 83       	std	Y+7, r24	; 0x07
     9b6:	98 87       	std	Y+8, r25	; 0x08
     9b8:	c3 01       	movw	r24, r6
     9ba:	b2 01       	movw	r22, r4
     9bc:	0e 94 3d 1d 	call	0x3a7a	; 0x3a7a <cos>
     9c0:	69 87       	std	Y+9, r22	; 0x09
     9c2:	7a 87       	std	Y+10, r23	; 0x0a
     9c4:	8b 87       	std	Y+11, r24	; 0x0b
     9c6:	9c 87       	std	Y+12, r25	; 0x0c
     9c8:	6d 85       	ldd	r22, Y+13	; 0x0d
     9ca:	7e 85       	ldd	r23, Y+14	; 0x0e
     9cc:	8f 85       	ldd	r24, Y+15	; 0x0f
     9ce:	98 89       	ldd	r25, Y+16	; 0x10
     9d0:	0e 94 3d 1d 	call	0x3a7a	; 0x3a7a <cos>
     9d4:	9b 01       	movw	r18, r22
     9d6:	ac 01       	movw	r20, r24
     9d8:	6d 85       	ldd	r22, Y+13	; 0x0d
     9da:	7e 85       	ldd	r23, Y+14	; 0x0e
     9dc:	8f 85       	ldd	r24, Y+15	; 0x0f
     9de:	98 89       	ldd	r25, Y+16	; 0x10
     9e0:	29 8b       	std	Y+17, r18	; 0x11
     9e2:	3a 8b       	std	Y+18, r19	; 0x12
     9e4:	4b 8b       	std	Y+19, r20	; 0x13
     9e6:	5c 8b       	std	Y+20, r21	; 0x14
     9e8:	0e 94 b3 1f 	call	0x3f66	; 0x3f66 <sin>
     9ec:	2b 01       	movw	r4, r22
     9ee:	3c 01       	movw	r6, r24
     9f0:	29 89       	ldd	r18, Y+17	; 0x11
     9f2:	3a 89       	ldd	r19, Y+18	; 0x12
     9f4:	4b 89       	ldd	r20, Y+19	; 0x13
     9f6:	5c 89       	ldd	r21, Y+20	; 0x14
     9f8:	c5 01       	movw	r24, r10
     9fa:	b4 01       	movw	r22, r8
     9fc:	0e 94 50 1f 	call	0x3ea0	; 0x3ea0 <__mulsf3>
     a00:	4b 01       	movw	r8, r22
     a02:	5c 01       	movw	r10, r24
     a04:	a3 01       	movw	r20, r6
     a06:	92 01       	movw	r18, r4
     a08:	69 81       	ldd	r22, Y+1	; 0x01
     a0a:	7a 81       	ldd	r23, Y+2	; 0x02
     a0c:	8b 81       	ldd	r24, Y+3	; 0x03
     a0e:	9c 81       	ldd	r25, Y+4	; 0x04
     a10:	0e 94 50 1f 	call	0x3ea0	; 0x3ea0 <__mulsf3>
     a14:	2d 81       	ldd	r18, Y+5	; 0x05
     a16:	3e 81       	ldd	r19, Y+6	; 0x06
     a18:	4f 81       	ldd	r20, Y+7	; 0x07
     a1a:	58 85       	ldd	r21, Y+8	; 0x08
     a1c:	0e 94 50 1f 	call	0x3ea0	; 0x3ea0 <__mulsf3>
     a20:	9b 01       	movw	r18, r22
     a22:	ac 01       	movw	r20, r24
     a24:	c5 01       	movw	r24, r10
     a26:	b4 01       	movw	r22, r8
     a28:	0e 94 73 1c 	call	0x38e6	; 0x38e6 <__addsf3>
     a2c:	4b 01       	movw	r8, r22
     a2e:	5c 01       	movw	r10, r24
     a30:	a3 01       	movw	r20, r6
     a32:	92 01       	movw	r18, r4
     a34:	c7 01       	movw	r24, r14
     a36:	b6 01       	movw	r22, r12
     a38:	0e 94 50 1f 	call	0x3ea0	; 0x3ea0 <__mulsf3>
     a3c:	29 85       	ldd	r18, Y+9	; 0x09
     a3e:	3a 85       	ldd	r19, Y+10	; 0x0a
     a40:	4b 85       	ldd	r20, Y+11	; 0x0b
     a42:	5c 85       	ldd	r21, Y+12	; 0x0c
     a44:	0e 94 50 1f 	call	0x3ea0	; 0x3ea0 <__mulsf3>
     a48:	9b 01       	movw	r18, r22
     a4a:	ac 01       	movw	r20, r24
     a4c:	c5 01       	movw	r24, r10
     a4e:	b4 01       	movw	r22, r8
     a50:	0e 94 73 1c 	call	0x38e6	; 0x38e6 <__addsf3>
     a54:	4b 01       	movw	r8, r22
     a56:	5c 01       	movw	r10, r24
     a58:	2d 81       	ldd	r18, Y+5	; 0x05
     a5a:	3e 81       	ldd	r19, Y+6	; 0x06
     a5c:	4f 81       	ldd	r20, Y+7	; 0x07
     a5e:	58 85       	ldd	r21, Y+8	; 0x08
     a60:	c7 01       	movw	r24, r14
     a62:	b6 01       	movw	r22, r12
     a64:	0e 94 50 1f 	call	0x3ea0	; 0x3ea0 <__mulsf3>
     a68:	6b 01       	movw	r12, r22
     a6a:	7c 01       	movw	r14, r24
     a6c:	29 85       	ldd	r18, Y+9	; 0x09
     a6e:	3a 85       	ldd	r19, Y+10	; 0x0a
     a70:	4b 85       	ldd	r20, Y+11	; 0x0b
     a72:	5c 85       	ldd	r21, Y+12	; 0x0c
     a74:	69 81       	ldd	r22, Y+1	; 0x01
     a76:	7a 81       	ldd	r23, Y+2	; 0x02
     a78:	8b 81       	ldd	r24, Y+3	; 0x03
     a7a:	9c 81       	ldd	r25, Y+4	; 0x04
     a7c:	0e 94 50 1f 	call	0x3ea0	; 0x3ea0 <__mulsf3>
     a80:	9b 01       	movw	r18, r22
     a82:	ac 01       	movw	r20, r24
     a84:	c7 01       	movw	r24, r14
     a86:	b6 01       	movw	r22, r12
     a88:	0e 94 72 1c 	call	0x38e4	; 0x38e4 <__subsf3>
     a8c:	90 58       	subi	r25, 0x80	; 128
     a8e:	a5 01       	movw	r20, r10
     a90:	94 01       	movw	r18, r8
     a92:	0e 94 e6 1c 	call	0x39cc	; 0x39cc <atan2>
     a96:	21 ee       	ldi	r18, 0xE1	; 225
     a98:	3e e2       	ldi	r19, 0x2E	; 46
     a9a:	45 e6       	ldi	r20, 0x65	; 101
     a9c:	52 e4       	ldi	r21, 0x42	; 66
     a9e:	0e 94 50 1f 	call	0x3ea0	; 0x3ea0 <__mulsf3>
     aa2:	dc 01       	movw	r26, r24
     aa4:	cb 01       	movw	r24, r22
     aa6:	b0 58       	subi	r27, 0x80	; 128
     aa8:	80 93 6a 03 	sts	0x036A, r24
     aac:	90 93 6b 03 	sts	0x036B, r25
     ab0:	a0 93 6c 03 	sts	0x036C, r26
     ab4:	b0 93 6d 03 	sts	0x036D, r27
     ab8:	64 96       	adiw	r28, 0x14	; 20
     aba:	0f b6       	in	r0, 0x3f	; 63
     abc:	f8 94       	cli
     abe:	de bf       	out	0x3e, r29	; 62
     ac0:	0f be       	out	0x3f, r0	; 63
     ac2:	cd bf       	out	0x3d, r28	; 61
     ac4:	df 91       	pop	r29
     ac6:	cf 91       	pop	r28
     ac8:	ff 90       	pop	r15
     aca:	ef 90       	pop	r14
     acc:	df 90       	pop	r13
     ace:	cf 90       	pop	r12
     ad0:	bf 90       	pop	r11
     ad2:	af 90       	pop	r10
     ad4:	9f 90       	pop	r9
     ad6:	8f 90       	pop	r8
     ad8:	7f 90       	pop	r7
     ada:	6f 90       	pop	r6
     adc:	5f 90       	pop	r5
     ade:	4f 90       	pop	r4
     ae0:	08 95       	ret

00000ae2 <_Z9MotorVibeii>:
     ae2:	81 30       	cpi	r24, 0x01	; 1
     ae4:	91 05       	cpc	r25, r1
     ae6:	49 f4       	brne	.+18     	; 0xafa <_Z9MotorVibeii+0x18>
     ae8:	61 30       	cpi	r22, 0x01	; 1
     aea:	71 05       	cpc	r23, r1
     aec:	11 f4       	brne	.+4      	; 0xaf2 <_Z9MotorVibeii+0x10>
     aee:	61 e0       	ldi	r22, 0x01	; 1
     af0:	01 c0       	rjmp	.+2      	; 0xaf4 <_Z9MotorVibeii+0x12>
     af2:	60 e0       	ldi	r22, 0x00	; 0
     af4:	80 91 14 02 	lds	r24, 0x0214
     af8:	18 c0       	rjmp	.+48     	; 0xb2a <_Z9MotorVibeii+0x48>
     afa:	02 97       	sbiw	r24, 0x02	; 2
     afc:	21 f4       	brne	.+8      	; 0xb06 <_Z9MotorVibeii+0x24>
     afe:	61 30       	cpi	r22, 0x01	; 1
     b00:	71 05       	cpc	r23, r1
     b02:	81 f4       	brne	.+32     	; 0xb24 <_Z9MotorVibeii+0x42>
     b04:	08 c0       	rjmp	.+16     	; 0xb16 <_Z9MotorVibeii+0x34>
     b06:	61 30       	cpi	r22, 0x01	; 1
     b08:	71 05       	cpc	r23, r1
     b0a:	39 f4       	brne	.+14     	; 0xb1a <_Z9MotorVibeii+0x38>
     b0c:	61 e0       	ldi	r22, 0x01	; 1
     b0e:	80 91 14 02 	lds	r24, 0x0214
     b12:	0e 94 3d 27 	call	0x4e7a	; 0x4e7a <digitalWrite>
     b16:	61 e0       	ldi	r22, 0x01	; 1
     b18:	06 c0       	rjmp	.+12     	; 0xb26 <_Z9MotorVibeii+0x44>
     b1a:	60 e0       	ldi	r22, 0x00	; 0
     b1c:	80 91 14 02 	lds	r24, 0x0214
     b20:	0e 94 3d 27 	call	0x4e7a	; 0x4e7a <digitalWrite>
     b24:	60 e0       	ldi	r22, 0x00	; 0
     b26:	80 91 12 02 	lds	r24, 0x0212
     b2a:	0c 94 3d 27 	jmp	0x4e7a	; 0x4e7a <digitalWrite>

00000b2e <_Z10sensorReadi>:
     b2e:	cf 92       	push	r12
     b30:	df 92       	push	r13
     b32:	ef 92       	push	r14
     b34:	ff 92       	push	r15
     b36:	cf 93       	push	r28
     b38:	df 93       	push	r29
     b3a:	ec 01       	movw	r28, r24
     b3c:	22 e1       	ldi	r18, 0x12	; 18
     b3e:	2c 9f       	mul	r18, r28
     b40:	c0 01       	movw	r24, r0
     b42:	2d 9f       	mul	r18, r29
     b44:	90 0d       	add	r25, r0
     b46:	11 24       	eor	r1, r1
     b48:	86 5b       	subi	r24, 0xB6	; 182
     b4a:	9b 4f       	sbci	r25, 0xFB	; 251
     b4c:	0e 94 2e 11 	call	0x225c	; 0x225c <_ZN7NewPing4pingEv>
     b50:	69 e3       	ldi	r22, 0x39	; 57
     b52:	70 e0       	ldi	r23, 0x00	; 0
     b54:	0e 94 6d 27 	call	0x4eda	; 0x4eda <__udivmodhi4>
     b58:	80 e0       	ldi	r24, 0x00	; 0
     b5a:	90 e0       	ldi	r25, 0x00	; 0
     b5c:	0e 94 d9 1d 	call	0x3bb2	; 0x3bb2 <__floatunsisf>
     b60:	6b 01       	movw	r12, r22
     b62:	7c 01       	movw	r14, r24
     b64:	21 96       	adiw	r28, 0x01	; 1
     b66:	c2 30       	cpi	r28, 0x02	; 2
     b68:	d1 05       	cpc	r29, r1
     b6a:	f1 f0       	breq	.+60     	; 0xba8 <_Z10sensorReadi+0x7a>
     b6c:	24 f4       	brge	.+8      	; 0xb76 <_Z10sensorReadi+0x48>
     b6e:	c1 30       	cpi	r28, 0x01	; 1
     b70:	d1 05       	cpc	r29, r1
     b72:	21 f0       	breq	.+8      	; 0xb7c <_Z10sensorReadi+0x4e>
     b74:	4c c0       	rjmp	.+152    	; 0xc0e <_Z10sensorReadi+0xe0>
     b76:	25 97       	sbiw	r28, 0x05	; 5
     b78:	7c f1       	brlt	.+94     	; 0xbd8 <_Z10sensorReadi+0xaa>
     b7a:	49 c0       	rjmp	.+146    	; 0xc0e <_Z10sensorReadi+0xe0>
     b7c:	20 e0       	ldi	r18, 0x00	; 0
     b7e:	30 e0       	ldi	r19, 0x00	; 0
     b80:	40 e7       	ldi	r20, 0x70	; 112
     b82:	52 e4       	ldi	r21, 0x42	; 66
     b84:	0e 94 39 1d 	call	0x3a72	; 0x3a72 <__cmpsf2>
     b88:	87 ff       	sbrs	r24, 7
     b8a:	41 c0       	rjmp	.+130    	; 0xc0e <_Z10sensorReadi+0xe0>
     b8c:	20 e0       	ldi	r18, 0x00	; 0
     b8e:	30 e0       	ldi	r19, 0x00	; 0
     b90:	a9 01       	movw	r20, r18
     b92:	c7 01       	movw	r24, r14
     b94:	b6 01       	movw	r22, r12
     b96:	0e 94 45 1f 	call	0x3e8a	; 0x3e8a <__gesf2>
     b9a:	18 16       	cp	r1, r24
     b9c:	c4 f5       	brge	.+112    	; 0xc0e <_Z10sensorReadi+0xe0>
     b9e:	d0 93 a7 04 	sts	0x04A7, r29
     ba2:	c0 93 a6 04 	sts	0x04A6, r28
     ba6:	33 c0       	rjmp	.+102    	; 0xc0e <_Z10sensorReadi+0xe0>
     ba8:	20 e0       	ldi	r18, 0x00	; 0
     baa:	30 e0       	ldi	r19, 0x00	; 0
     bac:	40 e7       	ldi	r20, 0x70	; 112
     bae:	52 e4       	ldi	r21, 0x42	; 66
     bb0:	0e 94 39 1d 	call	0x3a72	; 0x3a72 <__cmpsf2>
     bb4:	87 ff       	sbrs	r24, 7
     bb6:	2b c0       	rjmp	.+86     	; 0xc0e <_Z10sensorReadi+0xe0>
     bb8:	20 e0       	ldi	r18, 0x00	; 0
     bba:	30 e0       	ldi	r19, 0x00	; 0
     bbc:	a9 01       	movw	r20, r18
     bbe:	c7 01       	movw	r24, r14
     bc0:	b6 01       	movw	r22, r12
     bc2:	0e 94 45 1f 	call	0x3e8a	; 0x3e8a <__gesf2>
     bc6:	18 16       	cp	r1, r24
     bc8:	14 f5       	brge	.+68     	; 0xc0e <_Z10sensorReadi+0xe0>
     bca:	81 e0       	ldi	r24, 0x01	; 1
     bcc:	90 e0       	ldi	r25, 0x00	; 0
     bce:	90 93 a5 04 	sts	0x04A5, r25
     bd2:	80 93 a4 04 	sts	0x04A4, r24
     bd6:	1b c0       	rjmp	.+54     	; 0xc0e <_Z10sensorReadi+0xe0>
     bd8:	20 e0       	ldi	r18, 0x00	; 0
     bda:	30 e0       	ldi	r19, 0x00	; 0
     bdc:	40 ea       	ldi	r20, 0xA0	; 160
     bde:	52 e4       	ldi	r21, 0x42	; 66
     be0:	0e 94 39 1d 	call	0x3a72	; 0x3a72 <__cmpsf2>
     be4:	87 ff       	sbrs	r24, 7
     be6:	13 c0       	rjmp	.+38     	; 0xc0e <_Z10sensorReadi+0xe0>
     be8:	20 e0       	ldi	r18, 0x00	; 0
     bea:	30 e0       	ldi	r19, 0x00	; 0
     bec:	a9 01       	movw	r20, r18
     bee:	c7 01       	movw	r24, r14
     bf0:	b6 01       	movw	r22, r12
     bf2:	0e 94 45 1f 	call	0x3e8a	; 0x3e8a <__gesf2>
     bf6:	18 16       	cp	r1, r24
     bf8:	54 f4       	brge	.+20     	; 0xc0e <_Z10sensorReadi+0xe0>
     bfa:	81 e0       	ldi	r24, 0x01	; 1
     bfc:	90 e0       	ldi	r25, 0x00	; 0
     bfe:	90 93 a5 04 	sts	0x04A5, r25
     c02:	80 93 a4 04 	sts	0x04A4, r24
     c06:	90 93 a7 04 	sts	0x04A7, r25
     c0a:	80 93 a6 04 	sts	0x04A6, r24
     c0e:	df 91       	pop	r29
     c10:	cf 91       	pop	r28
     c12:	ff 90       	pop	r15
     c14:	ef 90       	pop	r14
     c16:	df 90       	pop	r13
     c18:	cf 90       	pop	r12
     c1a:	08 95       	ret

00000c1c <_Z5task1Pv>:
     c1c:	20 e0       	ldi	r18, 0x00	; 0
     c1e:	49 e1       	ldi	r20, 0x19	; 25
     c20:	50 e0       	ldi	r21, 0x00	; 0
     c22:	60 e0       	ldi	r22, 0x00	; 0
     c24:	70 e0       	ldi	r23, 0x00	; 0
     c26:	80 91 44 04 	lds	r24, 0x0444
     c2a:	90 91 45 04 	lds	r25, 0x0445
     c2e:	0e 94 90 14 	call	0x2920	; 0x2920 <xQueueGenericReceive>
     c32:	81 30       	cpi	r24, 0x01	; 1
     c34:	09 f0       	breq	.+2      	; 0xc38 <_Z5task1Pv+0x1c>
     c36:	67 c0       	rjmp	.+206    	; 0xd06 <_Z5task1Pv+0xea>
     c38:	68 e1       	ldi	r22, 0x18	; 24
     c3a:	72 e0       	ldi	r23, 0x02	; 2
     c3c:	86 e3       	ldi	r24, 0x36	; 54
     c3e:	9a e1       	ldi	r25, 0x1A	; 26
     c40:	0e 94 d1 24 	call	0x49a2	; 0x49a2 <_ZN5Print7printlnEPKc>
     c44:	10 92 a7 04 	sts	0x04A7, r1
     c48:	10 92 a6 04 	sts	0x04A6, r1
     c4c:	10 92 a5 04 	sts	0x04A5, r1
     c50:	10 92 a4 04 	sts	0x04A4, r1
     c54:	80 e0       	ldi	r24, 0x00	; 0
     c56:	90 e0       	ldi	r25, 0x00	; 0
     c58:	6a df       	rcall	.-300    	; 0xb2e <_Z10sensorReadi>
     c5a:	81 e0       	ldi	r24, 0x01	; 1
     c5c:	90 e0       	ldi	r25, 0x00	; 0
     c5e:	67 df       	rcall	.-306    	; 0xb2e <_Z10sensorReadi>
     c60:	82 e0       	ldi	r24, 0x02	; 2
     c62:	90 e0       	ldi	r25, 0x00	; 0
     c64:	64 df       	rcall	.-312    	; 0xb2e <_Z10sensorReadi>
     c66:	83 e0       	ldi	r24, 0x03	; 3
     c68:	90 e0       	ldi	r25, 0x00	; 0
     c6a:	61 df       	rcall	.-318    	; 0xb2e <_Z10sensorReadi>
     c6c:	84 e0       	ldi	r24, 0x04	; 4
     c6e:	90 e0       	ldi	r25, 0x00	; 0
     c70:	5e df       	rcall	.-324    	; 0xb2e <_Z10sensorReadi>
     c72:	80 91 a6 04 	lds	r24, 0x04A6
     c76:	90 91 a7 04 	lds	r25, 0x04A7
     c7a:	01 97       	sbiw	r24, 0x01	; 1
     c7c:	29 f4       	brne	.+10     	; 0xc88 <_Z5task1Pv+0x6c>
     c7e:	61 e0       	ldi	r22, 0x01	; 1
     c80:	70 e0       	ldi	r23, 0x00	; 0
     c82:	81 e0       	ldi	r24, 0x01	; 1
     c84:	90 e0       	ldi	r25, 0x00	; 0
     c86:	2d df       	rcall	.-422    	; 0xae2 <_Z9MotorVibeii>
     c88:	80 91 a4 04 	lds	r24, 0x04A4
     c8c:	90 91 a5 04 	lds	r25, 0x04A5
     c90:	01 97       	sbiw	r24, 0x01	; 1
     c92:	29 f4       	brne	.+10     	; 0xc9e <_Z5task1Pv+0x82>
     c94:	61 e0       	ldi	r22, 0x01	; 1
     c96:	70 e0       	ldi	r23, 0x00	; 0
     c98:	82 e0       	ldi	r24, 0x02	; 2
     c9a:	90 e0       	ldi	r25, 0x00	; 0
     c9c:	22 df       	rcall	.-444    	; 0xae2 <_Z9MotorVibeii>
     c9e:	80 91 a6 04 	lds	r24, 0x04A6
     ca2:	90 91 a7 04 	lds	r25, 0x04A7
     ca6:	89 2b       	or	r24, r25
     ca8:	59 f4       	brne	.+22     	; 0xcc0 <_Z5task1Pv+0xa4>
     caa:	60 e0       	ldi	r22, 0x00	; 0
     cac:	70 e0       	ldi	r23, 0x00	; 0
     cae:	81 e0       	ldi	r24, 0x01	; 1
     cb0:	90 e0       	ldi	r25, 0x00	; 0
     cb2:	17 df       	rcall	.-466    	; 0xae2 <_Z9MotorVibeii>
     cb4:	65 e2       	ldi	r22, 0x25	; 37
     cb6:	72 e0       	ldi	r23, 0x02	; 2
     cb8:	86 e3       	ldi	r24, 0x36	; 54
     cba:	9a e1       	ldi	r25, 0x1A	; 26
     cbc:	0e 94 d1 24 	call	0x49a2	; 0x49a2 <_ZN5Print7printlnEPKc>
     cc0:	80 91 a4 04 	lds	r24, 0x04A4
     cc4:	90 91 a5 04 	lds	r25, 0x04A5
     cc8:	89 2b       	or	r24, r25
     cca:	59 f4       	brne	.+22     	; 0xce2 <_Z5task1Pv+0xc6>
     ccc:	60 e0       	ldi	r22, 0x00	; 0
     cce:	70 e0       	ldi	r23, 0x00	; 0
     cd0:	82 e0       	ldi	r24, 0x02	; 2
     cd2:	90 e0       	ldi	r25, 0x00	; 0
     cd4:	06 df       	rcall	.-500    	; 0xae2 <_Z9MotorVibeii>
     cd6:	60 e3       	ldi	r22, 0x30	; 48
     cd8:	72 e0       	ldi	r23, 0x02	; 2
     cda:	86 e3       	ldi	r24, 0x36	; 54
     cdc:	9a e1       	ldi	r25, 0x1A	; 26
     cde:	0e 94 d1 24 	call	0x49a2	; 0x49a2 <_ZN5Print7printlnEPKc>
     ce2:	20 e0       	ldi	r18, 0x00	; 0
     ce4:	40 e0       	ldi	r20, 0x00	; 0
     ce6:	50 e0       	ldi	r21, 0x00	; 0
     ce8:	60 e0       	ldi	r22, 0x00	; 0
     cea:	70 e0       	ldi	r23, 0x00	; 0
     cec:	80 91 44 04 	lds	r24, 0x0444
     cf0:	90 91 45 04 	lds	r25, 0x0445
     cf4:	0e 94 03 14 	call	0x2806	; 0x2806 <xQueueGenericSend>
     cf8:	0e 94 39 12 	call	0x2472	; 0x2472 <vPortYield>
     cfc:	84 ef       	ldi	r24, 0xF4	; 244
     cfe:	91 e0       	ldi	r25, 0x01	; 1
     d00:	0e 94 c2 17 	call	0x2f84	; 0x2f84 <vTaskDelay>
     d04:	8b cf       	rjmp	.-234    	; 0xc1c <_Z5task1Pv>
     d06:	6b e3       	ldi	r22, 0x3B	; 59
     d08:	72 e0       	ldi	r23, 0x02	; 2
     d0a:	86 e3       	ldi	r24, 0x36	; 54
     d0c:	9a e1       	ldi	r25, 0x1A	; 26
     d0e:	0e 94 d1 24 	call	0x49a2	; 0x49a2 <_ZN5Print7printlnEPKc>
     d12:	ff cf       	rjmp	.-2      	; 0xd12 <_Z5task1Pv+0xf6>

00000d14 <_GLOBAL__sub_I_cm>:
	
	vTaskStartScheduler() ;
	
	return 0 ;
	
}
     d14:	0f 93       	push	r16
     d16:	1f 93       	push	r17
	NewPing(TRIGGER_PIN1, ECHO_PIN1, MAX_DISTANCE), // Each sensor's trigger pin, echo pin, and max distance to ping.
	NewPing(TRIGGER_PIN2, ECHO_PIN2, MAX_DISTANCE),
	NewPing(TRIGGER_PIN3, ECHO_PIN3, MAX_DISTANCE),
	NewPing(TRIGGER_PIN4, ECHO_PIN4, MAX_DISTANCE),
	NewPing(TRIGGER_PIN5, ECHO_PIN5, MAX_DISTANCE)
};
     d18:	28 ec       	ldi	r18, 0xC8	; 200
     d1a:	30 e0       	ldi	r19, 0x00	; 0
     d1c:	4b e2       	ldi	r20, 0x2B	; 43
     d1e:	6a e2       	ldi	r22, 0x2A	; 42
     d20:	8a e4       	ldi	r24, 0x4A	; 74
     d22:	94 e0       	ldi	r25, 0x04	; 4
     d24:	0e 94 68 10 	call	0x20d0	; 0x20d0 <_ZN7NewPingC1Ehhi>
     d28:	28 ec       	ldi	r18, 0xC8	; 200
     d2a:	30 e0       	ldi	r19, 0x00	; 0
     d2c:	4d e2       	ldi	r20, 0x2D	; 45
     d2e:	6c e2       	ldi	r22, 0x2C	; 44
     d30:	8c e5       	ldi	r24, 0x5C	; 92
     d32:	94 e0       	ldi	r25, 0x04	; 4
     d34:	0e 94 68 10 	call	0x20d0	; 0x20d0 <_ZN7NewPingC1Ehhi>
     d38:	28 ec       	ldi	r18, 0xC8	; 200
     d3a:	30 e0       	ldi	r19, 0x00	; 0
     d3c:	4f e2       	ldi	r20, 0x2F	; 47
     d3e:	6e e2       	ldi	r22, 0x2E	; 46
     d40:	8e e6       	ldi	r24, 0x6E	; 110
     d42:	94 e0       	ldi	r25, 0x04	; 4
     d44:	0e 94 68 10 	call	0x20d0	; 0x20d0 <_ZN7NewPingC1Ehhi>
     d48:	28 ec       	ldi	r18, 0xC8	; 200
     d4a:	30 e0       	ldi	r19, 0x00	; 0
     d4c:	41 e3       	ldi	r20, 0x31	; 49
     d4e:	60 e3       	ldi	r22, 0x30	; 48
     d50:	80 e8       	ldi	r24, 0x80	; 128
     d52:	94 e0       	ldi	r25, 0x04	; 4
     d54:	0e 94 68 10 	call	0x20d0	; 0x20d0 <_ZN7NewPingC1Ehhi>
     d58:	28 ec       	ldi	r18, 0xC8	; 200
     d5a:	30 e0       	ldi	r19, 0x00	; 0
     d5c:	43 e3       	ldi	r20, 0x33	; 51
     d5e:	62 e3       	ldi	r22, 0x32	; 50
     d60:	82 e9       	ldi	r24, 0x92	; 146
     d62:	94 e0       	ldi	r25, 0x04	; 4
     d64:	0e 94 68 10 	call	0x20d0	; 0x20d0 <_ZN7NewPingC1Ehhi>

class Kalman {
public:
    Kalman() {
        /* We will set the variables like so, these can also be tuned by the user */
        Q_angle = 0.001;
     d68:	0f e6       	ldi	r16, 0x6F	; 111
     d6a:	12 e1       	ldi	r17, 0x12	; 18
     d6c:	23 e8       	ldi	r18, 0x83	; 131
     d6e:	3a e3       	ldi	r19, 0x3A	; 58
     d70:	00 93 0c 04 	sts	0x040C, r16
     d74:	10 93 0d 04 	sts	0x040D, r17
     d78:	20 93 0e 04 	sts	0x040E, r18
     d7c:	30 93 0f 04 	sts	0x040F, r19
        Q_bias = 0.003;
     d80:	46 ea       	ldi	r20, 0xA6	; 166
     d82:	5b e9       	ldi	r21, 0x9B	; 155
     d84:	64 e4       	ldi	r22, 0x44	; 68
     d86:	7b e3       	ldi	r23, 0x3B	; 59
     d88:	40 93 10 04 	sts	0x0410, r20
     d8c:	50 93 11 04 	sts	0x0411, r21
     d90:	60 93 12 04 	sts	0x0412, r22
     d94:	70 93 13 04 	sts	0x0413, r23
        R_measure = 0.03;
     d98:	8f e8       	ldi	r24, 0x8F	; 143
     d9a:	92 ec       	ldi	r25, 0xC2	; 194
     d9c:	a5 ef       	ldi	r26, 0xF5	; 245
     d9e:	bc e3       	ldi	r27, 0x3C	; 60
     da0:	80 93 14 04 	sts	0x0414, r24
     da4:	90 93 15 04 	sts	0x0415, r25
     da8:	a0 93 16 04 	sts	0x0416, r26
     dac:	b0 93 17 04 	sts	0x0417, r27

        angle = 0; // Reset the angle
     db0:	10 92 18 04 	sts	0x0418, r1
     db4:	10 92 19 04 	sts	0x0419, r1
     db8:	10 92 1a 04 	sts	0x041A, r1
     dbc:	10 92 1b 04 	sts	0x041B, r1
        bias = 0; // Reset bias
     dc0:	10 92 1c 04 	sts	0x041C, r1
     dc4:	10 92 1d 04 	sts	0x041D, r1
     dc8:	10 92 1e 04 	sts	0x041E, r1
     dcc:	10 92 1f 04 	sts	0x041F, r1

        P[0][0] = 0; // Since we assume that the bias is 0 and we know the starting angle (use setAngle), the error covariance matrix is set like so - see: http://en.wikipedia.org/wiki/Kalman_filter#Example_application.2C_technical
     dd0:	10 92 24 04 	sts	0x0424, r1
     dd4:	10 92 25 04 	sts	0x0425, r1
     dd8:	10 92 26 04 	sts	0x0426, r1
     ddc:	10 92 27 04 	sts	0x0427, r1
        P[0][1] = 0;
     de0:	10 92 28 04 	sts	0x0428, r1
     de4:	10 92 29 04 	sts	0x0429, r1
     de8:	10 92 2a 04 	sts	0x042A, r1
     dec:	10 92 2b 04 	sts	0x042B, r1
        P[1][0] = 0;
     df0:	10 92 2c 04 	sts	0x042C, r1
     df4:	10 92 2d 04 	sts	0x042D, r1
     df8:	10 92 2e 04 	sts	0x042E, r1
     dfc:	10 92 2f 04 	sts	0x042F, r1
        P[1][1] = 0;
     e00:	10 92 30 04 	sts	0x0430, r1
     e04:	10 92 31 04 	sts	0x0431, r1
     e08:	10 92 32 04 	sts	0x0432, r1
     e0c:	10 92 33 04 	sts	0x0433, r1

class Kalman {
public:
    Kalman() {
        /* We will set the variables like so, these can also be tuned by the user */
        Q_angle = 0.001;
     e10:	00 93 d4 03 	sts	0x03D4, r16
     e14:	10 93 d5 03 	sts	0x03D5, r17
     e18:	20 93 d6 03 	sts	0x03D6, r18
     e1c:	30 93 d7 03 	sts	0x03D7, r19
        Q_bias = 0.003;
     e20:	40 93 d8 03 	sts	0x03D8, r20
     e24:	50 93 d9 03 	sts	0x03D9, r21
     e28:	60 93 da 03 	sts	0x03DA, r22
     e2c:	70 93 db 03 	sts	0x03DB, r23
        R_measure = 0.03;
     e30:	80 93 dc 03 	sts	0x03DC, r24
     e34:	90 93 dd 03 	sts	0x03DD, r25
     e38:	a0 93 de 03 	sts	0x03DE, r26
     e3c:	b0 93 df 03 	sts	0x03DF, r27

        angle = 0; // Reset the angle
     e40:	10 92 e0 03 	sts	0x03E0, r1
     e44:	10 92 e1 03 	sts	0x03E1, r1
     e48:	10 92 e2 03 	sts	0x03E2, r1
     e4c:	10 92 e3 03 	sts	0x03E3, r1
        bias = 0; // Reset bias
     e50:	10 92 e4 03 	sts	0x03E4, r1
     e54:	10 92 e5 03 	sts	0x03E5, r1
     e58:	10 92 e6 03 	sts	0x03E6, r1
     e5c:	10 92 e7 03 	sts	0x03E7, r1

        P[0][0] = 0; // Since we assume that the bias is 0 and we know the starting angle (use setAngle), the error covariance matrix is set like so - see: http://en.wikipedia.org/wiki/Kalman_filter#Example_application.2C_technical
     e60:	10 92 ec 03 	sts	0x03EC, r1
     e64:	10 92 ed 03 	sts	0x03ED, r1
     e68:	10 92 ee 03 	sts	0x03EE, r1
     e6c:	10 92 ef 03 	sts	0x03EF, r1
        P[0][1] = 0;
     e70:	10 92 f0 03 	sts	0x03F0, r1
     e74:	10 92 f1 03 	sts	0x03F1, r1
     e78:	10 92 f2 03 	sts	0x03F2, r1
     e7c:	10 92 f3 03 	sts	0x03F3, r1
        P[1][0] = 0;
     e80:	10 92 f4 03 	sts	0x03F4, r1
     e84:	10 92 f5 03 	sts	0x03F5, r1
     e88:	10 92 f6 03 	sts	0x03F6, r1
     e8c:	10 92 f7 03 	sts	0x03F7, r1
        P[1][1] = 0;
     e90:	10 92 f8 03 	sts	0x03F8, r1
     e94:	10 92 f9 03 	sts	0x03F9, r1
     e98:	10 92 fa 03 	sts	0x03FA, r1
     e9c:	10 92 fb 03 	sts	0x03FB, r1

class Kalman {
public:
    Kalman() {
        /* We will set the variables like so, these can also be tuned by the user */
        Q_angle = 0.001;
     ea0:	00 93 9c 03 	sts	0x039C, r16
     ea4:	10 93 9d 03 	sts	0x039D, r17
     ea8:	20 93 9e 03 	sts	0x039E, r18
     eac:	30 93 9f 03 	sts	0x039F, r19
        Q_bias = 0.003;
     eb0:	40 93 a0 03 	sts	0x03A0, r20
     eb4:	50 93 a1 03 	sts	0x03A1, r21
     eb8:	60 93 a2 03 	sts	0x03A2, r22
     ebc:	70 93 a3 03 	sts	0x03A3, r23
        R_measure = 0.03;
     ec0:	80 93 a4 03 	sts	0x03A4, r24
     ec4:	90 93 a5 03 	sts	0x03A5, r25
     ec8:	a0 93 a6 03 	sts	0x03A6, r26
     ecc:	b0 93 a7 03 	sts	0x03A7, r27

        angle = 0; // Reset the angle
     ed0:	10 92 a8 03 	sts	0x03A8, r1
     ed4:	10 92 a9 03 	sts	0x03A9, r1
     ed8:	10 92 aa 03 	sts	0x03AA, r1
     edc:	10 92 ab 03 	sts	0x03AB, r1
        bias = 0; // Reset bias
     ee0:	10 92 ac 03 	sts	0x03AC, r1
     ee4:	10 92 ad 03 	sts	0x03AD, r1
     ee8:	10 92 ae 03 	sts	0x03AE, r1
     eec:	10 92 af 03 	sts	0x03AF, r1

        P[0][0] = 0; // Since we assume that the bias is 0 and we know the starting angle (use setAngle), the error covariance matrix is set like so - see: http://en.wikipedia.org/wiki/Kalman_filter#Example_application.2C_technical
     ef0:	10 92 b4 03 	sts	0x03B4, r1
     ef4:	10 92 b5 03 	sts	0x03B5, r1
     ef8:	10 92 b6 03 	sts	0x03B6, r1
     efc:	10 92 b7 03 	sts	0x03B7, r1
        P[0][1] = 0;
     f00:	10 92 b8 03 	sts	0x03B8, r1
     f04:	10 92 b9 03 	sts	0x03B9, r1
     f08:	10 92 ba 03 	sts	0x03BA, r1
     f0c:	10 92 bb 03 	sts	0x03BB, r1
        P[1][0] = 0;
     f10:	10 92 bc 03 	sts	0x03BC, r1
     f14:	10 92 bd 03 	sts	0x03BD, r1
     f18:	10 92 be 03 	sts	0x03BE, r1
     f1c:	10 92 bf 03 	sts	0x03BF, r1
        P[1][1] = 0;
     f20:	10 92 c0 03 	sts	0x03C0, r1
     f24:	10 92 c1 03 	sts	0x03C1, r1
     f28:	10 92 c2 03 	sts	0x03C2, r1
     f2c:	10 92 c3 03 	sts	0x03C3, r1
	
	vTaskStartScheduler() ;
	
	return 0 ;
	
}
     f30:	1f 91       	pop	r17
     f32:	0f 91       	pop	r16
     f34:	08 95       	ret

00000f36 <_Z8i2cWritehhPhhb>:


/*I2C Functions*/
const uint16_t I2C_TIMEOUT = 1000; // Used to check for errors in I2C communication

uint8_t i2cWrite(uint8_t address, uint8_t registerAddress, uint8_t *data, uint8_t length, bool sendStop) {
     f36:	ef 92       	push	r14
     f38:	ff 92       	push	r15
     f3a:	0f 93       	push	r16
     f3c:	1f 93       	push	r17
     f3e:	cf 93       	push	r28
     f40:	df 93       	push	r29
     f42:	1f 92       	push	r1
     f44:	cd b7       	in	r28, 0x3d	; 61
     f46:	de b7       	in	r29, 0x3e	; 62
     f48:	16 2f       	mov	r17, r22
     f4a:	7a 01       	movw	r14, r20
	Wire.beginTransmission(address);
     f4c:	68 2f       	mov	r22, r24
     f4e:	8e e7       	ldi	r24, 0x7E	; 126
     f50:	99 e1       	ldi	r25, 0x19	; 25
     f52:	29 83       	std	Y+1, r18	; 0x01
     f54:	0e 94 53 1c 	call	0x38a6	; 0x38a6 <_ZN7TwoWire17beginTransmissionEh>
	Wire.write(registerAddress);
     f58:	61 2f       	mov	r22, r17
     f5a:	8e e7       	ldi	r24, 0x7E	; 126
     f5c:	99 e1       	ldi	r25, 0x19	; 25
     f5e:	0e 94 00 1c 	call	0x3800	; 0x3800 <_ZN7TwoWire5writeEh>
	Wire.write(data, length);
     f62:	29 81       	ldd	r18, Y+1	; 0x01
     f64:	42 2f       	mov	r20, r18
     f66:	50 e0       	ldi	r21, 0x00	; 0
     f68:	b7 01       	movw	r22, r14
     f6a:	8e e7       	ldi	r24, 0x7E	; 126
     f6c:	99 e1       	ldi	r25, 0x19	; 25
     f6e:	0e 94 d4 1b 	call	0x37a8	; 0x37a8 <_ZN7TwoWire5writeEPKhj>
	uint8_t rcode = Wire.endTransmission(sendStop); // Returns 0 on success
     f72:	60 2f       	mov	r22, r16
     f74:	8e e7       	ldi	r24, 0x7E	; 126
     f76:	99 e1       	ldi	r25, 0x19	; 25
     f78:	0e 94 5d 1c 	call	0x38ba	; 0x38ba <_ZN7TwoWire15endTransmissionEh>
     f7c:	18 2f       	mov	r17, r24
	if (rcode) {
     f7e:	88 23       	and	r24, r24
     f80:	69 f0       	breq	.+26     	; 0xf9c <_Z8i2cWritehhPhhb+0x66>
		Serial.print(F("i2cWrite failed: "));
     f82:	68 e8       	ldi	r22, 0x88	; 136
     f84:	71 e0       	ldi	r23, 0x01	; 1
     f86:	86 e3       	ldi	r24, 0x36	; 54
     f88:	9a e1       	ldi	r25, 0x1A	; 26
     f8a:	0e 94 69 24 	call	0x48d2	; 0x48d2 <_ZN5Print5printEPK19__FlashStringHelper>
		Serial.println(rcode);
     f8e:	4a e0       	ldi	r20, 0x0A	; 10
     f90:	50 e0       	ldi	r21, 0x00	; 0
     f92:	61 2f       	mov	r22, r17
     f94:	86 e3       	ldi	r24, 0x36	; 54
     f96:	9a e1       	ldi	r25, 0x1A	; 26
     f98:	0e 94 79 25 	call	0x4af2	; 0x4af2 <_ZN5Print7printlnEhi>
	}
	return rcode; // See: http://arduino.cc/en/Reference/WireEndTransmission
}
     f9c:	81 2f       	mov	r24, r17
     f9e:	0f 90       	pop	r0
     fa0:	df 91       	pop	r29
     fa2:	cf 91       	pop	r28
     fa4:	1f 91       	pop	r17
     fa6:	0f 91       	pop	r16
     fa8:	ff 90       	pop	r15
     faa:	ef 90       	pop	r14
     fac:	08 95       	ret

00000fae <_Z8i2cWritehhhb>:

uint8_t i2cWrite(uint8_t address, uint8_t registerAddress, uint8_t data, bool sendStop) {
     fae:	0f 93       	push	r16
     fb0:	cf 93       	push	r28
     fb2:	df 93       	push	r29
     fb4:	1f 92       	push	r1
     fb6:	cd b7       	in	r28, 0x3d	; 61
     fb8:	de b7       	in	r29, 0x3e	; 62
     fba:	49 83       	std	Y+1, r20	; 0x01
	return i2cWrite(address, registerAddress, &data, 1, sendStop); // Returns 0 on success
     fbc:	02 2f       	mov	r16, r18
     fbe:	21 e0       	ldi	r18, 0x01	; 1
     fc0:	ae 01       	movw	r20, r28
     fc2:	4f 5f       	subi	r20, 0xFF	; 255
     fc4:	5f 4f       	sbci	r21, 0xFF	; 255
     fc6:	b7 df       	rcall	.-146    	; 0xf36 <_Z8i2cWritehhPhhb>
}
     fc8:	0f 90       	pop	r0
     fca:	df 91       	pop	r29
     fcc:	cf 91       	pop	r28
     fce:	0f 91       	pop	r16
     fd0:	08 95       	ret

00000fd2 <_Z7i2cReadhhPhh>:


uint8_t i2cRead(uint8_t address, uint8_t registerAddress, uint8_t *data, uint8_t nbytes) {
     fd2:	cf 92       	push	r12
     fd4:	df 92       	push	r13
     fd6:	ef 92       	push	r14
     fd8:	ff 92       	push	r15
     fda:	0f 93       	push	r16
     fdc:	1f 93       	push	r17
     fde:	cf 93       	push	r28
     fe0:	df 93       	push	r29
     fe2:	d8 2f       	mov	r29, r24
     fe4:	c6 2f       	mov	r28, r22
     fe6:	f4 2e       	mov	r15, r20
     fe8:	e5 2e       	mov	r14, r21
     fea:	12 2f       	mov	r17, r18
	uint32_t timeOutTimer;
	Wire.beginTransmission(address);
     fec:	68 2f       	mov	r22, r24
     fee:	8e e7       	ldi	r24, 0x7E	; 126
     ff0:	99 e1       	ldi	r25, 0x19	; 25
     ff2:	0e 94 53 1c 	call	0x38a6	; 0x38a6 <_ZN7TwoWire17beginTransmissionEh>
	Wire.write(registerAddress);
     ff6:	6c 2f       	mov	r22, r28
     ff8:	8e e7       	ldi	r24, 0x7E	; 126
     ffa:	99 e1       	ldi	r25, 0x19	; 25
     ffc:	0e 94 00 1c 	call	0x3800	; 0x3800 <_ZN7TwoWire5writeEh>
	uint8_t rcode = Wire.endTransmission(false); // Don't release the bus
    1000:	60 e0       	ldi	r22, 0x00	; 0
    1002:	8e e7       	ldi	r24, 0x7E	; 126
    1004:	99 e1       	ldi	r25, 0x19	; 25
    1006:	0e 94 5d 1c 	call	0x38ba	; 0x38ba <_ZN7TwoWire15endTransmissionEh>
    100a:	c8 2f       	mov	r28, r24
	if (rcode) {
    100c:	88 23       	and	r24, r24
    100e:	79 f0       	breq	.+30     	; 0x102e <_Z7i2cReadhhPhh+0x5c>
		Serial.print(F("i2cRead failed: "));
    1010:	67 e7       	ldi	r22, 0x77	; 119
    1012:	71 e0       	ldi	r23, 0x01	; 1
    1014:	86 e3       	ldi	r24, 0x36	; 54
    1016:	9a e1       	ldi	r25, 0x1A	; 26
    1018:	0e 94 69 24 	call	0x48d2	; 0x48d2 <_ZN5Print5printEPK19__FlashStringHelper>
		Serial.println(rcode);
    101c:	4a e0       	ldi	r20, 0x0A	; 10
    101e:	50 e0       	ldi	r21, 0x00	; 0
    1020:	6c 2f       	mov	r22, r28
    1022:	86 e3       	ldi	r24, 0x36	; 54
    1024:	9a e1       	ldi	r25, 0x1A	; 26
    1026:	0e 94 79 25 	call	0x4af2	; 0x4af2 <_ZN5Print7printlnEhi>
		return rcode; // See: http://arduino.cc/en/Reference/WireEndTransmission
    102a:	8c 2f       	mov	r24, r28
    102c:	40 c0       	rjmp	.+128    	; 0x10ae <_Z7i2cReadhhPhh+0xdc>
	}
	Wire.requestFrom(address, nbytes, (uint8_t)true); // Send a repeated start and then release the bus after reading
    102e:	21 e0       	ldi	r18, 0x01	; 1
    1030:	41 2f       	mov	r20, r17
    1032:	6d 2f       	mov	r22, r29
    1034:	8e e7       	ldi	r24, 0x7E	; 126
    1036:	99 e1       	ldi	r25, 0x19	; 25
    1038:	0e 94 47 1c 	call	0x388e	; 0x388e <_ZN7TwoWire11requestFromEhhh>
    103c:	0f 2d       	mov	r16, r15
    103e:	cf 2d       	mov	r28, r15
    1040:	de 2d       	mov	r29, r14
    1042:	8c 2f       	mov	r24, r28
    1044:	80 1b       	sub	r24, r16
	for (uint8_t i = 0; i < nbytes; i++) {
    1046:	81 17       	cp	r24, r17
    1048:	18 f5       	brcc	.+70     	; 0x1090 <_Z7i2cReadhhPhh+0xbe>
		if (Wire.available())
    104a:	8e e7       	ldi	r24, 0x7E	; 126
    104c:	99 e1       	ldi	r25, 0x19	; 25
    104e:	0e 94 a9 1b 	call	0x3752	; 0x3752 <_ZN7TwoWire9availableEv>
    1052:	89 2b       	or	r24, r25
    1054:	b1 f4       	brne	.+44     	; 0x1082 <_Z7i2cReadhhPhh+0xb0>
		data[i] = Wire.read();
		else {
			timeOutTimer = micros();
    1056:	0e 94 e4 25 	call	0x4bc8	; 0x4bc8 <micros>
    105a:	6b 01       	movw	r12, r22
    105c:	7c 01       	movw	r14, r24
			while (((micros() - timeOutTimer) < I2C_TIMEOUT) && !Wire.available());
    105e:	0e 94 e4 25 	call	0x4bc8	; 0x4bc8 <micros>
    1062:	6c 19       	sub	r22, r12
    1064:	7d 09       	sbc	r23, r13
    1066:	8e 09       	sbc	r24, r14
    1068:	9f 09       	sbc	r25, r15
    106a:	68 3e       	cpi	r22, 0xE8	; 232
    106c:	73 40       	sbci	r23, 0x03	; 3
    106e:	81 05       	cpc	r24, r1
    1070:	91 05       	cpc	r25, r1
    1072:	80 f4       	brcc	.+32     	; 0x1094 <_Z7i2cReadhhPhh+0xc2>
    1074:	8e e7       	ldi	r24, 0x7E	; 126
    1076:	99 e1       	ldi	r25, 0x19	; 25
    1078:	0e 94 a9 1b 	call	0x3752	; 0x3752 <_ZN7TwoWire9availableEv>
    107c:	89 2b       	or	r24, r25
    107e:	51 f4       	brne	.+20     	; 0x1094 <_Z7i2cReadhhPhh+0xc2>
    1080:	ee cf       	rjmp	.-36     	; 0x105e <_Z7i2cReadhhPhh+0x8c>
			if (Wire.available())
			data[i] = Wire.read();
    1082:	8e e7       	ldi	r24, 0x7E	; 126
    1084:	99 e1       	ldi	r25, 0x19	; 25
    1086:	0e 94 b1 1b 	call	0x3762	; 0x3762 <_ZN7TwoWire4readEv>
    108a:	88 83       	st	Y, r24
    108c:	21 96       	adiw	r28, 0x01	; 1
    108e:	d9 cf       	rjmp	.-78     	; 0x1042 <_Z7i2cReadhhPhh+0x70>
				Serial.println(F("i2cRead timeout"));
				return 5; // This error value is not already taken by endTransmission
			}
		}
	}
	return 0; // Success
    1090:	80 e0       	ldi	r24, 0x00	; 0
    1092:	0d c0       	rjmp	.+26     	; 0x10ae <_Z7i2cReadhhPhh+0xdc>
		if (Wire.available())
		data[i] = Wire.read();
		else {
			timeOutTimer = micros();
			while (((micros() - timeOutTimer) < I2C_TIMEOUT) && !Wire.available());
			if (Wire.available())
    1094:	8e e7       	ldi	r24, 0x7E	; 126
    1096:	99 e1       	ldi	r25, 0x19	; 25
    1098:	0e 94 a9 1b 	call	0x3752	; 0x3752 <_ZN7TwoWire9availableEv>
    109c:	89 2b       	or	r24, r25
    109e:	89 f7       	brne	.-30     	; 0x1082 <_Z7i2cReadhhPhh+0xb0>
			data[i] = Wire.read();
			else {
				Serial.println(F("i2cRead timeout"));
    10a0:	67 e6       	ldi	r22, 0x67	; 103
    10a2:	71 e0       	ldi	r23, 0x01	; 1
    10a4:	86 e3       	ldi	r24, 0x36	; 54
    10a6:	9a e1       	ldi	r25, 0x1A	; 26
    10a8:	0e 94 c1 24 	call	0x4982	; 0x4982 <_ZN5Print7printlnEPK19__FlashStringHelper>
				return 5; // This error value is not already taken by endTransmission
    10ac:	85 e0       	ldi	r24, 0x05	; 5
			}
		}
	}
	return 0; // Success
}
    10ae:	df 91       	pop	r29
    10b0:	cf 91       	pop	r28
    10b2:	1f 91       	pop	r17
    10b4:	0f 91       	pop	r16
    10b6:	ff 90       	pop	r15
    10b8:	ef 90       	pop	r14
    10ba:	df 90       	pop	r13
    10bc:	cf 90       	pop	r12
    10be:	08 95       	ret

000010c0 <_Z13updateMPU6050v>:




void updateMPU6050() {
	while (i2cRead(MPU6050, 0x3B, i2cData, 14)); // Get accelerometer and gyroscope values
    10c0:	2e e0       	ldi	r18, 0x0E	; 14
    10c2:	44 e3       	ldi	r20, 0x34	; 52
    10c4:	53 e0       	ldi	r21, 0x03	; 3
    10c6:	6b e3       	ldi	r22, 0x3B	; 59
    10c8:	88 e6       	ldi	r24, 0x68	; 104
    10ca:	83 df       	rcall	.-250    	; 0xfd2 <_Z7i2cReadhhPhh>
    10cc:	81 11       	cpse	r24, r1
    10ce:	f8 cf       	rjmp	.-16     	; 0x10c0 <_Z13updateMPU6050v>
	accX = ((i2cData[0] << 8) | i2cData[1]);
    10d0:	60 91 34 03 	lds	r22, 0x0334
    10d4:	70 e0       	ldi	r23, 0x00	; 0
    10d6:	76 2f       	mov	r23, r22
    10d8:	66 27       	eor	r22, r22
    10da:	80 91 35 03 	lds	r24, 0x0335
    10de:	68 2b       	or	r22, r24
    10e0:	88 27       	eor	r24, r24
    10e2:	77 fd       	sbrc	r23, 7
    10e4:	80 95       	com	r24
    10e6:	98 2f       	mov	r25, r24
    10e8:	0e 94 db 1d 	call	0x3bb6	; 0x3bb6 <__floatsisf>
    10ec:	60 93 98 03 	sts	0x0398, r22
    10f0:	70 93 99 03 	sts	0x0399, r23
    10f4:	80 93 9a 03 	sts	0x039A, r24
    10f8:	90 93 9b 03 	sts	0x039B, r25
	accY = -((i2cData[2] << 8) | i2cData[3]);
    10fc:	80 91 36 03 	lds	r24, 0x0336
    1100:	90 e0       	ldi	r25, 0x00	; 0
    1102:	98 2f       	mov	r25, r24
    1104:	88 27       	eor	r24, r24
    1106:	20 91 37 03 	lds	r18, 0x0337
    110a:	82 2b       	or	r24, r18
    110c:	66 27       	eor	r22, r22
    110e:	77 27       	eor	r23, r23
    1110:	68 1b       	sub	r22, r24
    1112:	79 0b       	sbc	r23, r25
    1114:	88 27       	eor	r24, r24
    1116:	77 fd       	sbrc	r23, 7
    1118:	80 95       	com	r24
    111a:	98 2f       	mov	r25, r24
    111c:	0e 94 db 1d 	call	0x3bb6	; 0x3bb6 <__floatsisf>
    1120:	60 93 94 03 	sts	0x0394, r22
    1124:	70 93 95 03 	sts	0x0395, r23
    1128:	80 93 96 03 	sts	0x0396, r24
    112c:	90 93 97 03 	sts	0x0397, r25
	accZ = ((i2cData[4] << 8) | i2cData[5]);
    1130:	60 91 38 03 	lds	r22, 0x0338
    1134:	70 e0       	ldi	r23, 0x00	; 0
    1136:	76 2f       	mov	r23, r22
    1138:	66 27       	eor	r22, r22
    113a:	80 91 39 03 	lds	r24, 0x0339
    113e:	68 2b       	or	r22, r24
    1140:	88 27       	eor	r24, r24
    1142:	77 fd       	sbrc	r23, 7
    1144:	80 95       	com	r24
    1146:	98 2f       	mov	r25, r24
    1148:	0e 94 db 1d 	call	0x3bb6	; 0x3bb6 <__floatsisf>
    114c:	60 93 90 03 	sts	0x0390, r22
    1150:	70 93 91 03 	sts	0x0391, r23
    1154:	80 93 92 03 	sts	0x0392, r24
    1158:	90 93 93 03 	sts	0x0393, r25
	tempRaw = (i2cData[6] << 8) | i2cData[7];
    115c:	80 91 3a 03 	lds	r24, 0x033A
    1160:	90 e0       	ldi	r25, 0x00	; 0
    1162:	98 2f       	mov	r25, r24
    1164:	88 27       	eor	r24, r24
    1166:	20 91 3b 03 	lds	r18, 0x033B
    116a:	82 2b       	or	r24, r18
    116c:	90 93 77 03 	sts	0x0377, r25
    1170:	80 93 76 03 	sts	0x0376, r24
	gyroX = -(i2cData[8] << 8) | i2cData[9];
    1174:	60 91 3c 03 	lds	r22, 0x033C
    1178:	70 e0       	ldi	r23, 0x00	; 0
    117a:	76 2f       	mov	r23, r22
    117c:	66 27       	eor	r22, r22
    117e:	71 95       	neg	r23
    1180:	61 95       	neg	r22
    1182:	71 09       	sbc	r23, r1
    1184:	80 91 3d 03 	lds	r24, 0x033D
    1188:	68 2b       	or	r22, r24
    118a:	88 27       	eor	r24, r24
    118c:	77 fd       	sbrc	r23, 7
    118e:	80 95       	com	r24
    1190:	98 2f       	mov	r25, r24
    1192:	0e 94 db 1d 	call	0x3bb6	; 0x3bb6 <__floatsisf>
    1196:	60 93 8c 03 	sts	0x038C, r22
    119a:	70 93 8d 03 	sts	0x038D, r23
    119e:	80 93 8e 03 	sts	0x038E, r24
    11a2:	90 93 8f 03 	sts	0x038F, r25
	gyroY = (i2cData[10] << 8) | i2cData[11];
    11a6:	60 91 3e 03 	lds	r22, 0x033E
    11aa:	70 e0       	ldi	r23, 0x00	; 0
    11ac:	76 2f       	mov	r23, r22
    11ae:	66 27       	eor	r22, r22
    11b0:	80 91 3f 03 	lds	r24, 0x033F
    11b4:	68 2b       	or	r22, r24
    11b6:	88 27       	eor	r24, r24
    11b8:	77 fd       	sbrc	r23, 7
    11ba:	80 95       	com	r24
    11bc:	98 2f       	mov	r25, r24
    11be:	0e 94 db 1d 	call	0x3bb6	; 0x3bb6 <__floatsisf>
    11c2:	60 93 88 03 	sts	0x0388, r22
    11c6:	70 93 89 03 	sts	0x0389, r23
    11ca:	80 93 8a 03 	sts	0x038A, r24
    11ce:	90 93 8b 03 	sts	0x038B, r25
	gyroZ = -(i2cData[12] << 8) | i2cData[13];
    11d2:	60 91 40 03 	lds	r22, 0x0340
    11d6:	70 e0       	ldi	r23, 0x00	; 0
    11d8:	76 2f       	mov	r23, r22
    11da:	66 27       	eor	r22, r22
    11dc:	71 95       	neg	r23
    11de:	61 95       	neg	r22
    11e0:	71 09       	sbc	r23, r1
    11e2:	80 91 41 03 	lds	r24, 0x0341
    11e6:	68 2b       	or	r22, r24
    11e8:	88 27       	eor	r24, r24
    11ea:	77 fd       	sbrc	r23, 7
    11ec:	80 95       	com	r24
    11ee:	98 2f       	mov	r25, r24
    11f0:	0e 94 db 1d 	call	0x3bb6	; 0x3bb6 <__floatsisf>
    11f4:	60 93 84 03 	sts	0x0384, r22
    11f8:	70 93 85 03 	sts	0x0385, r23
    11fc:	80 93 86 03 	sts	0x0386, r24
    1200:	90 93 87 03 	sts	0x0387, r25
    1204:	08 95       	ret

00001206 <_Z14updateHMC5883Lv>:
}

void updateHMC5883L() {
	while (i2cRead(HMC5883L, 0x03, i2cData, 6)); // Get magnetometer values
    1206:	26 e0       	ldi	r18, 0x06	; 6
    1208:	44 e3       	ldi	r20, 0x34	; 52
    120a:	53 e0       	ldi	r21, 0x03	; 3
    120c:	63 e0       	ldi	r22, 0x03	; 3
    120e:	8e e1       	ldi	r24, 0x1E	; 30
    1210:	e0 de       	rcall	.-576    	; 0xfd2 <_Z7i2cReadhhPhh>
    1212:	81 11       	cpse	r24, r1
    1214:	f8 cf       	rjmp	.-16     	; 0x1206 <_Z14updateHMC5883Lv>
	magX = ((i2cData[0] << 8) | i2cData[1]);
    1216:	60 91 34 03 	lds	r22, 0x0334
    121a:	70 e0       	ldi	r23, 0x00	; 0
    121c:	76 2f       	mov	r23, r22
    121e:	66 27       	eor	r22, r22
    1220:	80 91 35 03 	lds	r24, 0x0335
    1224:	68 2b       	or	r22, r24
    1226:	88 27       	eor	r24, r24
    1228:	77 fd       	sbrc	r23, 7
    122a:	80 95       	com	r24
    122c:	98 2f       	mov	r25, r24
    122e:	0e 94 db 1d 	call	0x3bb6	; 0x3bb6 <__floatsisf>
    1232:	60 93 80 03 	sts	0x0380, r22
    1236:	70 93 81 03 	sts	0x0381, r23
    123a:	80 93 82 03 	sts	0x0382, r24
    123e:	90 93 83 03 	sts	0x0383, r25
	magZ = ((i2cData[2] << 8) | i2cData[3]);
    1242:	60 91 36 03 	lds	r22, 0x0336
    1246:	70 e0       	ldi	r23, 0x00	; 0
    1248:	76 2f       	mov	r23, r22
    124a:	66 27       	eor	r22, r22
    124c:	80 91 37 03 	lds	r24, 0x0337
    1250:	68 2b       	or	r22, r24
    1252:	88 27       	eor	r24, r24
    1254:	77 fd       	sbrc	r23, 7
    1256:	80 95       	com	r24
    1258:	98 2f       	mov	r25, r24
    125a:	0e 94 db 1d 	call	0x3bb6	; 0x3bb6 <__floatsisf>
    125e:	60 93 78 03 	sts	0x0378, r22
    1262:	70 93 79 03 	sts	0x0379, r23
    1266:	80 93 7a 03 	sts	0x037A, r24
    126a:	90 93 7b 03 	sts	0x037B, r25
	magY = ((i2cData[4] << 8) | i2cData[5]);
    126e:	60 91 38 03 	lds	r22, 0x0338
    1272:	70 e0       	ldi	r23, 0x00	; 0
    1274:	76 2f       	mov	r23, r22
    1276:	66 27       	eor	r22, r22
    1278:	80 91 39 03 	lds	r24, 0x0339
    127c:	68 2b       	or	r22, r24
    127e:	88 27       	eor	r24, r24
    1280:	77 fd       	sbrc	r23, 7
    1282:	80 95       	com	r24
    1284:	98 2f       	mov	r25, r24
    1286:	0e 94 db 1d 	call	0x3bb6	; 0x3bb6 <__floatsisf>
    128a:	60 93 7c 03 	sts	0x037C, r22
    128e:	70 93 7d 03 	sts	0x037D, r23
    1292:	80 93 7e 03 	sts	0x037E, r24
    1296:	90 93 7f 03 	sts	0x037F, r25
    129a:	08 95       	ret

0000129c <_Z12calibrateMagv>:
	yaw = atan2(-Bfy, Bfx) * RAD_TO_DEG;

	yaw *= -1;
}

void calibrateMag() { // Inspired by: https://code.google.com/p/open-headtracker/
    129c:	4f 92       	push	r4
    129e:	5f 92       	push	r5
    12a0:	6f 92       	push	r6
    12a2:	7f 92       	push	r7
    12a4:	8f 92       	push	r8
    12a6:	9f 92       	push	r9
    12a8:	af 92       	push	r10
    12aa:	bf 92       	push	r11
    12ac:	cf 92       	push	r12
    12ae:	df 92       	push	r13
    12b0:	ef 92       	push	r14
    12b2:	ff 92       	push	r15
    12b4:	cf 93       	push	r28
    12b6:	df 93       	push	r29
    12b8:	cd b7       	in	r28, 0x3d	; 61
    12ba:	de b7       	in	r29, 0x3e	; 62
    12bc:	2c 97       	sbiw	r28, 0x0c	; 12
    12be:	0f b6       	in	r0, 0x3f	; 63
    12c0:	f8 94       	cli
    12c2:	de bf       	out	0x3e, r29	; 62
    12c4:	0f be       	out	0x3f, r0	; 63
    12c6:	cd bf       	out	0x3d, r28	; 61
	i2cWrite(HMC5883L, 0x00, 0x11, true);
    12c8:	21 e0       	ldi	r18, 0x01	; 1
    12ca:	41 e1       	ldi	r20, 0x11	; 17
    12cc:	60 e0       	ldi	r22, 0x00	; 0
    12ce:	8e e1       	ldi	r24, 0x1E	; 30
    12d0:	6e de       	rcall	.-804    	; 0xfae <_Z8i2cWritehhhb>
	delay(100); // Wait for sensor to get ready
    12d2:	64 e6       	ldi	r22, 0x64	; 100
    12d4:	70 e0       	ldi	r23, 0x00	; 0
    12d6:	80 e0       	ldi	r24, 0x00	; 0
    12d8:	90 e0       	ldi	r25, 0x00	; 0
    12da:	0e 94 0a 26 	call	0x4c14	; 0x4c14 <delay>
	updateHMC5883L(); // Read positive bias values
    12de:	93 df       	rcall	.-218    	; 0x1206 <_Z14updateHMC5883Lv>

	int16_t magPosOff[3] = {
	magX, magY, magZ                 };
    12e0:	60 91 80 03 	lds	r22, 0x0380
    12e4:	70 91 81 03 	lds	r23, 0x0381
    12e8:	80 91 82 03 	lds	r24, 0x0382
    12ec:	90 91 83 03 	lds	r25, 0x0383
    12f0:	0e 94 a8 1d 	call	0x3b50	; 0x3b50 <__fixsfsi>
    12f4:	2b 01       	movw	r4, r22
    12f6:	3c 01       	movw	r6, r24
    12f8:	60 91 7c 03 	lds	r22, 0x037C
    12fc:	70 91 7d 03 	lds	r23, 0x037D
    1300:	80 91 7e 03 	lds	r24, 0x037E
    1304:	90 91 7f 03 	lds	r25, 0x037F
    1308:	0e 94 a8 1d 	call	0x3b50	; 0x3b50 <__fixsfsi>
    130c:	6b 01       	movw	r12, r22
    130e:	7c 01       	movw	r14, r24
    1310:	60 91 78 03 	lds	r22, 0x0378
    1314:	70 91 79 03 	lds	r23, 0x0379
    1318:	80 91 7a 03 	lds	r24, 0x037A
    131c:	90 91 7b 03 	lds	r25, 0x037B
    1320:	0e 94 a8 1d 	call	0x3b50	; 0x3b50 <__fixsfsi>
    1324:	69 83       	std	Y+1, r22	; 0x01
    1326:	7a 83       	std	Y+2, r23	; 0x02
    1328:	8b 83       	std	Y+3, r24	; 0x03
    132a:	9c 83       	std	Y+4, r25	; 0x04

	i2cWrite(HMC5883L, 0x00, 0x12, true);
    132c:	21 e0       	ldi	r18, 0x01	; 1
    132e:	42 e1       	ldi	r20, 0x12	; 18
    1330:	60 e0       	ldi	r22, 0x00	; 0
    1332:	8e e1       	ldi	r24, 0x1E	; 30
    1334:	3c de       	rcall	.-904    	; 0xfae <_Z8i2cWritehhhb>
	delay(100); // Wait for sensor to get ready
    1336:	64 e6       	ldi	r22, 0x64	; 100
    1338:	70 e0       	ldi	r23, 0x00	; 0
    133a:	80 e0       	ldi	r24, 0x00	; 0
    133c:	90 e0       	ldi	r25, 0x00	; 0
    133e:	0e 94 0a 26 	call	0x4c14	; 0x4c14 <delay>
	updateHMC5883L(); // Read negative bias values
    1342:	61 df       	rcall	.-318    	; 0x1206 <_Z14updateHMC5883Lv>

	int16_t magNegOff[3] = {
	magX, magY, magZ                 };
    1344:	60 91 80 03 	lds	r22, 0x0380
    1348:	70 91 81 03 	lds	r23, 0x0381
    134c:	80 91 82 03 	lds	r24, 0x0382
    1350:	90 91 83 03 	lds	r25, 0x0383
    1354:	0e 94 a8 1d 	call	0x3b50	; 0x3b50 <__fixsfsi>
    1358:	6d 83       	std	Y+5, r22	; 0x05
    135a:	7e 83       	std	Y+6, r23	; 0x06
    135c:	8f 83       	std	Y+7, r24	; 0x07
    135e:	98 87       	std	Y+8, r25	; 0x08
    1360:	60 91 7c 03 	lds	r22, 0x037C
    1364:	70 91 7d 03 	lds	r23, 0x037D
    1368:	80 91 7e 03 	lds	r24, 0x037E
    136c:	90 91 7f 03 	lds	r25, 0x037F
    1370:	0e 94 a8 1d 	call	0x3b50	; 0x3b50 <__fixsfsi>
    1374:	4b 01       	movw	r8, r22
    1376:	5c 01       	movw	r10, r24
    1378:	60 91 78 03 	lds	r22, 0x0378
    137c:	70 91 79 03 	lds	r23, 0x0379
    1380:	80 91 7a 03 	lds	r24, 0x037A
    1384:	90 91 7b 03 	lds	r25, 0x037B
    1388:	0e 94 a8 1d 	call	0x3b50	; 0x3b50 <__fixsfsi>
    138c:	69 87       	std	Y+9, r22	; 0x09
    138e:	7a 87       	std	Y+10, r23	; 0x0a
    1390:	8b 87       	std	Y+11, r24	; 0x0b
    1392:	9c 87       	std	Y+12, r25	; 0x0c

	i2cWrite(HMC5883L, 0x00, 0x10, true); // Back to normal
    1394:	21 e0       	ldi	r18, 0x01	; 1
    1396:	40 e1       	ldi	r20, 0x10	; 16
    1398:	60 e0       	ldi	r22, 0x00	; 0
    139a:	8e e1       	ldi	r24, 0x1E	; 30
    139c:	08 de       	rcall	.-1008   	; 0xfae <_Z8i2cWritehhhb>

	magGain[0] = -2500 / float(magNegOff[0] - magPosOff[0]);
    139e:	6d 81       	ldd	r22, Y+5	; 0x05
    13a0:	7e 81       	ldd	r23, Y+6	; 0x06
    13a2:	64 19       	sub	r22, r4
    13a4:	75 09       	sbc	r23, r5
    13a6:	88 27       	eor	r24, r24
    13a8:	77 fd       	sbrc	r23, 7
    13aa:	80 95       	com	r24
    13ac:	98 2f       	mov	r25, r24
    13ae:	0e 94 db 1d 	call	0x3bb6	; 0x3bb6 <__floatsisf>
    13b2:	9b 01       	movw	r18, r22
    13b4:	ac 01       	movw	r20, r24
    13b6:	60 e0       	ldi	r22, 0x00	; 0
    13b8:	70 e4       	ldi	r23, 0x40	; 64
    13ba:	8c e1       	ldi	r24, 0x1C	; 28
    13bc:	95 ec       	ldi	r25, 0xC5	; 197
    13be:	0e 94 40 1d 	call	0x3a80	; 0x3a80 <__divsf3>
    13c2:	60 93 28 03 	sts	0x0328, r22
    13c6:	70 93 29 03 	sts	0x0329, r23
    13ca:	80 93 2a 03 	sts	0x032A, r24
    13ce:	90 93 2b 03 	sts	0x032B, r25
	magGain[1] = -2500 / float(magNegOff[1] - magPosOff[1]);
    13d2:	8c 18       	sub	r8, r12
    13d4:	9d 08       	sbc	r9, r13
    13d6:	b4 01       	movw	r22, r8
    13d8:	88 27       	eor	r24, r24
    13da:	77 fd       	sbrc	r23, 7
    13dc:	80 95       	com	r24
    13de:	98 2f       	mov	r25, r24
    13e0:	0e 94 db 1d 	call	0x3bb6	; 0x3bb6 <__floatsisf>
    13e4:	9b 01       	movw	r18, r22
    13e6:	ac 01       	movw	r20, r24
    13e8:	60 e0       	ldi	r22, 0x00	; 0
    13ea:	70 e4       	ldi	r23, 0x40	; 64
    13ec:	8c e1       	ldi	r24, 0x1C	; 28
    13ee:	95 ec       	ldi	r25, 0xC5	; 197
    13f0:	0e 94 40 1d 	call	0x3a80	; 0x3a80 <__divsf3>
    13f4:	60 93 2c 03 	sts	0x032C, r22
    13f8:	70 93 2d 03 	sts	0x032D, r23
    13fc:	80 93 2e 03 	sts	0x032E, r24
    1400:	90 93 2f 03 	sts	0x032F, r25
	magGain[2] = -2500 / float(magNegOff[2] - magPosOff[2]);
    1404:	69 85       	ldd	r22, Y+9	; 0x09
    1406:	7a 85       	ldd	r23, Y+10	; 0x0a
    1408:	89 81       	ldd	r24, Y+1	; 0x01
    140a:	9a 81       	ldd	r25, Y+2	; 0x02
    140c:	68 1b       	sub	r22, r24
    140e:	79 0b       	sbc	r23, r25
    1410:	88 27       	eor	r24, r24
    1412:	77 fd       	sbrc	r23, 7
    1414:	80 95       	com	r24
    1416:	98 2f       	mov	r25, r24
    1418:	0e 94 db 1d 	call	0x3bb6	; 0x3bb6 <__floatsisf>
    141c:	9b 01       	movw	r18, r22
    141e:	ac 01       	movw	r20, r24
    1420:	60 e0       	ldi	r22, 0x00	; 0
    1422:	70 e4       	ldi	r23, 0x40	; 64
    1424:	8c e1       	ldi	r24, 0x1C	; 28
    1426:	95 ec       	ldi	r25, 0xC5	; 197
    1428:	0e 94 40 1d 	call	0x3a80	; 0x3a80 <__divsf3>
    142c:	60 93 30 03 	sts	0x0330, r22
    1430:	70 93 31 03 	sts	0x0331, r23
    1434:	80 93 32 03 	sts	0x0332, r24
    1438:	90 93 33 03 	sts	0x0333, r25

}
    143c:	2c 96       	adiw	r28, 0x0c	; 12
    143e:	0f b6       	in	r0, 0x3f	; 63
    1440:	f8 94       	cli
    1442:	de bf       	out	0x3e, r29	; 62
    1444:	0f be       	out	0x3f, r0	; 63
    1446:	cd bf       	out	0x3d, r28	; 61
    1448:	df 91       	pop	r29
    144a:	cf 91       	pop	r28
    144c:	ff 90       	pop	r15
    144e:	ef 90       	pop	r14
    1450:	df 90       	pop	r13
    1452:	cf 90       	pop	r12
    1454:	bf 90       	pop	r11
    1456:	af 90       	pop	r10
    1458:	9f 90       	pop	r9
    145a:	8f 90       	pop	r8
    145c:	7f 90       	pop	r7
    145e:	6f 90       	pop	r6
    1460:	5f 90       	pop	r5
    1462:	4f 90       	pop	r4
    1464:	08 95       	ret

00001466 <_Z5task2Pv>:
		}	
	}
}

//MPU6050 + HMC
void task2(void *p) {
    1466:	cf 93       	push	r28
    1468:	df 93       	push	r29
    146a:	cd b7       	in	r28, 0x3d	; 61
    146c:	de b7       	in	r29, 0x3e	; 62
    146e:	ca 5b       	subi	r28, 0xBA	; 186
    1470:	d1 09       	sbc	r29, r1
    1472:	0f b6       	in	r0, 0x3f	; 63
    1474:	f8 94       	cli
    1476:	de bf       	out	0x3e, r29	; 62
    1478:	0f be       	out	0x3f, r0	; 63
    147a:	cd bf       	out	0x3d, r28	; 61
	while(1) {
		if ( xSemaphoreTake(printing_semphr, 2*PRINTING_TIMEOUT ) == pdTRUE ) {
    147c:	20 e0       	ldi	r18, 0x00	; 0
    147e:	42 e3       	ldi	r20, 0x32	; 50
    1480:	50 e0       	ldi	r21, 0x00	; 0
    1482:	60 e0       	ldi	r22, 0x00	; 0
    1484:	70 e0       	ldi	r23, 0x00	; 0
    1486:	80 91 44 04 	lds	r24, 0x0444
    148a:	90 91 45 04 	lds	r25, 0x0445
    148e:	0e 94 90 14 	call	0x2920	; 0x2920 <xQueueGenericReceive>
    1492:	81 30       	cpi	r24, 0x01	; 1
    1494:	09 f0       	breq	.+2      	; 0x1498 <_Z5task2Pv+0x32>
    1496:	14 c4       	rjmp	.+2088   	; 0x1cc0 <_Z5task2Pv+0x85a>
				//Serial.println("2: Task Loop");
			
			   Serial.println("IMU Task") ;
    1498:	68 e6       	ldi	r22, 0x68	; 104
    149a:	72 e0       	ldi	r23, 0x02	; 2
    149c:	86 e3       	ldi	r24, 0x36	; 54
    149e:	9a e1       	ldi	r25, 0x1A	; 26
    14a0:	0e 94 d1 24 	call	0x49a2	; 0x49a2 <_ZN5Print7printlnEPKc>
			 
			   updateMPU6050() ;
    14a4:	0d de       	rcall	.-998    	; 0x10c0 <_Z13updateMPU6050v>
			   updateHMC5883L() ;
    14a6:	af de       	rcall	.-674    	; 0x1206 <_Z14updateHMC5883Lv>

			   double dt = (double)(micros() - timer) / 1000000; // Calculate delta time
    14a8:	0e 94 e4 25 	call	0x4bc8	; 0x4bc8 <micros>
    14ac:	c0 90 42 03 	lds	r12, 0x0342
    14b0:	d0 90 43 03 	lds	r13, 0x0343
    14b4:	e0 90 44 03 	lds	r14, 0x0344
    14b8:	f0 90 45 03 	lds	r15, 0x0345
    14bc:	6c 19       	sub	r22, r12
    14be:	7d 09       	sbc	r23, r13
    14c0:	8e 09       	sbc	r24, r14
    14c2:	9f 09       	sbc	r25, r15
    14c4:	0e 94 d9 1d 	call	0x3bb2	; 0x3bb2 <__floatunsisf>
    14c8:	20 e0       	ldi	r18, 0x00	; 0
    14ca:	34 e2       	ldi	r19, 0x24	; 36
    14cc:	44 e7       	ldi	r20, 0x74	; 116
    14ce:	59 e4       	ldi	r21, 0x49	; 73
    14d0:	0e 94 40 1d 	call	0x3a80	; 0x3a80 <__divsf3>
    14d4:	4b 01       	movw	r8, r22
    14d6:	5c 01       	movw	r10, r24
			   timer = micros();
    14d8:	0e 94 e4 25 	call	0x4bc8	; 0x4bc8 <micros>
    14dc:	60 93 42 03 	sts	0x0342, r22
    14e0:	70 93 43 03 	sts	0x0343, r23
    14e4:	80 93 44 03 	sts	0x0344, r24
    14e8:	90 93 45 03 	sts	0x0345, r25


			   /* Roll and pitch estimation */
			   updatePitchRoll();
    14ec:	39 d9       	rcall	.-3470   	; 0x760 <_Z15updatePitchRollv>
			   double gyroXrate = gyroX / 131.0; // Convert to deg/s
    14ee:	20 e0       	ldi	r18, 0x00	; 0
    14f0:	30 e0       	ldi	r19, 0x00	; 0
    14f2:	43 e0       	ldi	r20, 0x03	; 3
    14f4:	53 e4       	ldi	r21, 0x43	; 67
    14f6:	60 91 8c 03 	lds	r22, 0x038C
    14fa:	70 91 8d 03 	lds	r23, 0x038D
    14fe:	80 91 8e 03 	lds	r24, 0x038E
    1502:	90 91 8f 03 	lds	r25, 0x038F
    1506:	0e 94 40 1d 	call	0x3a80	; 0x3a80 <__divsf3>
    150a:	c1 55       	subi	r28, 0x51	; 81
    150c:	df 4f       	sbci	r29, 0xFF	; 255
    150e:	68 83       	st	Y, r22
    1510:	79 83       	std	Y+1, r23	; 0x01
    1512:	8a 83       	std	Y+2, r24	; 0x02
    1514:	9b 83       	std	Y+3, r25	; 0x03
    1516:	cf 5a       	subi	r28, 0xAF	; 175
    1518:	d0 40       	sbci	r29, 0x00	; 0
			   double gyroYrate = gyroY / 131.0; // Convert to deg/s
    151a:	20 e0       	ldi	r18, 0x00	; 0
    151c:	30 e0       	ldi	r19, 0x00	; 0
    151e:	43 e0       	ldi	r20, 0x03	; 3
    1520:	53 e4       	ldi	r21, 0x43	; 67
    1522:	60 91 88 03 	lds	r22, 0x0388
    1526:	70 91 89 03 	lds	r23, 0x0389
    152a:	80 91 8a 03 	lds	r24, 0x038A
    152e:	90 91 8b 03 	lds	r25, 0x038B
    1532:	0e 94 40 1d 	call	0x3a80	; 0x3a80 <__divsf3>
    1536:	c5 55       	subi	r28, 0x55	; 85
    1538:	df 4f       	sbci	r29, 0xFF	; 255
    153a:	68 83       	st	Y, r22
    153c:	79 83       	std	Y+1, r23	; 0x01
    153e:	8a 83       	std	Y+2, r24	; 0x02
    1540:	9b 83       	std	Y+3, r25	; 0x03
    1542:	cb 5a       	subi	r28, 0xAB	; 171
    1544:	d0 40       	sbci	r29, 0x00	; 0

			   #ifdef RESTRICT_PITCH
			   // This fixes the transition problem when the accelerometer angle jumps between -180 and 180 degrees
			   if ((roll < -90 && kalAngleX > 90) || (roll > 90 && kalAngleX < -90)) {
    1546:	40 90 72 03 	lds	r4, 0x0372
    154a:	50 90 73 03 	lds	r5, 0x0373
    154e:	60 90 74 03 	lds	r6, 0x0374
    1552:	70 90 75 03 	lds	r7, 0x0375
    1556:	20 e0       	ldi	r18, 0x00	; 0
    1558:	30 e0       	ldi	r19, 0x00	; 0
    155a:	44 eb       	ldi	r20, 0xB4	; 180
    155c:	52 ec       	ldi	r21, 0xC2	; 194
    155e:	c3 01       	movw	r24, r6
    1560:	b2 01       	movw	r22, r4
    1562:	0e 94 39 1d 	call	0x3a72	; 0x3a72 <__cmpsf2>
    1566:	87 ff       	sbrs	r24, 7
    1568:	10 c0       	rjmp	.+32     	; 0x158a <_Z5task2Pv+0x124>
    156a:	20 e0       	ldi	r18, 0x00	; 0
    156c:	30 e0       	ldi	r19, 0x00	; 0
    156e:	44 eb       	ldi	r20, 0xB4	; 180
    1570:	52 e4       	ldi	r21, 0x42	; 66
    1572:	60 91 4e 03 	lds	r22, 0x034E
    1576:	70 91 4f 03 	lds	r23, 0x034F
    157a:	80 91 50 03 	lds	r24, 0x0350
    157e:	90 91 51 03 	lds	r25, 0x0351
    1582:	0e 94 45 1f 	call	0x3e8a	; 0x3e8a <__gesf2>
    1586:	18 16       	cp	r1, r24
    1588:	d4 f0       	brlt	.+52     	; 0x15be <_Z5task2Pv+0x158>
    158a:	20 e0       	ldi	r18, 0x00	; 0
    158c:	30 e0       	ldi	r19, 0x00	; 0
    158e:	44 eb       	ldi	r20, 0xB4	; 180
    1590:	52 e4       	ldi	r21, 0x42	; 66
    1592:	c3 01       	movw	r24, r6
    1594:	b2 01       	movw	r22, r4
    1596:	0e 94 45 1f 	call	0x3e8a	; 0x3e8a <__gesf2>
    159a:	18 16       	cp	r1, r24
    159c:	8c f5       	brge	.+98     	; 0x1600 <_Z5task2Pv+0x19a>
    159e:	20 e0       	ldi	r18, 0x00	; 0
    15a0:	30 e0       	ldi	r19, 0x00	; 0
    15a2:	44 eb       	ldi	r20, 0xB4	; 180
    15a4:	52 ec       	ldi	r21, 0xC2	; 194
    15a6:	60 91 4e 03 	lds	r22, 0x034E
    15aa:	70 91 4f 03 	lds	r23, 0x034F
    15ae:	80 91 50 03 	lds	r24, 0x0350
    15b2:	90 91 51 03 	lds	r25, 0x0351
    15b6:	0e 94 39 1d 	call	0x3a72	; 0x3a72 <__cmpsf2>
    15ba:	87 ff       	sbrs	r24, 7
    15bc:	21 c0       	rjmp	.+66     	; 0x1600 <_Z5task2Pv+0x19a>
        P[1][0] -= K[1] * P[0][0];
        P[1][1] -= K[1] * P[0][1];

        return angle;
    };
    void setAngle(double newAngle) { angle = newAngle; }; // Used to set angle, this should be set as the starting angle
    15be:	40 92 18 04 	sts	0x0418, r4
    15c2:	50 92 19 04 	sts	0x0419, r5
    15c6:	60 92 1a 04 	sts	0x041A, r6
    15ca:	70 92 1b 04 	sts	0x041B, r7
				   kalmanX.setAngle(roll);
				   compAngleX = roll;
    15ce:	40 92 5a 03 	sts	0x035A, r4
    15d2:	50 92 5b 03 	sts	0x035B, r5
    15d6:	60 92 5c 03 	sts	0x035C, r6
    15da:	70 92 5d 03 	sts	0x035D, r7
				   kalAngleX = roll;
    15de:	40 92 4e 03 	sts	0x034E, r4
    15e2:	50 92 4f 03 	sts	0x034F, r5
    15e6:	60 92 50 03 	sts	0x0350, r6
    15ea:	70 92 51 03 	sts	0x0351, r7
				   gyroXangle = roll;
    15ee:	40 92 66 03 	sts	0x0366, r4
    15f2:	50 92 67 03 	sts	0x0367, r5
    15f6:	60 92 68 03 	sts	0x0368, r6
    15fa:	70 92 69 03 	sts	0x0369, r7
    15fe:	18 c0       	rjmp	.+48     	; 0x1630 <_Z5task2Pv+0x1ca>
			   }
			   
			   else
			   kalAngleX = kalmanX.getAngle(roll, gyroXrate, dt); // Calculate the angle using a Kalman filter
    1600:	75 01       	movw	r14, r10
    1602:	64 01       	movw	r12, r8
    1604:	c1 55       	subi	r28, 0x51	; 81
    1606:	df 4f       	sbci	r29, 0xFF	; 255
    1608:	08 81       	ld	r16, Y
    160a:	19 81       	ldd	r17, Y+1	; 0x01
    160c:	2a 81       	ldd	r18, Y+2	; 0x02
    160e:	3b 81       	ldd	r19, Y+3	; 0x03
    1610:	cf 5a       	subi	r28, 0xAF	; 175
    1612:	d0 40       	sbci	r29, 0x00	; 0
    1614:	b3 01       	movw	r22, r6
    1616:	a2 01       	movw	r20, r4
    1618:	8c e0       	ldi	r24, 0x0C	; 12
    161a:	94 e0       	ldi	r25, 0x04	; 4
    161c:	0e 94 0f 02 	call	0x41e	; 0x41e <_ZN6Kalman8getAngleEddd>
    1620:	60 93 4e 03 	sts	0x034E, r22
    1624:	70 93 4f 03 	sts	0x034F, r23
    1628:	80 93 50 03 	sts	0x0350, r24
    162c:	90 93 51 03 	sts	0x0351, r25

			   if (abs(kalAngleX) > 90)
    1630:	c0 90 4e 03 	lds	r12, 0x034E
    1634:	d0 90 4f 03 	lds	r13, 0x034F
    1638:	e0 90 50 03 	lds	r14, 0x0350
    163c:	f0 90 51 03 	lds	r15, 0x0351
    1640:	20 e0       	ldi	r18, 0x00	; 0
    1642:	30 e0       	ldi	r19, 0x00	; 0
    1644:	a9 01       	movw	r20, r18
    1646:	c7 01       	movw	r24, r14
    1648:	b6 01       	movw	r22, r12
    164a:	0e 94 45 1f 	call	0x3e8a	; 0x3e8a <__gesf2>
    164e:	18 16       	cp	r1, r24
    1650:	5c f4       	brge	.+22     	; 0x1668 <_Z5task2Pv+0x202>
    1652:	20 e0       	ldi	r18, 0x00	; 0
    1654:	30 e0       	ldi	r19, 0x00	; 0
    1656:	44 eb       	ldi	r20, 0xB4	; 180
    1658:	52 e4       	ldi	r21, 0x42	; 66
    165a:	c7 01       	movw	r24, r14
    165c:	b6 01       	movw	r22, r12
    165e:	0e 94 45 1f 	call	0x3e8a	; 0x3e8a <__gesf2>
    1662:	18 16       	cp	r1, r24
    1664:	5c f0       	brlt	.+22     	; 0x167c <_Z5task2Pv+0x216>
    1666:	1b c0       	rjmp	.+54     	; 0x169e <_Z5task2Pv+0x238>
    1668:	20 e0       	ldi	r18, 0x00	; 0
    166a:	30 e0       	ldi	r19, 0x00	; 0
    166c:	44 eb       	ldi	r20, 0xB4	; 180
    166e:	52 ec       	ldi	r21, 0xC2	; 194
    1670:	c7 01       	movw	r24, r14
    1672:	b6 01       	movw	r22, r12
    1674:	0e 94 39 1d 	call	0x3a72	; 0x3a72 <__cmpsf2>
    1678:	87 ff       	sbrs	r24, 7
    167a:	11 c0       	rjmp	.+34     	; 0x169e <_Z5task2Pv+0x238>
			   gyroYrate = -gyroYrate; // Invert rate, so it fits the restricted accelerometer reading
    167c:	c5 55       	subi	r28, 0x55	; 85
    167e:	df 4f       	sbci	r29, 0xFF	; 255
    1680:	88 81       	ld	r24, Y
    1682:	99 81       	ldd	r25, Y+1	; 0x01
    1684:	aa 81       	ldd	r26, Y+2	; 0x02
    1686:	bb 81       	ldd	r27, Y+3	; 0x03
    1688:	cb 5a       	subi	r28, 0xAB	; 171
    168a:	d0 40       	sbci	r29, 0x00	; 0
    168c:	b0 58       	subi	r27, 0x80	; 128
    168e:	c5 55       	subi	r28, 0x55	; 85
    1690:	df 4f       	sbci	r29, 0xFF	; 255
    1692:	88 83       	st	Y, r24
    1694:	99 83       	std	Y+1, r25	; 0x01
    1696:	aa 83       	std	Y+2, r26	; 0x02
    1698:	bb 83       	std	Y+3, r27	; 0x03
    169a:	cb 5a       	subi	r28, 0xAB	; 171
    169c:	d0 40       	sbci	r29, 0x00	; 0
			   kalAngleY = kalmanY.getAngle(pitch, gyroYrate, dt);
    169e:	40 91 6e 03 	lds	r20, 0x036E
    16a2:	50 91 6f 03 	lds	r21, 0x036F
    16a6:	60 91 70 03 	lds	r22, 0x0370
    16aa:	70 91 71 03 	lds	r23, 0x0371
    16ae:	75 01       	movw	r14, r10
    16b0:	64 01       	movw	r12, r8
    16b2:	c5 55       	subi	r28, 0x55	; 85
    16b4:	df 4f       	sbci	r29, 0xFF	; 255
    16b6:	08 81       	ld	r16, Y
    16b8:	19 81       	ldd	r17, Y+1	; 0x01
    16ba:	2a 81       	ldd	r18, Y+2	; 0x02
    16bc:	3b 81       	ldd	r19, Y+3	; 0x03
    16be:	cb 5a       	subi	r28, 0xAB	; 171
    16c0:	d0 40       	sbci	r29, 0x00	; 0
    16c2:	84 ed       	ldi	r24, 0xD4	; 212
    16c4:	93 e0       	ldi	r25, 0x03	; 3
    16c6:	0e 94 0f 02 	call	0x41e	; 0x41e <_ZN6Kalman8getAngleEddd>
    16ca:	60 93 4a 03 	sts	0x034A, r22
    16ce:	70 93 4b 03 	sts	0x034B, r23
    16d2:	80 93 4c 03 	sts	0x034C, r24
    16d6:	90 93 4d 03 	sts	0x034D, r25
			   kalAngleX = kalmanX.getAngle(roll, gyroXrate, dt); // Calculate the angle using a Kalman filter
			   #endif


			   /* Yaw estimation */
			   updateYaw();
    16da:	ac d8       	rcall	.-3752   	; 0x834 <_Z9updateYawv>
			   double gyroZrate = gyroZ / 131.0; // Convert to deg/s
    16dc:	20 e0       	ldi	r18, 0x00	; 0
    16de:	30 e0       	ldi	r19, 0x00	; 0
    16e0:	43 e0       	ldi	r20, 0x03	; 3
    16e2:	53 e4       	ldi	r21, 0x43	; 67
    16e4:	60 91 84 03 	lds	r22, 0x0384
    16e8:	70 91 85 03 	lds	r23, 0x0385
    16ec:	80 91 86 03 	lds	r24, 0x0386
    16f0:	90 91 87 03 	lds	r25, 0x0387
    16f4:	0e 94 40 1d 	call	0x3a80	; 0x3a80 <__divsf3>
    16f8:	cd 54       	subi	r28, 0x4D	; 77
    16fa:	df 4f       	sbci	r29, 0xFF	; 255
    16fc:	68 83       	st	Y, r22
    16fe:	79 83       	std	Y+1, r23	; 0x01
    1700:	8a 83       	std	Y+2, r24	; 0x02
    1702:	9b 83       	std	Y+3, r25	; 0x03
    1704:	c3 5b       	subi	r28, 0xB3	; 179
    1706:	d0 40       	sbci	r29, 0x00	; 0
			   // This fixes the transition problem when the yaw angle jumps between -180 and 180 degrees
			   if ((yaw < -90 && kalAngleZ > 90) || (yaw > 90 && kalAngleZ < -90)) {
    1708:	40 90 6a 03 	lds	r4, 0x036A
    170c:	50 90 6b 03 	lds	r5, 0x036B
    1710:	60 90 6c 03 	lds	r6, 0x036C
    1714:	70 90 6d 03 	lds	r7, 0x036D
    1718:	20 e0       	ldi	r18, 0x00	; 0
    171a:	30 e0       	ldi	r19, 0x00	; 0
    171c:	44 eb       	ldi	r20, 0xB4	; 180
    171e:	52 ec       	ldi	r21, 0xC2	; 194
    1720:	c3 01       	movw	r24, r6
    1722:	b2 01       	movw	r22, r4
    1724:	0e 94 39 1d 	call	0x3a72	; 0x3a72 <__cmpsf2>
    1728:	87 ff       	sbrs	r24, 7
    172a:	10 c0       	rjmp	.+32     	; 0x174c <_Z5task2Pv+0x2e6>
    172c:	20 e0       	ldi	r18, 0x00	; 0
    172e:	30 e0       	ldi	r19, 0x00	; 0
    1730:	44 eb       	ldi	r20, 0xB4	; 180
    1732:	52 e4       	ldi	r21, 0x42	; 66
    1734:	60 91 46 03 	lds	r22, 0x0346
    1738:	70 91 47 03 	lds	r23, 0x0347
    173c:	80 91 48 03 	lds	r24, 0x0348
    1740:	90 91 49 03 	lds	r25, 0x0349
    1744:	0e 94 45 1f 	call	0x3e8a	; 0x3e8a <__gesf2>
    1748:	18 16       	cp	r1, r24
    174a:	d4 f0       	brlt	.+52     	; 0x1780 <_Z5task2Pv+0x31a>
    174c:	20 e0       	ldi	r18, 0x00	; 0
    174e:	30 e0       	ldi	r19, 0x00	; 0
    1750:	44 eb       	ldi	r20, 0xB4	; 180
    1752:	52 e4       	ldi	r21, 0x42	; 66
    1754:	c3 01       	movw	r24, r6
    1756:	b2 01       	movw	r22, r4
    1758:	0e 94 45 1f 	call	0x3e8a	; 0x3e8a <__gesf2>
    175c:	18 16       	cp	r1, r24
    175e:	8c f5       	brge	.+98     	; 0x17c2 <_Z5task2Pv+0x35c>
    1760:	20 e0       	ldi	r18, 0x00	; 0
    1762:	30 e0       	ldi	r19, 0x00	; 0
    1764:	44 eb       	ldi	r20, 0xB4	; 180
    1766:	52 ec       	ldi	r21, 0xC2	; 194
    1768:	60 91 46 03 	lds	r22, 0x0346
    176c:	70 91 47 03 	lds	r23, 0x0347
    1770:	80 91 48 03 	lds	r24, 0x0348
    1774:	90 91 49 03 	lds	r25, 0x0349
    1778:	0e 94 39 1d 	call	0x3a72	; 0x3a72 <__cmpsf2>
    177c:	87 ff       	sbrs	r24, 7
    177e:	21 c0       	rjmp	.+66     	; 0x17c2 <_Z5task2Pv+0x35c>
    1780:	40 92 a8 03 	sts	0x03A8, r4
    1784:	50 92 a9 03 	sts	0x03A9, r5
    1788:	60 92 aa 03 	sts	0x03AA, r6
    178c:	70 92 ab 03 	sts	0x03AB, r7
				   kalmanZ.setAngle(yaw);
				   compAngleZ = yaw;
    1790:	40 92 52 03 	sts	0x0352, r4
    1794:	50 92 53 03 	sts	0x0353, r5
    1798:	60 92 54 03 	sts	0x0354, r6
    179c:	70 92 55 03 	sts	0x0355, r7
				   kalAngleZ = yaw;
    17a0:	40 92 46 03 	sts	0x0346, r4
    17a4:	50 92 47 03 	sts	0x0347, r5
    17a8:	60 92 48 03 	sts	0x0348, r6
    17ac:	70 92 49 03 	sts	0x0349, r7
				   gyroZangle = yaw;
    17b0:	40 92 5e 03 	sts	0x035E, r4
    17b4:	50 92 5f 03 	sts	0x035F, r5
    17b8:	60 92 60 03 	sts	0x0360, r6
    17bc:	70 92 61 03 	sts	0x0361, r7
    17c0:	18 c0       	rjmp	.+48     	; 0x17f2 <_Z5task2Pv+0x38c>
			   }
			   else
			   kalAngleZ = kalmanZ.getAngle(yaw, gyroZrate, dt); // Calculate the angle using a Kalman filter
    17c2:	75 01       	movw	r14, r10
    17c4:	64 01       	movw	r12, r8
    17c6:	cd 54       	subi	r28, 0x4D	; 77
    17c8:	df 4f       	sbci	r29, 0xFF	; 255
    17ca:	08 81       	ld	r16, Y
    17cc:	19 81       	ldd	r17, Y+1	; 0x01
    17ce:	2a 81       	ldd	r18, Y+2	; 0x02
    17d0:	3b 81       	ldd	r19, Y+3	; 0x03
    17d2:	c3 5b       	subi	r28, 0xB3	; 179
    17d4:	d0 40       	sbci	r29, 0x00	; 0
    17d6:	b3 01       	movw	r22, r6
    17d8:	a2 01       	movw	r20, r4
    17da:	8c e9       	ldi	r24, 0x9C	; 156
    17dc:	93 e0       	ldi	r25, 0x03	; 3
    17de:	0e 94 0f 02 	call	0x41e	; 0x41e <_ZN6Kalman8getAngleEddd>
    17e2:	60 93 46 03 	sts	0x0346, r22
    17e6:	70 93 47 03 	sts	0x0347, r23
    17ea:	80 93 48 03 	sts	0x0348, r24
    17ee:	90 93 49 03 	sts	0x0349, r25


			   /* Estimate angles using gyro only */
			   gyroXangle += gyroXrate * dt; // Calculate gyro angle without any filter
    17f2:	a5 01       	movw	r20, r10
    17f4:	94 01       	movw	r18, r8
    17f6:	c1 55       	subi	r28, 0x51	; 81
    17f8:	df 4f       	sbci	r29, 0xFF	; 255
    17fa:	68 81       	ld	r22, Y
    17fc:	79 81       	ldd	r23, Y+1	; 0x01
    17fe:	8a 81       	ldd	r24, Y+2	; 0x02
    1800:	9b 81       	ldd	r25, Y+3	; 0x03
    1802:	cf 5a       	subi	r28, 0xAF	; 175
    1804:	d0 40       	sbci	r29, 0x00	; 0
    1806:	0e 94 50 1f 	call	0x3ea0	; 0x3ea0 <__mulsf3>
    180a:	6b 01       	movw	r12, r22
    180c:	7c 01       	movw	r14, r24
    180e:	20 91 66 03 	lds	r18, 0x0366
    1812:	30 91 67 03 	lds	r19, 0x0367
    1816:	40 91 68 03 	lds	r20, 0x0368
    181a:	50 91 69 03 	lds	r21, 0x0369
    181e:	0e 94 73 1c 	call	0x38e6	; 0x38e6 <__addsf3>
    1822:	c1 55       	subi	r28, 0x51	; 81
    1824:	df 4f       	sbci	r29, 0xFF	; 255
    1826:	68 83       	st	Y, r22
    1828:	79 83       	std	Y+1, r23	; 0x01
    182a:	8a 83       	std	Y+2, r24	; 0x02
    182c:	9b 83       	std	Y+3, r25	; 0x03
    182e:	cf 5a       	subi	r28, 0xAF	; 175
    1830:	d0 40       	sbci	r29, 0x00	; 0
    1832:	60 93 66 03 	sts	0x0366, r22
    1836:	70 93 67 03 	sts	0x0367, r23
    183a:	80 93 68 03 	sts	0x0368, r24
    183e:	90 93 69 03 	sts	0x0369, r25
			   gyroYangle += gyroYrate * dt;
    1842:	a5 01       	movw	r20, r10
    1844:	94 01       	movw	r18, r8
    1846:	c5 55       	subi	r28, 0x55	; 85
    1848:	df 4f       	sbci	r29, 0xFF	; 255
    184a:	68 81       	ld	r22, Y
    184c:	79 81       	ldd	r23, Y+1	; 0x01
    184e:	8a 81       	ldd	r24, Y+2	; 0x02
    1850:	9b 81       	ldd	r25, Y+3	; 0x03
    1852:	cb 5a       	subi	r28, 0xAB	; 171
    1854:	d0 40       	sbci	r29, 0x00	; 0
    1856:	0e 94 50 1f 	call	0x3ea0	; 0x3ea0 <__mulsf3>
    185a:	c9 54       	subi	r28, 0x49	; 73
    185c:	df 4f       	sbci	r29, 0xFF	; 255
    185e:	68 83       	st	Y, r22
    1860:	79 83       	std	Y+1, r23	; 0x01
    1862:	8a 83       	std	Y+2, r24	; 0x02
    1864:	9b 83       	std	Y+3, r25	; 0x03
    1866:	c7 5b       	subi	r28, 0xB7	; 183
    1868:	d0 40       	sbci	r29, 0x00	; 0
    186a:	20 91 62 03 	lds	r18, 0x0362
    186e:	30 91 63 03 	lds	r19, 0x0363
    1872:	40 91 64 03 	lds	r20, 0x0364
    1876:	50 91 65 03 	lds	r21, 0x0365
    187a:	0e 94 73 1c 	call	0x38e6	; 0x38e6 <__addsf3>
    187e:	2b 01       	movw	r4, r22
    1880:	3c 01       	movw	r6, r24
    1882:	60 93 62 03 	sts	0x0362, r22
    1886:	70 93 63 03 	sts	0x0363, r23
    188a:	80 93 64 03 	sts	0x0364, r24
    188e:	90 93 65 03 	sts	0x0365, r25
			   gyroZangle += gyroZrate * dt;
    1892:	a5 01       	movw	r20, r10
    1894:	94 01       	movw	r18, r8
    1896:	cd 54       	subi	r28, 0x4D	; 77
    1898:	df 4f       	sbci	r29, 0xFF	; 255
    189a:	68 81       	ld	r22, Y
    189c:	79 81       	ldd	r23, Y+1	; 0x01
    189e:	8a 81       	ldd	r24, Y+2	; 0x02
    18a0:	9b 81       	ldd	r25, Y+3	; 0x03
    18a2:	c3 5b       	subi	r28, 0xB3	; 179
    18a4:	d0 40       	sbci	r29, 0x00	; 0
    18a6:	0e 94 50 1f 	call	0x3ea0	; 0x3ea0 <__mulsf3>
    18aa:	4b 01       	movw	r8, r22
    18ac:	5c 01       	movw	r10, r24
    18ae:	20 91 5e 03 	lds	r18, 0x035E
    18b2:	30 91 5f 03 	lds	r19, 0x035F
    18b6:	40 91 60 03 	lds	r20, 0x0360
    18ba:	50 91 61 03 	lds	r21, 0x0361
    18be:	0e 94 73 1c 	call	0x38e6	; 0x38e6 <__addsf3>
    18c2:	c5 55       	subi	r28, 0x55	; 85
    18c4:	df 4f       	sbci	r29, 0xFF	; 255
    18c6:	68 83       	st	Y, r22
    18c8:	79 83       	std	Y+1, r23	; 0x01
    18ca:	8a 83       	std	Y+2, r24	; 0x02
    18cc:	9b 83       	std	Y+3, r25	; 0x03
    18ce:	cb 5a       	subi	r28, 0xAB	; 171
    18d0:	d0 40       	sbci	r29, 0x00	; 0
    18d2:	60 93 5e 03 	sts	0x035E, r22
    18d6:	70 93 5f 03 	sts	0x035F, r23
    18da:	80 93 60 03 	sts	0x0360, r24
    18de:	90 93 61 03 	sts	0x0361, r25
			   //gyroXangle += kalmanX.getRate() * dt; // Calculate gyro angle using the unbiased rate from the Kalman filter
			   //gyroYangle += kalmanY.getRate() * dt;
			   //gyroZangle += kalmanZ.getRate() * dt;

			   /* Estimate angles using complimentary filter */
			   compAngleX = 0.93 * (compAngleX + gyroXrate * dt) + 0.07 * roll; // Calculate the angle using a Complimentary filter
    18e2:	20 91 5a 03 	lds	r18, 0x035A
    18e6:	30 91 5b 03 	lds	r19, 0x035B
    18ea:	40 91 5c 03 	lds	r20, 0x035C
    18ee:	50 91 5d 03 	lds	r21, 0x035D
    18f2:	c7 01       	movw	r24, r14
    18f4:	b6 01       	movw	r22, r12
    18f6:	0e 94 73 1c 	call	0x38e6	; 0x38e6 <__addsf3>
    18fa:	2b e7       	ldi	r18, 0x7B	; 123
    18fc:	34 e1       	ldi	r19, 0x14	; 20
    18fe:	4e e6       	ldi	r20, 0x6E	; 110
    1900:	5f e3       	ldi	r21, 0x3F	; 63
    1902:	0e 94 50 1f 	call	0x3ea0	; 0x3ea0 <__mulsf3>
    1906:	6b 01       	movw	r12, r22
    1908:	7c 01       	movw	r14, r24
    190a:	29 e2       	ldi	r18, 0x29	; 41
    190c:	3c e5       	ldi	r19, 0x5C	; 92
    190e:	4f e8       	ldi	r20, 0x8F	; 143
    1910:	5d e3       	ldi	r21, 0x3D	; 61
    1912:	60 91 72 03 	lds	r22, 0x0372
    1916:	70 91 73 03 	lds	r23, 0x0373
    191a:	80 91 74 03 	lds	r24, 0x0374
    191e:	90 91 75 03 	lds	r25, 0x0375
    1922:	0e 94 50 1f 	call	0x3ea0	; 0x3ea0 <__mulsf3>
    1926:	9b 01       	movw	r18, r22
    1928:	ac 01       	movw	r20, r24
    192a:	c7 01       	movw	r24, r14
    192c:	b6 01       	movw	r22, r12
    192e:	0e 94 73 1c 	call	0x38e6	; 0x38e6 <__addsf3>
    1932:	60 93 5a 03 	sts	0x035A, r22
    1936:	70 93 5b 03 	sts	0x035B, r23
    193a:	80 93 5c 03 	sts	0x035C, r24
    193e:	90 93 5d 03 	sts	0x035D, r25
			   compAngleY = 0.93 * (compAngleY + gyroYrate * dt) + 0.07 * pitch;
    1942:	20 91 56 03 	lds	r18, 0x0356
    1946:	30 91 57 03 	lds	r19, 0x0357
    194a:	40 91 58 03 	lds	r20, 0x0358
    194e:	50 91 59 03 	lds	r21, 0x0359
    1952:	c9 54       	subi	r28, 0x49	; 73
    1954:	df 4f       	sbci	r29, 0xFF	; 255
    1956:	68 81       	ld	r22, Y
    1958:	79 81       	ldd	r23, Y+1	; 0x01
    195a:	8a 81       	ldd	r24, Y+2	; 0x02
    195c:	9b 81       	ldd	r25, Y+3	; 0x03
    195e:	c7 5b       	subi	r28, 0xB7	; 183
    1960:	d0 40       	sbci	r29, 0x00	; 0
    1962:	0e 94 73 1c 	call	0x38e6	; 0x38e6 <__addsf3>
    1966:	2b e7       	ldi	r18, 0x7B	; 123
    1968:	34 e1       	ldi	r19, 0x14	; 20
    196a:	4e e6       	ldi	r20, 0x6E	; 110
    196c:	5f e3       	ldi	r21, 0x3F	; 63
    196e:	0e 94 50 1f 	call	0x3ea0	; 0x3ea0 <__mulsf3>
    1972:	6b 01       	movw	r12, r22
    1974:	7c 01       	movw	r14, r24
    1976:	29 e2       	ldi	r18, 0x29	; 41
    1978:	3c e5       	ldi	r19, 0x5C	; 92
    197a:	4f e8       	ldi	r20, 0x8F	; 143
    197c:	5d e3       	ldi	r21, 0x3D	; 61
    197e:	60 91 6e 03 	lds	r22, 0x036E
    1982:	70 91 6f 03 	lds	r23, 0x036F
    1986:	80 91 70 03 	lds	r24, 0x0370
    198a:	90 91 71 03 	lds	r25, 0x0371
    198e:	0e 94 50 1f 	call	0x3ea0	; 0x3ea0 <__mulsf3>
    1992:	9b 01       	movw	r18, r22
    1994:	ac 01       	movw	r20, r24
    1996:	c7 01       	movw	r24, r14
    1998:	b6 01       	movw	r22, r12
    199a:	0e 94 73 1c 	call	0x38e6	; 0x38e6 <__addsf3>
    199e:	60 93 56 03 	sts	0x0356, r22
    19a2:	70 93 57 03 	sts	0x0357, r23
    19a6:	80 93 58 03 	sts	0x0358, r24
    19aa:	90 93 59 03 	sts	0x0359, r25
			   compAngleZ = 0.93 * (compAngleZ + gyroZrate * dt) + 0.07 * yaw;
    19ae:	c0 90 6a 03 	lds	r12, 0x036A
    19b2:	d0 90 6b 03 	lds	r13, 0x036B
    19b6:	e0 90 6c 03 	lds	r14, 0x036C
    19ba:	f0 90 6d 03 	lds	r15, 0x036D
    19be:	20 91 52 03 	lds	r18, 0x0352
    19c2:	30 91 53 03 	lds	r19, 0x0353
    19c6:	40 91 54 03 	lds	r20, 0x0354
    19ca:	50 91 55 03 	lds	r21, 0x0355
    19ce:	c5 01       	movw	r24, r10
    19d0:	b4 01       	movw	r22, r8
    19d2:	0e 94 73 1c 	call	0x38e6	; 0x38e6 <__addsf3>
    19d6:	2b e7       	ldi	r18, 0x7B	; 123
    19d8:	34 e1       	ldi	r19, 0x14	; 20
    19da:	4e e6       	ldi	r20, 0x6E	; 110
    19dc:	5f e3       	ldi	r21, 0x3F	; 63
    19de:	0e 94 50 1f 	call	0x3ea0	; 0x3ea0 <__mulsf3>
    19e2:	4b 01       	movw	r8, r22
    19e4:	5c 01       	movw	r10, r24
    19e6:	29 e2       	ldi	r18, 0x29	; 41
    19e8:	3c e5       	ldi	r19, 0x5C	; 92
    19ea:	4f e8       	ldi	r20, 0x8F	; 143
    19ec:	5d e3       	ldi	r21, 0x3D	; 61
    19ee:	c7 01       	movw	r24, r14
    19f0:	b6 01       	movw	r22, r12
    19f2:	0e 94 50 1f 	call	0x3ea0	; 0x3ea0 <__mulsf3>
    19f6:	9b 01       	movw	r18, r22
    19f8:	ac 01       	movw	r20, r24
    19fa:	c5 01       	movw	r24, r10
    19fc:	b4 01       	movw	r22, r8
    19fe:	0e 94 73 1c 	call	0x38e6	; 0x38e6 <__addsf3>
    1a02:	60 93 52 03 	sts	0x0352, r22
    1a06:	70 93 53 03 	sts	0x0353, r23
    1a0a:	80 93 54 03 	sts	0x0354, r24
    1a0e:	90 93 55 03 	sts	0x0355, r25

			   // Reset the gyro angles when they has drifted too much
			   if (gyroXangle < -180 || gyroXangle > 180)
    1a12:	20 e0       	ldi	r18, 0x00	; 0
    1a14:	30 e0       	ldi	r19, 0x00	; 0
    1a16:	44 e3       	ldi	r20, 0x34	; 52
    1a18:	53 ec       	ldi	r21, 0xC3	; 195
    1a1a:	c1 55       	subi	r28, 0x51	; 81
    1a1c:	df 4f       	sbci	r29, 0xFF	; 255
    1a1e:	68 81       	ld	r22, Y
    1a20:	79 81       	ldd	r23, Y+1	; 0x01
    1a22:	8a 81       	ldd	r24, Y+2	; 0x02
    1a24:	9b 81       	ldd	r25, Y+3	; 0x03
    1a26:	cf 5a       	subi	r28, 0xAF	; 175
    1a28:	d0 40       	sbci	r29, 0x00	; 0
    1a2a:	0e 94 39 1d 	call	0x3a72	; 0x3a72 <__cmpsf2>
    1a2e:	87 fd       	sbrc	r24, 7
    1a30:	10 c0       	rjmp	.+32     	; 0x1a52 <_Z5task2Pv+0x5ec>
    1a32:	20 e0       	ldi	r18, 0x00	; 0
    1a34:	30 e0       	ldi	r19, 0x00	; 0
    1a36:	44 e3       	ldi	r20, 0x34	; 52
    1a38:	53 e4       	ldi	r21, 0x43	; 67
    1a3a:	c1 55       	subi	r28, 0x51	; 81
    1a3c:	df 4f       	sbci	r29, 0xFF	; 255
    1a3e:	68 81       	ld	r22, Y
    1a40:	79 81       	ldd	r23, Y+1	; 0x01
    1a42:	8a 81       	ldd	r24, Y+2	; 0x02
    1a44:	9b 81       	ldd	r25, Y+3	; 0x03
    1a46:	cf 5a       	subi	r28, 0xAF	; 175
    1a48:	d0 40       	sbci	r29, 0x00	; 0
    1a4a:	0e 94 45 1f 	call	0x3e8a	; 0x3e8a <__gesf2>
    1a4e:	18 16       	cp	r1, r24
    1a50:	84 f4       	brge	.+32     	; 0x1a72 <_Z5task2Pv+0x60c>
			   gyroXangle = kalAngleX;
    1a52:	80 91 4e 03 	lds	r24, 0x034E
    1a56:	90 91 4f 03 	lds	r25, 0x034F
    1a5a:	a0 91 50 03 	lds	r26, 0x0350
    1a5e:	b0 91 51 03 	lds	r27, 0x0351
    1a62:	80 93 66 03 	sts	0x0366, r24
    1a66:	90 93 67 03 	sts	0x0367, r25
    1a6a:	a0 93 68 03 	sts	0x0368, r26
    1a6e:	b0 93 69 03 	sts	0x0369, r27
			   if (gyroYangle < -180 || gyroYangle > 180)
    1a72:	20 e0       	ldi	r18, 0x00	; 0
    1a74:	30 e0       	ldi	r19, 0x00	; 0
    1a76:	44 e3       	ldi	r20, 0x34	; 52
    1a78:	53 ec       	ldi	r21, 0xC3	; 195
    1a7a:	c3 01       	movw	r24, r6
    1a7c:	b2 01       	movw	r22, r4
    1a7e:	0e 94 39 1d 	call	0x3a72	; 0x3a72 <__cmpsf2>
    1a82:	87 fd       	sbrc	r24, 7
    1a84:	0a c0       	rjmp	.+20     	; 0x1a9a <_Z5task2Pv+0x634>
    1a86:	20 e0       	ldi	r18, 0x00	; 0
    1a88:	30 e0       	ldi	r19, 0x00	; 0
    1a8a:	44 e3       	ldi	r20, 0x34	; 52
    1a8c:	53 e4       	ldi	r21, 0x43	; 67
    1a8e:	c3 01       	movw	r24, r6
    1a90:	b2 01       	movw	r22, r4
    1a92:	0e 94 45 1f 	call	0x3e8a	; 0x3e8a <__gesf2>
    1a96:	18 16       	cp	r1, r24
    1a98:	84 f4       	brge	.+32     	; 0x1aba <_Z5task2Pv+0x654>
			   gyroYangle = kalAngleY;
    1a9a:	80 91 4a 03 	lds	r24, 0x034A
    1a9e:	90 91 4b 03 	lds	r25, 0x034B
    1aa2:	a0 91 4c 03 	lds	r26, 0x034C
    1aa6:	b0 91 4d 03 	lds	r27, 0x034D
    1aaa:	80 93 62 03 	sts	0x0362, r24
    1aae:	90 93 63 03 	sts	0x0363, r25
    1ab2:	a0 93 64 03 	sts	0x0364, r26
    1ab6:	b0 93 65 03 	sts	0x0365, r27
			   if (gyroZangle < -180 || gyroZangle > 180)
    1aba:	20 e0       	ldi	r18, 0x00	; 0
    1abc:	30 e0       	ldi	r19, 0x00	; 0
    1abe:	44 e3       	ldi	r20, 0x34	; 52
    1ac0:	53 ec       	ldi	r21, 0xC3	; 195
    1ac2:	c5 55       	subi	r28, 0x55	; 85
    1ac4:	df 4f       	sbci	r29, 0xFF	; 255
    1ac6:	68 81       	ld	r22, Y
    1ac8:	79 81       	ldd	r23, Y+1	; 0x01
    1aca:	8a 81       	ldd	r24, Y+2	; 0x02
    1acc:	9b 81       	ldd	r25, Y+3	; 0x03
    1ace:	cb 5a       	subi	r28, 0xAB	; 171
    1ad0:	d0 40       	sbci	r29, 0x00	; 0
    1ad2:	0e 94 39 1d 	call	0x3a72	; 0x3a72 <__cmpsf2>
    1ad6:	87 fd       	sbrc	r24, 7
    1ad8:	10 c0       	rjmp	.+32     	; 0x1afa <_Z5task2Pv+0x694>
    1ada:	20 e0       	ldi	r18, 0x00	; 0
    1adc:	30 e0       	ldi	r19, 0x00	; 0
    1ade:	44 e3       	ldi	r20, 0x34	; 52
    1ae0:	53 e4       	ldi	r21, 0x43	; 67
    1ae2:	c5 55       	subi	r28, 0x55	; 85
    1ae4:	df 4f       	sbci	r29, 0xFF	; 255
    1ae6:	68 81       	ld	r22, Y
    1ae8:	79 81       	ldd	r23, Y+1	; 0x01
    1aea:	8a 81       	ldd	r24, Y+2	; 0x02
    1aec:	9b 81       	ldd	r25, Y+3	; 0x03
    1aee:	cb 5a       	subi	r28, 0xAB	; 171
    1af0:	d0 40       	sbci	r29, 0x00	; 0
    1af2:	0e 94 45 1f 	call	0x3e8a	; 0x3e8a <__gesf2>
    1af6:	18 16       	cp	r1, r24
    1af8:	84 f4       	brge	.+32     	; 0x1b1a <_Z5task2Pv+0x6b4>
			   gyroZangle = kalAngleZ;
    1afa:	80 91 46 03 	lds	r24, 0x0346
    1afe:	90 91 47 03 	lds	r25, 0x0347
    1b02:	a0 91 48 03 	lds	r26, 0x0348
    1b06:	b0 91 49 03 	lds	r27, 0x0349
    1b0a:	80 93 5e 03 	sts	0x035E, r24
    1b0e:	90 93 5f 03 	sts	0x035F, r25
    1b12:	a0 93 60 03 	sts	0x0360, r26
    1b16:	b0 93 61 03 	sts	0x0361, r27

				

			   char output[100];
			   double acclx = (accX/ 16384.0)*9.8, accly = (accY/ 16384.0)*9.8, acclz = (accZ/ 16384.0)*9.8;
    1b1a:	20 e0       	ldi	r18, 0x00	; 0
    1b1c:	30 e0       	ldi	r19, 0x00	; 0
    1b1e:	40 e8       	ldi	r20, 0x80	; 128
    1b20:	58 e3       	ldi	r21, 0x38	; 56
    1b22:	60 91 94 03 	lds	r22, 0x0394
    1b26:	70 91 95 03 	lds	r23, 0x0395
    1b2a:	80 91 96 03 	lds	r24, 0x0396
    1b2e:	90 91 97 03 	lds	r25, 0x0397
    1b32:	0e 94 50 1f 	call	0x3ea0	; 0x3ea0 <__mulsf3>
    1b36:	2d ec       	ldi	r18, 0xCD	; 205
    1b38:	3c ec       	ldi	r19, 0xCC	; 204
    1b3a:	4c e1       	ldi	r20, 0x1C	; 28
    1b3c:	51 e4       	ldi	r21, 0x41	; 65
    1b3e:	0e 94 50 1f 	call	0x3ea0	; 0x3ea0 <__mulsf3>
    1b42:	2b 01       	movw	r4, r22
    1b44:	3c 01       	movw	r6, r24
    1b46:	20 e0       	ldi	r18, 0x00	; 0
    1b48:	30 e0       	ldi	r19, 0x00	; 0
    1b4a:	40 e8       	ldi	r20, 0x80	; 128
    1b4c:	58 e3       	ldi	r21, 0x38	; 56
    1b4e:	60 91 90 03 	lds	r22, 0x0390
    1b52:	70 91 91 03 	lds	r23, 0x0391
    1b56:	80 91 92 03 	lds	r24, 0x0392
    1b5a:	90 91 93 03 	lds	r25, 0x0393
    1b5e:	0e 94 50 1f 	call	0x3ea0	; 0x3ea0 <__mulsf3>
    1b62:	2d ec       	ldi	r18, 0xCD	; 205
    1b64:	3c ec       	ldi	r19, 0xCC	; 204
    1b66:	4c e1       	ldi	r20, 0x1C	; 28
    1b68:	51 e4       	ldi	r21, 0x41	; 65
    1b6a:	0e 94 50 1f 	call	0x3ea0	; 0x3ea0 <__mulsf3>
    1b6e:	4b 01       	movw	r8, r22
    1b70:	5c 01       	movw	r10, r24
			   double compassVal = fmod(yaw+360, 360);
    1b72:	20 e0       	ldi	r18, 0x00	; 0
    1b74:	30 e0       	ldi	r19, 0x00	; 0
    1b76:	44 eb       	ldi	r20, 0xB4	; 180
    1b78:	53 e4       	ldi	r21, 0x43	; 67
    1b7a:	c7 01       	movw	r24, r14
    1b7c:	b6 01       	movw	r22, r12
    1b7e:	0e 94 73 1c 	call	0x38e6	; 0x38e6 <__addsf3>
    1b82:	20 e0       	ldi	r18, 0x00	; 0
    1b84:	30 e0       	ldi	r19, 0x00	; 0
    1b86:	44 eb       	ldi	r20, 0xB4	; 180
    1b88:	53 e4       	ldi	r21, 0x43	; 67
    1b8a:	0e 94 1d 1e 	call	0x3c3a	; 0x3c3a <fmod>
    1b8e:	6b 01       	movw	r12, r22
    1b90:	7c 01       	movw	r14, r24
			   gyroZangle = kalAngleZ;

				

			   char output[100];
			   double acclx = (accX/ 16384.0)*9.8, accly = (accY/ 16384.0)*9.8, acclz = (accZ/ 16384.0)*9.8;
    1b92:	20 e0       	ldi	r18, 0x00	; 0
    1b94:	30 e0       	ldi	r19, 0x00	; 0
    1b96:	40 e8       	ldi	r20, 0x80	; 128
    1b98:	58 e3       	ldi	r21, 0x38	; 56
    1b9a:	60 91 98 03 	lds	r22, 0x0398
    1b9e:	70 91 99 03 	lds	r23, 0x0399
    1ba2:	80 91 9a 03 	lds	r24, 0x039A
    1ba6:	90 91 9b 03 	lds	r25, 0x039B
    1baa:	0e 94 50 1f 	call	0x3ea0	; 0x3ea0 <__mulsf3>
    1bae:	2d ec       	ldi	r18, 0xCD	; 205
    1bb0:	3c ec       	ldi	r19, 0xCC	; 204
    1bb2:	4c e1       	ldi	r20, 0x1C	; 28
    1bb4:	51 e4       	ldi	r21, 0x41	; 65
    1bb6:	0e 94 50 1f 	call	0x3ea0	; 0x3ea0 <__mulsf3>
			   double compassVal = fmod(yaw+360, 360);

				char acclxCh[10], acclyCh[10], acclzCh[10], comp[10], mil[30] ; 
				dtostrf(acclx, 3, 2, acclxCh) ;
    1bba:	8e 01       	movw	r16, r28
    1bbc:	0f 55       	subi	r16, 0x5F	; 95
    1bbe:	1f 4f       	sbci	r17, 0xFF	; 255
    1bc0:	22 e0       	ldi	r18, 0x02	; 2
    1bc2:	43 e0       	ldi	r20, 0x03	; 3
    1bc4:	0e 94 ad 27 	call	0x4f5a	; 0x4f5a <dtostrf>
				dtostrf(accly, 3, 2, acclyCh);
    1bc8:	0a 50       	subi	r16, 0x0A	; 10
    1bca:	11 09       	sbc	r17, r1
    1bcc:	22 e0       	ldi	r18, 0x02	; 2
    1bce:	43 e0       	ldi	r20, 0x03	; 3
    1bd0:	c3 01       	movw	r24, r6
    1bd2:	b2 01       	movw	r22, r4
    1bd4:	0e 94 ad 27 	call	0x4f5a	; 0x4f5a <dtostrf>
				dtostrf(acclz,3,2,acclzCh);
    1bd8:	0a 50       	subi	r16, 0x0A	; 10
    1bda:	11 09       	sbc	r17, r1
    1bdc:	22 e0       	ldi	r18, 0x02	; 2
    1bde:	43 e0       	ldi	r20, 0x03	; 3
    1be0:	c5 01       	movw	r24, r10
    1be2:	b4 01       	movw	r22, r8
    1be4:	0e 94 ad 27 	call	0x4f5a	; 0x4f5a <dtostrf>
				dtostrf(compassVal,3,2,comp);
    1be8:	0a 50       	subi	r16, 0x0A	; 10
    1bea:	11 09       	sbc	r17, r1
    1bec:	22 e0       	ldi	r18, 0x02	; 2
    1bee:	43 e0       	ldi	r20, 0x03	; 3
    1bf0:	c7 01       	movw	r24, r14
    1bf2:	b6 01       	movw	r22, r12
    1bf4:	0e 94 ad 27 	call	0x4f5a	; 0x4f5a <dtostrf>
				
				
				ltoa(millis(), mil, 10);
    1bf8:	0e 94 d8 25 	call	0x4bb0	; 0x4bb0 <millis>
    } else if (__radix < 2 || __radix > 36) {
	*__s = 0;
	return __s;
    } else {
	extern char *__ltoa_ncheck (long, char *, unsigned char);
	return __ltoa_ncheck (__val, __s, __radix);
    1bfc:	2a e0       	ldi	r18, 0x0A	; 10
    1bfe:	ae 01       	movw	r20, r28
    1c00:	4b 59       	subi	r20, 0x9B	; 155
    1c02:	5f 4f       	sbci	r21, 0xFF	; 255
    1c04:	0e 94 e8 27 	call	0x4fd0	; 0x4fd0 <__ltoa_ncheck>
				//dtostrf(millis(), 20,0, mil);
				
				//strcat(outTask2, acclxCh );
				strcpy(output,"(accelerometerReading = ( x = ");
    1c08:	61 e7       	ldi	r22, 0x71	; 113
    1c0a:	72 e0       	ldi	r23, 0x02	; 2
    1c0c:	ce 01       	movw	r24, r28
    1c0e:	01 96       	adiw	r24, 0x01	; 1
    1c10:	0e 94 e1 27 	call	0x4fc2	; 0x4fc2 <strcpy>
				strcat(output, acclxCh);
    1c14:	be 01       	movw	r22, r28
    1c16:	6f 55       	subi	r22, 0x5F	; 95
    1c18:	7f 4f       	sbci	r23, 0xFF	; 255
    1c1a:	ce 01       	movw	r24, r28
    1c1c:	01 96       	adiw	r24, 0x01	; 1
    1c1e:	0e 94 d6 27 	call	0x4fac	; 0x4fac <strcat>
				strcat(output, ", y = ");
    1c22:	60 e9       	ldi	r22, 0x90	; 144
    1c24:	72 e0       	ldi	r23, 0x02	; 2
    1c26:	ce 01       	movw	r24, r28
    1c28:	01 96       	adiw	r24, 0x01	; 1
    1c2a:	0e 94 d6 27 	call	0x4fac	; 0x4fac <strcat>
				strcat(output, acclyCh);
    1c2e:	be 01       	movw	r22, r28
    1c30:	69 56       	subi	r22, 0x69	; 105
    1c32:	7f 4f       	sbci	r23, 0xFF	; 255
    1c34:	ce 01       	movw	r24, r28
    1c36:	01 96       	adiw	r24, 0x01	; 1
    1c38:	0e 94 d6 27 	call	0x4fac	; 0x4fac <strcat>
				
				strcat(output, ", z = ");
    1c3c:	67 e9       	ldi	r22, 0x97	; 151
    1c3e:	72 e0       	ldi	r23, 0x02	; 2
    1c40:	ce 01       	movw	r24, r28
    1c42:	01 96       	adiw	r24, 0x01	; 1
    1c44:	0e 94 d6 27 	call	0x4fac	; 0x4fac <strcat>
				strcat(output, acclzCh);
    1c48:	be 01       	movw	r22, r28
    1c4a:	63 57       	subi	r22, 0x73	; 115
    1c4c:	7f 4f       	sbci	r23, 0xFF	; 255
    1c4e:	ce 01       	movw	r24, r28
    1c50:	01 96       	adiw	r24, 0x01	; 1
    1c52:	0e 94 d6 27 	call	0x4fac	; 0x4fac <strcat>
				strcat(output, ") compassReading = ");
    1c56:	6e e9       	ldi	r22, 0x9E	; 158
    1c58:	72 e0       	ldi	r23, 0x02	; 2
    1c5a:	ce 01       	movw	r24, r28
    1c5c:	01 96       	adiw	r24, 0x01	; 1
    1c5e:	0e 94 d6 27 	call	0x4fac	; 0x4fac <strcat>
				strcat(output, comp);
    1c62:	b8 01       	movw	r22, r16
    1c64:	ce 01       	movw	r24, r28
    1c66:	01 96       	adiw	r24, 0x01	; 1
    1c68:	0e 94 d6 27 	call	0x4fac	; 0x4fac <strcat>
				strcat(output, ", currentTime = " );
    1c6c:	62 eb       	ldi	r22, 0xB2	; 178
    1c6e:	72 e0       	ldi	r23, 0x02	; 2
    1c70:	ce 01       	movw	r24, r28
    1c72:	01 96       	adiw	r24, 0x01	; 1
    1c74:	0e 94 d6 27 	call	0x4fac	; 0x4fac <strcat>
				strcat(output, mil);
    1c78:	be 01       	movw	r22, r28
    1c7a:	6b 59       	subi	r22, 0x9B	; 155
    1c7c:	7f 4f       	sbci	r23, 0xFF	; 255
    1c7e:	ce 01       	movw	r24, r28
    1c80:	01 96       	adiw	r24, 0x01	; 1
    1c82:	0e 94 d6 27 	call	0x4fac	; 0x4fac <strcat>
				strcat(output, ")");
    1c86:	63 ec       	ldi	r22, 0xC3	; 195
    1c88:	72 e0       	ldi	r23, 0x02	; 2
    1c8a:	ce 01       	movw	r24, r28
    1c8c:	01 96       	adiw	r24, 0x01	; 1
    1c8e:	0e 94 d6 27 	call	0x4fac	; 0x4fac <strcat>
				Serial.println(output);
    1c92:	be 01       	movw	r22, r28
    1c94:	6f 5f       	subi	r22, 0xFF	; 255
    1c96:	7f 4f       	sbci	r23, 0xFF	; 255
    1c98:	86 e3       	ldi	r24, 0x36	; 54
    1c9a:	9a e1       	ldi	r25, 0x1A	; 26
    1c9c:	0e 94 d1 24 	call	0x49a2	; 0x49a2 <_ZN5Print7printlnEPKc>
				} */
				
				//Serial.println(acclyCh);
				//Serial.print(acclzCh);
			/* Give up semaphore reserving print resource */
			xSemaphoreGive( printing_semphr );
    1ca0:	20 e0       	ldi	r18, 0x00	; 0
    1ca2:	40 e0       	ldi	r20, 0x00	; 0
    1ca4:	50 e0       	ldi	r21, 0x00	; 0
    1ca6:	60 e0       	ldi	r22, 0x00	; 0
    1ca8:	70 e0       	ldi	r23, 0x00	; 0
    1caa:	80 91 44 04 	lds	r24, 0x0444
    1cae:	90 91 45 04 	lds	r25, 0x0445
    1cb2:	a9 d5       	rcall	.+2898   	; 0x2806 <xQueueGenericSend>
			/* Yield so that task1 can be scheduled */
			vPortYield();
    1cb4:	de d3       	rcall	.+1980   	; 0x2472 <vPortYield>
			vTaskDelay(1000) ;
    1cb6:	88 ee       	ldi	r24, 0xE8	; 232
    1cb8:	93 e0       	ldi	r25, 0x03	; 3
    1cba:	0e 94 c2 17 	call	0x2f84	; 0x2f84 <vTaskDelay>
			Serial.println("** Task 2 Error: could not take semaphore **");
			/* Hang thread rather than continue. */
			for(;;);
		}
		
	}	
    1cbe:	de cb       	rjmp	.-2116   	; 0x147c <_Z5task2Pv+0x16>
			vTaskDelay(1000) ;
		} 
			
		else {
			/* If the semaphore take timed out, something has gone wrong. */
			Serial.println("** Task 2 Error: could not take semaphore **");
    1cc0:	65 ec       	ldi	r22, 0xC5	; 197
    1cc2:	72 e0       	ldi	r23, 0x02	; 2
    1cc4:	86 e3       	ldi	r24, 0x36	; 54
    1cc6:	9a e1       	ldi	r25, 0x1A	; 26
    1cc8:	0e 94 d1 24 	call	0x49a2	; 0x49a2 <_ZN5Print7printlnEPKc>
    1ccc:	ff cf       	rjmp	.-2      	; 0x1ccc <_Z5task2Pv+0x866>

00001cce <setup>:
    break; */
  }
  
}

void setup() {
    1cce:	0f 93       	push	r16
	
	  Wire.begin();
    1cd0:	8e e7       	ldi	r24, 0x7E	; 126
    1cd2:	99 e1       	ldi	r25, 0x19	; 25
    1cd4:	0e 94 3e 1c 	call	0x387c	; 0x387c <_ZN7TwoWire5beginEv>
	  Serial.begin(115200);
    1cd8:	40 e0       	ldi	r20, 0x00	; 0
    1cda:	52 ec       	ldi	r21, 0xC2	; 194
    1cdc:	61 e0       	ldi	r22, 0x01	; 1
    1cde:	70 e0       	ldi	r23, 0x00	; 0
    1ce0:	86 e3       	ldi	r24, 0x36	; 54
    1ce2:	9a e1       	ldi	r25, 0x1A	; 26
    1ce4:	0e 94 f1 22 	call	0x45e2	; 0x45e2 <_ZN14HardwareSerial5beginEm>
  // ----------------------------------For handshake-------------------------------
  //wait for SOMETHINGGGGG from RPi
  int count = 0 ; 
  while(1) {
   
   if(Serial.available()) {
    1ce8:	86 e3       	ldi	r24, 0x36	; 54
    1cea:	9a e1       	ldi	r25, 0x1A	; 26
    1cec:	0e 94 16 20 	call	0x402c	; 0x402c <_ZN14HardwareSerial9availableEv>
    1cf0:	89 2b       	or	r24, r25
    1cf2:	d1 f3       	breq	.-12     	; 0x1ce8 <setup+0x1a>
   
     // read the incoming byte:
     char readChar = Serial.read();
    1cf4:	86 e3       	ldi	r24, 0x36	; 54
    1cf6:	9a e1       	ldi	r25, 0x1A	; 26
    1cf8:	0e 94 3f 20 	call	0x407e	; 0x407e <_ZN14HardwareSerial4readEv>
     count++ ;
     
     if(count==1)
       Serial.println(readChar) ;
    1cfc:	68 2f       	mov	r22, r24
    1cfe:	86 e3       	ldi	r24, 0x36	; 54
    1d00:	9a e1       	ldi	r25, 0x1A	; 26
    1d02:	0e 94 e1 24 	call	0x49c2	; 0x49c2 <_ZN5Print7printlnEc>
  // ----------------------------------For handshake-------------------------------
  //wait for SOMETHINGGGGG from RPi
  int count = 0 ; 
  while(1) {
   
   if(Serial.available()) {
    1d06:	86 e3       	ldi	r24, 0x36	; 54
    1d08:	9a e1       	ldi	r25, 0x1A	; 26
    1d0a:	0e 94 16 20 	call	0x402c	; 0x402c <_ZN14HardwareSerial9availableEv>
    1d0e:	89 2b       	or	r24, r25
    1d10:	d1 f3       	breq	.-12     	; 0x1d06 <setup+0x38>
   
     // read the incoming byte:
     char readChar = Serial.read();
    1d12:	86 e3       	ldi	r24, 0x36	; 54
    1d14:	9a e1       	ldi	r25, 0x1A	; 26
    1d16:	0e 94 3f 20 	call	0x407e	; 0x407e <_ZN14HardwareSerial4readEv>
       break;
     }
   }

	
	  TWBR = ((F_CPU / 400000L) - 16) / 2; // Set I2C frequency to 400kHz
    1d1a:	8c e0       	ldi	r24, 0x0C	; 12
    1d1c:	80 93 b8 00 	sts	0x00B8, r24

	  i2cData[0] = 7; // Set the sample rate to 1000Hz - 8kHz/(7+1) = 1000Hz
    1d20:	87 e0       	ldi	r24, 0x07	; 7
    1d22:	80 93 34 03 	sts	0x0334, r24
	  i2cData[1] = 0x00; // Disable FSYNC and set 260 Hz Acc filtering, 256 Hz Gyro filtering, 8 KHz sampling
    1d26:	10 92 35 03 	sts	0x0335, r1
	  i2cData[2] = 0x00; // Set Gyro Full Scale Range to 250deg/s
    1d2a:	10 92 36 03 	sts	0x0336, r1
	  i2cData[3] = 0x00; // Set Accelerometer Full Scale Range to 2g
    1d2e:	10 92 37 03 	sts	0x0337, r1

	  while (i2cWrite(MPU6050, 0x19, i2cData, 4, false)); // Write to all four registers at once
    1d32:	00 e0       	ldi	r16, 0x00	; 0
    1d34:	24 e0       	ldi	r18, 0x04	; 4
    1d36:	44 e3       	ldi	r20, 0x34	; 52
    1d38:	53 e0       	ldi	r21, 0x03	; 3
    1d3a:	69 e1       	ldi	r22, 0x19	; 25
    1d3c:	88 e6       	ldi	r24, 0x68	; 104
    1d3e:	fb d8       	rcall	.-3594   	; 0xf36 <_Z8i2cWritehhPhhb>
    1d40:	81 11       	cpse	r24, r1
    1d42:	f7 cf       	rjmp	.-18     	; 0x1d32 <setup+0x64>

	  while (i2cWrite(MPU6050, 0x6B, 0x01, true)); // PLL with X axis gyroscope reference and disable sleep mode
    1d44:	21 e0       	ldi	r18, 0x01	; 1
    1d46:	41 e0       	ldi	r20, 0x01	; 1
    1d48:	6b e6       	ldi	r22, 0x6B	; 107
    1d4a:	88 e6       	ldi	r24, 0x68	; 104
    1d4c:	30 d9       	rcall	.-3488   	; 0xfae <_Z8i2cWritehhhb>
    1d4e:	81 11       	cpse	r24, r1
    1d50:	f9 cf       	rjmp	.-14     	; 0x1d44 <setup+0x76>


	  while (i2cRead(MPU6050, 0x75, i2cData, 1));
    1d52:	21 e0       	ldi	r18, 0x01	; 1
    1d54:	44 e3       	ldi	r20, 0x34	; 52
    1d56:	53 e0       	ldi	r21, 0x03	; 3
    1d58:	65 e7       	ldi	r22, 0x75	; 117
    1d5a:	88 e6       	ldi	r24, 0x68	; 104
    1d5c:	3a d9       	rcall	.-3468   	; 0xfd2 <_Z7i2cReadhhPhh>
    1d5e:	81 11       	cpse	r24, r1
    1d60:	f8 cf       	rjmp	.-16     	; 0x1d52 <setup+0x84>
	  if (i2cData[0] != 0x68) { // Read "WHO_AM_I" register
    1d62:	80 91 34 03 	lds	r24, 0x0334
    1d66:	88 36       	cpi	r24, 0x68	; 104
    1d68:	39 f0       	breq	.+14     	; 0x1d78 <setup+0xaa>
		  Serial.print(F("Error reading sensor"));
    1d6a:	62 e5       	ldi	r22, 0x52	; 82
    1d6c:	71 e0       	ldi	r23, 0x01	; 1
    1d6e:	86 e3       	ldi	r24, 0x36	; 54
    1d70:	9a e1       	ldi	r25, 0x1A	; 26
    1d72:	0e 94 69 24 	call	0x48d2	; 0x48d2 <_ZN5Print5printEPK19__FlashStringHelper>
    1d76:	ff cf       	rjmp	.-2      	; 0x1d76 <setup+0xa8>
	  }

	  //enable i2c pass through to access magnetometer
	  //INT_PIN_CFG   -- INT_LEVEL=0 ; INT_OPEN=0 ; LATCH_INT_EN=0 ; INT_RD_CLEAR=0 ; FSYNC_INT_LEVEL=0 ; FSYNC_INT_EN=0 ; I2C_BYPASS_EN=1 ; CLKOUT_EN=0

	  while (i2cWrite(MPU6050, 0x37, 0x02, true));
    1d78:	21 e0       	ldi	r18, 0x01	; 1
    1d7a:	42 e0       	ldi	r20, 0x02	; 2
    1d7c:	67 e3       	ldi	r22, 0x37	; 55
    1d7e:	88 e6       	ldi	r24, 0x68	; 104
    1d80:	16 d9       	rcall	.-3540   	; 0xfae <_Z8i2cWritehhhb>
    1d82:	81 11       	cpse	r24, r1
    1d84:	f9 cf       	rjmp	.-14     	; 0x1d78 <setup+0xaa>

	  while (i2cWrite(HMC5883L, 0x02, 0x00, true)); // Configure device for continuous mode
    1d86:	21 e0       	ldi	r18, 0x01	; 1
    1d88:	40 e0       	ldi	r20, 0x00	; 0
    1d8a:	62 e0       	ldi	r22, 0x02	; 2
    1d8c:	8e e1       	ldi	r24, 0x1E	; 30
    1d8e:	0f d9       	rcall	.-3554   	; 0xfae <_Z8i2cWritehhhb>
    1d90:	81 11       	cpse	r24, r1
    1d92:	f9 cf       	rjmp	.-14     	; 0x1d86 <setup+0xb8>

	  calibrateMag();
    1d94:	83 da       	rcall	.-2810   	; 0x129c <_Z12calibrateMagv>

	  delay(100); // Wait for sensors to stabilize
    1d96:	64 e6       	ldi	r22, 0x64	; 100
    1d98:	70 e0       	ldi	r23, 0x00	; 0
    1d9a:	80 e0       	ldi	r24, 0x00	; 0
    1d9c:	90 e0       	ldi	r25, 0x00	; 0
    1d9e:	0e 94 0a 26 	call	0x4c14	; 0x4c14 <delay>

	  /* Set Kalman and gyro starting angle */
	  updateMPU6050();
    1da2:	8e d9       	rcall	.-3300   	; 0x10c0 <_Z13updateMPU6050v>
	  updateHMC5883L();
    1da4:	30 da       	rcall	.-2976   	; 0x1206 <_Z14updateHMC5883Lv>
	  updatePitchRoll();
    1da6:	0e 94 b0 03 	call	0x760	; 0x760 <_Z15updatePitchRollv>
	  updateYaw();
    1daa:	0e 94 1a 04 	call	0x834	; 0x834 <_Z9updateYawv>

	  kalmanX.setAngle(roll); // First set roll starting angle
    1dae:	80 91 72 03 	lds	r24, 0x0372
    1db2:	90 91 73 03 	lds	r25, 0x0373
    1db6:	a0 91 74 03 	lds	r26, 0x0374
    1dba:	b0 91 75 03 	lds	r27, 0x0375
    1dbe:	80 93 18 04 	sts	0x0418, r24
    1dc2:	90 93 19 04 	sts	0x0419, r25
    1dc6:	a0 93 1a 04 	sts	0x041A, r26
    1dca:	b0 93 1b 04 	sts	0x041B, r27
	  gyroXangle = roll;
    1dce:	80 93 66 03 	sts	0x0366, r24
    1dd2:	90 93 67 03 	sts	0x0367, r25
    1dd6:	a0 93 68 03 	sts	0x0368, r26
    1dda:	b0 93 69 03 	sts	0x0369, r27
	  compAngleX = roll;
    1dde:	80 93 5a 03 	sts	0x035A, r24
    1de2:	90 93 5b 03 	sts	0x035B, r25
    1de6:	a0 93 5c 03 	sts	0x035C, r26
    1dea:	b0 93 5d 03 	sts	0x035D, r27

	  kalmanY.setAngle(pitch); // Then pitch
    1dee:	80 91 6e 03 	lds	r24, 0x036E
    1df2:	90 91 6f 03 	lds	r25, 0x036F
    1df6:	a0 91 70 03 	lds	r26, 0x0370
    1dfa:	b0 91 71 03 	lds	r27, 0x0371
    1dfe:	80 93 e0 03 	sts	0x03E0, r24
    1e02:	90 93 e1 03 	sts	0x03E1, r25
    1e06:	a0 93 e2 03 	sts	0x03E2, r26
    1e0a:	b0 93 e3 03 	sts	0x03E3, r27
	  gyroYangle = pitch;
    1e0e:	80 93 62 03 	sts	0x0362, r24
    1e12:	90 93 63 03 	sts	0x0363, r25
    1e16:	a0 93 64 03 	sts	0x0364, r26
    1e1a:	b0 93 65 03 	sts	0x0365, r27
	  compAngleY = pitch;
    1e1e:	80 93 56 03 	sts	0x0356, r24
    1e22:	90 93 57 03 	sts	0x0357, r25
    1e26:	a0 93 58 03 	sts	0x0358, r26
    1e2a:	b0 93 59 03 	sts	0x0359, r27

	  kalmanZ.setAngle(yaw); // And finally yaw
    1e2e:	80 91 6a 03 	lds	r24, 0x036A
    1e32:	90 91 6b 03 	lds	r25, 0x036B
    1e36:	a0 91 6c 03 	lds	r26, 0x036C
    1e3a:	b0 91 6d 03 	lds	r27, 0x036D
    1e3e:	80 93 a8 03 	sts	0x03A8, r24
    1e42:	90 93 a9 03 	sts	0x03A9, r25
    1e46:	a0 93 aa 03 	sts	0x03AA, r26
    1e4a:	b0 93 ab 03 	sts	0x03AB, r27
	  gyroZangle = yaw;
    1e4e:	80 93 5e 03 	sts	0x035E, r24
    1e52:	90 93 5f 03 	sts	0x035F, r25
    1e56:	a0 93 60 03 	sts	0x0360, r26
    1e5a:	b0 93 61 03 	sts	0x0361, r27
	  compAngleZ = yaw;	
    1e5e:	80 93 52 03 	sts	0x0352, r24
    1e62:	90 93 53 03 	sts	0x0353, r25
    1e66:	a0 93 54 03 	sts	0x0354, r26
    1e6a:	b0 93 55 03 	sts	0x0355, r27
	  
	  
  timer = micros(); // Initialize the timer 
    1e6e:	0e 94 e4 25 	call	0x4bc8	; 0x4bc8 <micros>
    1e72:	60 93 42 03 	sts	0x0342, r22
    1e76:	70 93 43 03 	sts	0x0343, r23
    1e7a:	80 93 44 03 	sts	0x0344, r24
    1e7e:	90 93 45 03 	sts	0x0345, r25
  PingTimer = millis() + 100;
    1e82:	0e 94 d8 25 	call	0x4bb0	; 0x4bb0 <millis>
    1e86:	6c 59       	subi	r22, 0x9C	; 156
    1e88:	7f 4f       	sbci	r23, 0xFF	; 255
    1e8a:	8f 4f       	sbci	r24, 0xFF	; 255
    1e8c:	9f 4f       	sbci	r25, 0xFF	; 255
    1e8e:	60 93 46 04 	sts	0x0446, r22
    1e92:	70 93 47 04 	sts	0x0447, r23
    1e96:	80 93 48 04 	sts	0x0448, r24
    1e9a:	90 93 49 04 	sts	0x0449, r25
  count = 0;
  pinMode(motor1, HIGH);
    1e9e:	61 e0       	ldi	r22, 0x01	; 1
    1ea0:	80 91 14 02 	lds	r24, 0x0214
    1ea4:	0e 94 ff 26 	call	0x4dfe	; 0x4dfe <pinMode>
  pinMode(motor2, HIGH);
    1ea8:	61 e0       	ldi	r22, 0x01	; 1
    1eaa:	80 91 12 02 	lds	r24, 0x0212
   char readChar = Serial.read();
   break;
   }
  }*/

}
    1eae:	0f 91       	pop	r16
	  
  timer = micros(); // Initialize the timer 
  PingTimer = millis() + 100;
  count = 0;
  pinMode(motor1, HIGH);
  pinMode(motor2, HIGH);
    1eb0:	0c 94 ff 26 	jmp	0x4dfe	; 0x4dfe <pinMode>

00001eb4 <main>:
{
	//
}

int main(void)
{
    1eb4:	af 92       	push	r10
    1eb6:	bf 92       	push	r11
    1eb8:	cf 92       	push	r12
    1eba:	df 92       	push	r13
    1ebc:	ef 92       	push	r14
    1ebe:	ff 92       	push	r15
    1ec0:	0f 93       	push	r16
    1ec2:	cf 93       	push	r28
    1ec4:	df 93       	push	r29
    1ec6:	00 d0       	rcall	.+0      	; 0x1ec8 <main+0x14>
    1ec8:	1f 92       	push	r1
    1eca:	cd b7       	in	r28, 0x3d	; 61
    1ecc:	de b7       	in	r29, 0x3e	; 62
	
	init() ;
    1ece:	0e 94 3d 26 	call	0x4c7a	; 0x4c7a <init>
	
	//includes handshake
	setup() ;
    1ed2:	fd de       	rcall	.-518    	; 0x1cce <setup>
	
	TaskHandle_t t1, t2, t3 ; 
	
	//printing_semphr =  xSemaphoreCreateMutex() ;
	
	vSemaphoreCreateBinary(printing_semphr) ;
    1ed4:	43 e0       	ldi	r20, 0x03	; 3
    1ed6:	60 e0       	ldi	r22, 0x00	; 0
    1ed8:	81 e0       	ldi	r24, 0x01	; 1
    1eda:	6e d4       	rcall	.+2268   	; 0x27b8 <xQueueGenericCreate>
    1edc:	90 93 45 04 	sts	0x0445, r25
    1ee0:	80 93 44 04 	sts	0x0444, r24
    1ee4:	00 97       	sbiw	r24, 0x00	; 0
    1ee6:	31 f0       	breq	.+12     	; 0x1ef4 <main+0x40>
    1ee8:	20 e0       	ldi	r18, 0x00	; 0
    1eea:	40 e0       	ldi	r20, 0x00	; 0
    1eec:	50 e0       	ldi	r21, 0x00	; 0
    1eee:	60 e0       	ldi	r22, 0x00	; 0
    1ef0:	70 e0       	ldi	r23, 0x00	; 0
    1ef2:	89 d4       	rcall	.+2322   	; 0x2806 <xQueueGenericSend>
	
	xTaskCreate(task1, "UltraSonics", STACK_DEPTH, NULL, 1, &t1) ;
    1ef4:	a1 2c       	mov	r10, r1
    1ef6:	b1 2c       	mov	r11, r1
    1ef8:	c1 2c       	mov	r12, r1
    1efa:	d1 2c       	mov	r13, r1
    1efc:	ce 01       	movw	r24, r28
    1efe:	03 96       	adiw	r24, 0x03	; 3
    1f00:	7c 01       	movw	r14, r24
    1f02:	01 e0       	ldi	r16, 0x01	; 1
    1f04:	20 e0       	ldi	r18, 0x00	; 0
    1f06:	30 e0       	ldi	r19, 0x00	; 0
    1f08:	40 e0       	ldi	r20, 0x00	; 0
    1f0a:	52 e0       	ldi	r21, 0x02	; 2
    1f0c:	62 ef       	ldi	r22, 0xF2	; 242
    1f0e:	72 e0       	ldi	r23, 0x02	; 2
    1f10:	8e e0       	ldi	r24, 0x0E	; 14
    1f12:	96 e0       	ldi	r25, 0x06	; 6
    1f14:	fe d5       	rcall	.+3068   	; 0x2b12 <xTaskGenericCreate>
	
	xTaskCreate(task2, "IMU", STACK_DEPTH, NULL, 2, &t2) ;
    1f16:	ce 01       	movw	r24, r28
    1f18:	01 96       	adiw	r24, 0x01	; 1
    1f1a:	7c 01       	movw	r14, r24
    1f1c:	02 e0       	ldi	r16, 0x02	; 2
    1f1e:	20 e0       	ldi	r18, 0x00	; 0
    1f20:	30 e0       	ldi	r19, 0x00	; 0
    1f22:	40 e0       	ldi	r20, 0x00	; 0
    1f24:	52 e0       	ldi	r21, 0x02	; 2
    1f26:	6e ef       	ldi	r22, 0xFE	; 254
    1f28:	72 e0       	ldi	r23, 0x02	; 2
    1f2a:	83 e3       	ldi	r24, 0x33	; 51
    1f2c:	9a e0       	ldi	r25, 0x0A	; 10
    1f2e:	f1 d5       	rcall	.+3042   	; 0x2b12 <xTaskGenericCreate>
	
	vTaskStartScheduler() ;
    1f30:	dc d6       	rcall	.+3512   	; 0x2cea <vTaskStartScheduler>
	
	return 0 ;
	
}
    1f32:	80 e0       	ldi	r24, 0x00	; 0
    1f34:	90 e0       	ldi	r25, 0x00	; 0
    1f36:	0f 90       	pop	r0
    1f38:	0f 90       	pop	r0
    1f3a:	0f 90       	pop	r0
    1f3c:	0f 90       	pop	r0
    1f3e:	df 91       	pop	r29
    1f40:	cf 91       	pop	r28
    1f42:	0f 91       	pop	r16
    1f44:	ff 90       	pop	r15
    1f46:	ef 90       	pop	r14
    1f48:	df 90       	pop	r13
    1f4a:	cf 90       	pop	r12
    1f4c:	bf 90       	pop	r11
    1f4e:	af 90       	pop	r10
    1f50:	08 95       	ret

00001f52 <pvPortMalloc>:
static size_t xNextFreeByte = ( size_t ) 0;

/*-----------------------------------------------------------*/

void *pvPortMalloc( size_t xWantedSize )
{
    1f52:	cf 93       	push	r28
    1f54:	df 93       	push	r29
    1f56:	ec 01       	movw	r28, r24
			/* Byte alignment required. */
			xWantedSize += ( portBYTE_ALIGNMENT - ( xWantedSize & portBYTE_ALIGNMENT_MASK ) );
		}
	#endif

	vTaskSuspendAll();
    1f58:	f8 d6       	rcall	.+3568   	; 0x2d4a <vTaskSuspendAll>
	{
		if( pucAlignedHeap == NULL )
    1f5a:	80 91 a8 04 	lds	r24, 0x04A8
    1f5e:	90 91 a9 04 	lds	r25, 0x04A9
    1f62:	89 2b       	or	r24, r25
    1f64:	31 f4       	brne	.+12     	; 0x1f72 <pvPortMalloc+0x20>
		{
			/* Ensure the heap starts on a correctly aligned boundary. */
			pucAlignedHeap = ( uint8_t * ) ( ( ( portPOINTER_SIZE_TYPE ) &ucHeap[ portBYTE_ALIGNMENT ] ) & ( ( portPOINTER_SIZE_TYPE ) ~portBYTE_ALIGNMENT_MASK ) );
    1f66:	8d ea       	ldi	r24, 0xAD	; 173
    1f68:	94 e0       	ldi	r25, 0x04	; 4
    1f6a:	90 93 a9 04 	sts	0x04A9, r25
    1f6e:	80 93 a8 04 	sts	0x04A8, r24
		}

		/* Check there is enough room left for the allocation. */
		if( ( ( xNextFreeByte + xWantedSize ) < configADJUSTED_HEAP_SIZE ) &&
    1f72:	20 91 aa 04 	lds	r18, 0x04AA
    1f76:	30 91 ab 04 	lds	r19, 0x04AB
    1f7a:	ce 01       	movw	r24, r28
    1f7c:	82 0f       	add	r24, r18
    1f7e:	93 1f       	adc	r25, r19
    1f80:	8f 3f       	cpi	r24, 0xFF	; 255
    1f82:	43 e1       	ldi	r20, 0x13	; 19
    1f84:	94 07       	cpc	r25, r20
    1f86:	70 f4       	brcc	.+28     	; 0x1fa4 <pvPortMalloc+0x52>
    1f88:	28 17       	cp	r18, r24
    1f8a:	39 07       	cpc	r19, r25
    1f8c:	58 f4       	brcc	.+22     	; 0x1fa4 <pvPortMalloc+0x52>
			( ( xNextFreeByte + xWantedSize ) > xNextFreeByte )	)/* Check for overflow. */
		{
			/* Return the next free byte then increment the index past this
			block. */
			pvReturn = pucAlignedHeap + xNextFreeByte;
    1f8e:	c0 91 a8 04 	lds	r28, 0x04A8
    1f92:	d0 91 a9 04 	lds	r29, 0x04A9
    1f96:	c2 0f       	add	r28, r18
    1f98:	d3 1f       	adc	r29, r19
			xNextFreeByte += xWantedSize;
    1f9a:	90 93 ab 04 	sts	0x04AB, r25
    1f9e:	80 93 aa 04 	sts	0x04AA, r24
    1fa2:	02 c0       	rjmp	.+4      	; 0x1fa8 <pvPortMalloc+0x56>

/*-----------------------------------------------------------*/

void *pvPortMalloc( size_t xWantedSize )
{
void *pvReturn = NULL;
    1fa4:	c0 e0       	ldi	r28, 0x00	; 0
    1fa6:	d0 e0       	ldi	r29, 0x00	; 0
			xNextFreeByte += xWantedSize;
		}

		traceMALLOC( pvReturn, xWantedSize );
	}
	( void ) xTaskResumeAll();
    1fa8:	82 d7       	rcall	.+3844   	; 0x2eae <xTaskResumeAll>
		}
	}
	#endif

	return pvReturn;
}
    1faa:	ce 01       	movw	r24, r28
    1fac:	df 91       	pop	r29
    1fae:	cf 91       	pop	r28
    1fb0:	08 95       	ret

00001fb2 <vPortFree>:
/*-----------------------------------------------------------*/

void vPortFree( void *pv )
{
    1fb2:	08 95       	ret

00001fb4 <vListInitialise>:
/*-----------------------------------------------------------
 * PUBLIC LIST API documented in list.h
 *----------------------------------------------------------*/

void vListInitialise( List_t * const pxList )
{
    1fb4:	fc 01       	movw	r30, r24
	/* The list structure contains a list item which is used to mark the
	end of the list.  To initialise the list the list end is inserted
	as the only list entry. */
	pxList->pxIndex = ( ListItem_t * ) &( pxList->xListEnd );			/*lint !e826 !e740 The mini list structure is used as the list end to save RAM.  This is checked and valid. */
    1fb6:	03 96       	adiw	r24, 0x03	; 3
    1fb8:	92 83       	std	Z+2, r25	; 0x02
    1fba:	81 83       	std	Z+1, r24	; 0x01

	/* The list end value is the highest possible value in the list to
	ensure it remains at the end of the list. */
	pxList->xListEnd.xItemValue = portMAX_DELAY;
    1fbc:	2f ef       	ldi	r18, 0xFF	; 255
    1fbe:	3f ef       	ldi	r19, 0xFF	; 255
    1fc0:	34 83       	std	Z+4, r19	; 0x04
    1fc2:	23 83       	std	Z+3, r18	; 0x03

	/* The list end next and previous pointers point to itself so we know
	when the list is empty. */
	pxList->xListEnd.pxNext = ( ListItem_t * ) &( pxList->xListEnd );	/*lint !e826 !e740 The mini list structure is used as the list end to save RAM.  This is checked and valid. */
    1fc4:	96 83       	std	Z+6, r25	; 0x06
    1fc6:	85 83       	std	Z+5, r24	; 0x05
	pxList->xListEnd.pxPrevious = ( ListItem_t * ) &( pxList->xListEnd );/*lint !e826 !e740 The mini list structure is used as the list end to save RAM.  This is checked and valid. */
    1fc8:	90 87       	std	Z+8, r25	; 0x08
    1fca:	87 83       	std	Z+7, r24	; 0x07

	pxList->uxNumberOfItems = ( UBaseType_t ) 0U;
    1fcc:	10 82       	st	Z, r1
    1fce:	08 95       	ret

00001fd0 <vListInitialiseItem>:
/*-----------------------------------------------------------*/

void vListInitialiseItem( ListItem_t * const pxItem )
{
	/* Make sure the list item is not recorded as being on a list. */
	pxItem->pvContainer = NULL;
    1fd0:	fc 01       	movw	r30, r24
    1fd2:	11 86       	std	Z+9, r1	; 0x09
    1fd4:	10 86       	std	Z+8, r1	; 0x08
    1fd6:	08 95       	ret

00001fd8 <vListInsertEnd>:
}
/*-----------------------------------------------------------*/

void vListInsertEnd( List_t * const pxList, ListItem_t * const pxNewListItem )
{
    1fd8:	cf 93       	push	r28
    1fda:	df 93       	push	r29
    1fdc:	9c 01       	movw	r18, r24
    1fde:	fb 01       	movw	r30, r22
ListItem_t * const pxIndex = pxList->pxIndex;
    1fe0:	dc 01       	movw	r26, r24
    1fe2:	11 96       	adiw	r26, 0x01	; 1
    1fe4:	cd 91       	ld	r28, X+
    1fe6:	dc 91       	ld	r29, X
    1fe8:	12 97       	sbiw	r26, 0x02	; 2

	/* Insert a new list item into pxList, but rather than sort the list,
	makes the new list item the last item to be removed by a call to
	listGET_OWNER_OF_NEXT_ENTRY(). */
	pxNewListItem->pxNext = pxIndex;
    1fea:	d3 83       	std	Z+3, r29	; 0x03
    1fec:	c2 83       	std	Z+2, r28	; 0x02
	pxNewListItem->pxPrevious = pxIndex->pxPrevious;
    1fee:	8c 81       	ldd	r24, Y+4	; 0x04
    1ff0:	9d 81       	ldd	r25, Y+5	; 0x05
    1ff2:	95 83       	std	Z+5, r25	; 0x05
    1ff4:	84 83       	std	Z+4, r24	; 0x04
	pxIndex->pxPrevious->pxNext = pxNewListItem;
    1ff6:	8c 81       	ldd	r24, Y+4	; 0x04
    1ff8:	9d 81       	ldd	r25, Y+5	; 0x05
    1ffa:	dc 01       	movw	r26, r24
    1ffc:	13 96       	adiw	r26, 0x03	; 3
    1ffe:	7c 93       	st	X, r23
    2000:	6e 93       	st	-X, r22
    2002:	12 97       	sbiw	r26, 0x02	; 2
	pxIndex->pxPrevious = pxNewListItem;
    2004:	7d 83       	std	Y+5, r23	; 0x05
    2006:	6c 83       	std	Y+4, r22	; 0x04

	/* Remember which list the item is in. */
	pxNewListItem->pvContainer = ( void * ) pxList;
    2008:	31 87       	std	Z+9, r19	; 0x09
    200a:	20 87       	std	Z+8, r18	; 0x08

	( pxList->uxNumberOfItems )++;
    200c:	f9 01       	movw	r30, r18
    200e:	80 81       	ld	r24, Z
    2010:	8f 5f       	subi	r24, 0xFF	; 255
    2012:	80 83       	st	Z, r24
}
    2014:	df 91       	pop	r29
    2016:	cf 91       	pop	r28
    2018:	08 95       	ret

0000201a <vListInsert>:
/*-----------------------------------------------------------*/

void vListInsert( List_t * const pxList, ListItem_t * const pxNewListItem )
{
    201a:	0f 93       	push	r16
    201c:	1f 93       	push	r17
    201e:	cf 93       	push	r28
    2020:	df 93       	push	r29
    2022:	8c 01       	movw	r16, r24
    2024:	fb 01       	movw	r30, r22
ListItem_t *pxIterator;
const TickType_t xValueOfInsertion = pxNewListItem->xItemValue;
    2026:	20 81       	ld	r18, Z
    2028:	31 81       	ldd	r19, Z+1	; 0x01
	are stored in ready lists (all of which have the same xItemValue value)
	get an equal share of the CPU.  However, if the xItemValue is the same as
	the back marker the iteration loop below will not end.  This means we need
	to guard against this by checking the value first and modifying the
	algorithm slightly if necessary. */
	if( xValueOfInsertion == portMAX_DELAY )
    202a:	2f 3f       	cpi	r18, 0xFF	; 255
    202c:	8f ef       	ldi	r24, 0xFF	; 255
    202e:	38 07       	cpc	r19, r24
    2030:	21 f4       	brne	.+8      	; 0x203a <vListInsert+0x20>
	{
		pxIterator = pxList->xListEnd.pxPrevious;
    2032:	e8 01       	movw	r28, r16
    2034:	af 81       	ldd	r26, Y+7	; 0x07
    2036:	b8 85       	ldd	r27, Y+8	; 0x08
    2038:	0e c0       	rjmp	.+28     	; 0x2056 <vListInsert+0x3c>
			   before vTaskStartScheduler() has been called?).
		See http://www.freertos.org/FAQHelp.html for more tips, and ensure
		configASSERT() is defined!  http://www.freertos.org/a00110.html#configASSERT
		**********************************************************************/

		for( pxIterator = ( ListItem_t * ) &( pxList->xListEnd ); pxIterator->pxNext->xItemValue <= xValueOfInsertion; pxIterator = pxIterator->pxNext ) /*lint !e826 !e740 The mini list structure is used as the list end to save RAM.  This is checked and valid. */
    203a:	d8 01       	movw	r26, r16
    203c:	13 96       	adiw	r26, 0x03	; 3
    203e:	12 96       	adiw	r26, 0x02	; 2
    2040:	8d 91       	ld	r24, X+
    2042:	9c 91       	ld	r25, X
    2044:	13 97       	sbiw	r26, 0x03	; 3
    2046:	ec 01       	movw	r28, r24
    2048:	48 81       	ld	r20, Y
    204a:	59 81       	ldd	r21, Y+1	; 0x01
    204c:	24 17       	cp	r18, r20
    204e:	35 07       	cpc	r19, r21
    2050:	10 f0       	brcs	.+4      	; 0x2056 <vListInsert+0x3c>
    2052:	dc 01       	movw	r26, r24
    2054:	f4 cf       	rjmp	.-24     	; 0x203e <vListInsert+0x24>
			/* There is nothing to do here, we are just iterating to the
			wanted insertion position. */
		}
	}

	pxNewListItem->pxNext = pxIterator->pxNext;
    2056:	12 96       	adiw	r26, 0x02	; 2
    2058:	8d 91       	ld	r24, X+
    205a:	9c 91       	ld	r25, X
    205c:	13 97       	sbiw	r26, 0x03	; 3
    205e:	93 83       	std	Z+3, r25	; 0x03
    2060:	82 83       	std	Z+2, r24	; 0x02
	pxNewListItem->pxNext->pxPrevious = pxNewListItem;
    2062:	ec 01       	movw	r28, r24
    2064:	fd 83       	std	Y+5, r31	; 0x05
    2066:	ec 83       	std	Y+4, r30	; 0x04
	pxNewListItem->pxPrevious = pxIterator;
    2068:	b5 83       	std	Z+5, r27	; 0x05
    206a:	a4 83       	std	Z+4, r26	; 0x04
	pxIterator->pxNext = pxNewListItem;
    206c:	13 96       	adiw	r26, 0x03	; 3
    206e:	fc 93       	st	X, r31
    2070:	ee 93       	st	-X, r30
    2072:	12 97       	sbiw	r26, 0x02	; 2

	/* Remember which list the item is in.  This allows fast removal of the
	item later. */
	pxNewListItem->pvContainer = ( void * ) pxList;
    2074:	11 87       	std	Z+9, r17	; 0x09
    2076:	00 87       	std	Z+8, r16	; 0x08

	( pxList->uxNumberOfItems )++;
    2078:	f8 01       	movw	r30, r16
    207a:	80 81       	ld	r24, Z
    207c:	8f 5f       	subi	r24, 0xFF	; 255
    207e:	80 83       	st	Z, r24
}
    2080:	df 91       	pop	r29
    2082:	cf 91       	pop	r28
    2084:	1f 91       	pop	r17
    2086:	0f 91       	pop	r16
    2088:	08 95       	ret

0000208a <uxListRemove>:
/*-----------------------------------------------------------*/

UBaseType_t uxListRemove( ListItem_t * const pxItemToRemove )
{
    208a:	cf 93       	push	r28
    208c:	df 93       	push	r29
    208e:	fc 01       	movw	r30, r24
/* The list item knows which list it is in.  Obtain the list from the list
item. */
List_t * const pxList = ( List_t * ) pxItemToRemove->pvContainer;
    2090:	a0 85       	ldd	r26, Z+8	; 0x08
    2092:	b1 85       	ldd	r27, Z+9	; 0x09

	pxItemToRemove->pxNext->pxPrevious = pxItemToRemove->pxPrevious;
    2094:	82 81       	ldd	r24, Z+2	; 0x02
    2096:	93 81       	ldd	r25, Z+3	; 0x03
    2098:	24 81       	ldd	r18, Z+4	; 0x04
    209a:	35 81       	ldd	r19, Z+5	; 0x05
    209c:	ec 01       	movw	r28, r24
    209e:	3d 83       	std	Y+5, r19	; 0x05
    20a0:	2c 83       	std	Y+4, r18	; 0x04
	pxItemToRemove->pxPrevious->pxNext = pxItemToRemove->pxNext;
    20a2:	c4 81       	ldd	r28, Z+4	; 0x04
    20a4:	d5 81       	ldd	r29, Z+5	; 0x05
    20a6:	9b 83       	std	Y+3, r25	; 0x03
    20a8:	8a 83       	std	Y+2, r24	; 0x02

	/* Make sure the index is left pointing to a valid item. */
	if( pxList->pxIndex == pxItemToRemove )
    20aa:	11 96       	adiw	r26, 0x01	; 1
    20ac:	8d 91       	ld	r24, X+
    20ae:	9c 91       	ld	r25, X
    20b0:	12 97       	sbiw	r26, 0x02	; 2
    20b2:	8e 17       	cp	r24, r30
    20b4:	9f 07       	cpc	r25, r31
    20b6:	21 f4       	brne	.+8      	; 0x20c0 <uxListRemove+0x36>
	{
		pxList->pxIndex = pxItemToRemove->pxPrevious;
    20b8:	12 96       	adiw	r26, 0x02	; 2
    20ba:	dc 93       	st	X, r29
    20bc:	ce 93       	st	-X, r28
    20be:	11 97       	sbiw	r26, 0x01	; 1
	else
	{
		mtCOVERAGE_TEST_MARKER();
	}

	pxItemToRemove->pvContainer = NULL;
    20c0:	11 86       	std	Z+9, r1	; 0x09
    20c2:	10 86       	std	Z+8, r1	; 0x08
	( pxList->uxNumberOfItems )--;
    20c4:	8c 91       	ld	r24, X
    20c6:	81 50       	subi	r24, 0x01	; 1
    20c8:	8c 93       	st	X, r24

	return pxList->uxNumberOfItems;
}
    20ca:	df 91       	pop	r29
    20cc:	cf 91       	pop	r28
    20ce:	08 95       	ret

000020d0 <_ZN7NewPingC1Ehhi>:
	TIMSK4 = (1<<TOIE4); // Enable Timer4 interrupt.
#else
	OCR2A = 249;           // Every count is 4uS, so 1ms = 250 counts - 1.
	TIMSK2 |= (1<<OCIE2A); // Enable Timer2 interrupt.
#endif
}
    20d0:	cf 93       	push	r28
    20d2:	df 93       	push	r29
    20d4:	dc 01       	movw	r26, r24
    20d6:	70 e0       	ldi	r23, 0x00	; 0
    20d8:	fb 01       	movw	r30, r22
    20da:	e0 52       	subi	r30, 0x20	; 32
    20dc:	fe 4f       	sbci	r31, 0xFE	; 254
    20de:	e4 91       	lpm	r30, Z
    20e0:	14 96       	adiw	r26, 0x04	; 4
    20e2:	ec 93       	st	X, r30
    20e4:	14 97       	sbiw	r26, 0x04	; 4
    20e6:	84 2f       	mov	r24, r20
    20e8:	90 e0       	ldi	r25, 0x00	; 0
    20ea:	fc 01       	movw	r30, r24
    20ec:	e0 52       	subi	r30, 0x20	; 32
    20ee:	fe 4f       	sbci	r31, 0xFE	; 254
    20f0:	e4 91       	lpm	r30, Z
    20f2:	15 96       	adiw	r26, 0x05	; 5
    20f4:	ec 93       	st	X, r30
    20f6:	15 97       	sbiw	r26, 0x05	; 5
    20f8:	6a 5d       	subi	r22, 0xDA	; 218
    20fa:	7d 4f       	sbci	r23, 0xFD	; 253
    20fc:	fb 01       	movw	r30, r22
    20fe:	c4 91       	lpm	r28, Z
    2100:	d0 e0       	ldi	r29, 0x00	; 0
    2102:	cc 0f       	add	r28, r28
    2104:	dd 1f       	adc	r29, r29
    2106:	ca 57       	subi	r28, 0x7A	; 122
    2108:	dd 4f       	sbci	r29, 0xFD	; 253
    210a:	fe 01       	movw	r30, r28
    210c:	45 91       	lpm	r20, Z+
    210e:	54 91       	lpm	r21, Z
    2110:	17 96       	adiw	r26, 0x07	; 7
    2112:	5c 93       	st	X, r21
    2114:	4e 93       	st	-X, r20
    2116:	16 97       	sbiw	r26, 0x06	; 6
    2118:	fc 01       	movw	r30, r24
    211a:	ea 5d       	subi	r30, 0xDA	; 218
    211c:	fd 4f       	sbci	r31, 0xFD	; 253
    211e:	84 91       	lpm	r24, Z
    2120:	90 e0       	ldi	r25, 0x00	; 0
    2122:	88 0f       	add	r24, r24
    2124:	99 1f       	adc	r25, r25
    2126:	84 59       	subi	r24, 0x94	; 148
    2128:	9d 4f       	sbci	r25, 0xFD	; 253
    212a:	fc 01       	movw	r30, r24
    212c:	45 91       	lpm	r20, Z+
    212e:	54 91       	lpm	r21, Z
    2130:	1b 96       	adiw	r26, 0x0b	; 11
    2132:	5c 93       	st	X, r21
    2134:	4e 93       	st	-X, r20
    2136:	1a 97       	sbiw	r26, 0x0a	; 10
    2138:	fb 01       	movw	r30, r22
    213a:	64 91       	lpm	r22, Z
    213c:	e6 2f       	mov	r30, r22
    213e:	f0 e0       	ldi	r31, 0x00	; 0
    2140:	ee 0f       	add	r30, r30
    2142:	ff 1f       	adc	r31, r31
    2144:	e0 56       	subi	r30, 0x60	; 96
    2146:	fd 4f       	sbci	r31, 0xFD	; 253
    2148:	85 91       	lpm	r24, Z+
    214a:	94 91       	lpm	r25, Z
    214c:	19 96       	adiw	r26, 0x09	; 9
    214e:	9c 93       	st	X, r25
    2150:	8e 93       	st	-X, r24
    2152:	18 97       	sbiw	r26, 0x08	; 8
    2154:	c9 01       	movw	r24, r18
    2156:	25 3f       	cpi	r18, 0xF5	; 245
    2158:	f1 e0       	ldi	r31, 0x01	; 1
    215a:	3f 07       	cpc	r19, r31
    215c:	14 f0       	brlt	.+4      	; 0x2162 <_ZN7NewPingC1Ehhi+0x92>
    215e:	84 ef       	ldi	r24, 0xF4	; 244
    2160:	91 e0       	ldi	r25, 0x01	; 1
    2162:	49 e3       	ldi	r20, 0x39	; 57
    2164:	48 9f       	mul	r20, r24
    2166:	90 01       	movw	r18, r0
    2168:	49 9f       	mul	r20, r25
    216a:	30 0d       	add	r19, r0
    216c:	11 24       	eor	r1, r1
    216e:	24 5e       	subi	r18, 0xE4	; 228
    2170:	3f 4f       	sbci	r19, 0xFF	; 255
    2172:	1d 96       	adiw	r26, 0x0d	; 13
    2174:	3c 93       	st	X, r19
    2176:	2e 93       	st	-X, r18
    2178:	1c 97       	sbiw	r26, 0x0c	; 12
    217a:	df 91       	pop	r29
    217c:	cf 91       	pop	r28
    217e:	08 95       	ret

00002180 <_ZN7NewPing12ping_triggerEv>:
    2180:	0f 93       	push	r16
    2182:	1f 93       	push	r17
    2184:	cf 93       	push	r28
    2186:	df 93       	push	r29
    2188:	ec 01       	movw	r28, r24
    218a:	e8 85       	ldd	r30, Y+8	; 0x08
    218c:	f9 85       	ldd	r31, Y+9	; 0x09
    218e:	80 81       	ld	r24, Z
    2190:	9c 81       	ldd	r25, Y+4	; 0x04
    2192:	89 2b       	or	r24, r25
    2194:	80 83       	st	Z, r24
    2196:	ee 81       	ldd	r30, Y+6	; 0x06
    2198:	ff 81       	ldd	r31, Y+7	; 0x07
    219a:	90 81       	ld	r25, Z
    219c:	8c 81       	ldd	r24, Y+4	; 0x04
    219e:	80 95       	com	r24
    21a0:	89 23       	and	r24, r25
    21a2:	80 83       	st	Z, r24
    21a4:	84 e0       	ldi	r24, 0x04	; 4
    21a6:	90 e0       	ldi	r25, 0x00	; 0
    21a8:	0e 94 32 26 	call	0x4c64	; 0x4c64 <delayMicroseconds>
    21ac:	ee 81       	ldd	r30, Y+6	; 0x06
    21ae:	ff 81       	ldd	r31, Y+7	; 0x07
    21b0:	80 81       	ld	r24, Z
    21b2:	9c 81       	ldd	r25, Y+4	; 0x04
    21b4:	89 2b       	or	r24, r25
    21b6:	80 83       	st	Z, r24
    21b8:	8a e0       	ldi	r24, 0x0A	; 10
    21ba:	90 e0       	ldi	r25, 0x00	; 0
    21bc:	0e 94 32 26 	call	0x4c64	; 0x4c64 <delayMicroseconds>
    21c0:	ee 81       	ldd	r30, Y+6	; 0x06
    21c2:	ff 81       	ldd	r31, Y+7	; 0x07
    21c4:	90 81       	ld	r25, Z
    21c6:	8c 81       	ldd	r24, Y+4	; 0x04
    21c8:	80 95       	com	r24
    21ca:	89 23       	and	r24, r25
    21cc:	80 83       	st	Z, r24
    21ce:	e8 85       	ldd	r30, Y+8	; 0x08
    21d0:	f9 85       	ldd	r31, Y+9	; 0x09
    21d2:	90 81       	ld	r25, Z
    21d4:	8c 81       	ldd	r24, Y+4	; 0x04
    21d6:	80 95       	com	r24
    21d8:	89 23       	and	r24, r25
    21da:	80 83       	st	Z, r24
    21dc:	0e 94 e4 25 	call	0x4bc8	; 0x4bc8 <micros>
    21e0:	60 5b       	subi	r22, 0xB0	; 176
    21e2:	79 4b       	sbci	r23, 0xB9	; 185
    21e4:	8f 4f       	sbci	r24, 0xFF	; 255
    21e6:	9f 4f       	sbci	r25, 0xFF	; 255
    21e8:	6e 87       	std	Y+14, r22	; 0x0e
    21ea:	7f 87       	std	Y+15, r23	; 0x0f
    21ec:	88 8b       	std	Y+16, r24	; 0x10
    21ee:	99 8b       	std	Y+17, r25	; 0x11
    21f0:	ea 85       	ldd	r30, Y+10	; 0x0a
    21f2:	fb 85       	ldd	r31, Y+11	; 0x0b
    21f4:	80 81       	ld	r24, Z
    21f6:	9d 81       	ldd	r25, Y+5	; 0x05
    21f8:	89 23       	and	r24, r25
    21fa:	59 f0       	breq	.+22     	; 0x2212 <__stack+0x13>
    21fc:	0e 94 e4 25 	call	0x4bc8	; 0x4bc8 <micros>
    2200:	0e 85       	ldd	r16, Y+14	; 0x0e
    2202:	1f 85       	ldd	r17, Y+15	; 0x0f
    2204:	28 89       	ldd	r18, Y+16	; 0x10
    2206:	39 89       	ldd	r19, Y+17	; 0x11
    2208:	06 17       	cp	r16, r22
    220a:	17 07       	cpc	r17, r23
    220c:	28 07       	cpc	r18, r24
    220e:	39 07       	cpc	r19, r25
    2210:	78 f7       	brcc	.-34     	; 0x21f0 <_ZN7NewPing12ping_triggerEv+0x70>
    2212:	ea 85       	ldd	r30, Y+10	; 0x0a
    2214:	fb 85       	ldd	r31, Y+11	; 0x0b
    2216:	80 81       	ld	r24, Z
    2218:	9d 81       	ldd	r25, Y+5	; 0x05
    221a:	89 23       	and	r24, r25
    221c:	69 f4       	brne	.+26     	; 0x2238 <__stack+0x39>
    221e:	0e 94 e4 25 	call	0x4bc8	; 0x4bc8 <micros>
    2222:	0e 85       	ldd	r16, Y+14	; 0x0e
    2224:	1f 85       	ldd	r17, Y+15	; 0x0f
    2226:	28 89       	ldd	r18, Y+16	; 0x10
    2228:	39 89       	ldd	r19, Y+17	; 0x11
    222a:	06 17       	cp	r16, r22
    222c:	17 07       	cpc	r17, r23
    222e:	28 07       	cpc	r18, r24
    2230:	39 07       	cpc	r19, r25
    2232:	78 f7       	brcc	.-34     	; 0x2212 <__stack+0x13>
    2234:	80 e0       	ldi	r24, 0x00	; 0
    2236:	0d c0       	rjmp	.+26     	; 0x2252 <__stack+0x53>
    2238:	0e 94 e4 25 	call	0x4bc8	; 0x4bc8 <micros>
    223c:	2c 85       	ldd	r18, Y+12	; 0x0c
    223e:	3d 85       	ldd	r19, Y+13	; 0x0d
    2240:	62 0f       	add	r22, r18
    2242:	73 1f       	adc	r23, r19
    2244:	81 1d       	adc	r24, r1
    2246:	91 1d       	adc	r25, r1
    2248:	6e 87       	std	Y+14, r22	; 0x0e
    224a:	7f 87       	std	Y+15, r23	; 0x0f
    224c:	88 8b       	std	Y+16, r24	; 0x10
    224e:	99 8b       	std	Y+17, r25	; 0x11
    2250:	81 e0       	ldi	r24, 0x01	; 1
    2252:	df 91       	pop	r29
    2254:	cf 91       	pop	r28
    2256:	1f 91       	pop	r17
    2258:	0f 91       	pop	r16
    225a:	08 95       	ret

0000225c <_ZN7NewPing4pingEv>:
    225c:	0f 93       	push	r16
    225e:	1f 93       	push	r17
    2260:	cf 93       	push	r28
    2262:	df 93       	push	r29
    2264:	ec 01       	movw	r28, r24
    2266:	8c df       	rcall	.-232    	; 0x2180 <_ZN7NewPing12ping_triggerEv>
    2268:	88 23       	and	r24, r24
    226a:	89 f0       	breq	.+34     	; 0x228e <_ZN7NewPing4pingEv+0x32>
    226c:	ea 85       	ldd	r30, Y+10	; 0x0a
    226e:	fb 85       	ldd	r31, Y+11	; 0x0b
    2270:	80 81       	ld	r24, Z
    2272:	9d 81       	ldd	r25, Y+5	; 0x05
    2274:	89 23       	and	r24, r25
    2276:	71 f0       	breq	.+28     	; 0x2294 <_ZN7NewPing4pingEv+0x38>
    2278:	0e 94 e4 25 	call	0x4bc8	; 0x4bc8 <micros>
    227c:	0e 85       	ldd	r16, Y+14	; 0x0e
    227e:	1f 85       	ldd	r17, Y+15	; 0x0f
    2280:	28 89       	ldd	r18, Y+16	; 0x10
    2282:	39 89       	ldd	r19, Y+17	; 0x11
    2284:	06 17       	cp	r16, r22
    2286:	17 07       	cpc	r17, r23
    2288:	28 07       	cpc	r18, r24
    228a:	39 07       	cpc	r19, r25
    228c:	78 f7       	brcc	.-34     	; 0x226c <_ZN7NewPing4pingEv+0x10>
    228e:	20 e0       	ldi	r18, 0x00	; 0
    2290:	30 e0       	ldi	r19, 0x00	; 0
    2292:	0c c0       	rjmp	.+24     	; 0x22ac <_ZN7NewPing4pingEv+0x50>
    2294:	0e 94 e4 25 	call	0x4bc8	; 0x4bc8 <micros>
    2298:	2c 85       	ldd	r18, Y+12	; 0x0c
    229a:	3d 85       	ldd	r19, Y+13	; 0x0d
    229c:	25 50       	subi	r18, 0x05	; 5
    229e:	31 09       	sbc	r19, r1
    22a0:	4e 85       	ldd	r20, Y+14	; 0x0e
    22a2:	5f 85       	ldd	r21, Y+15	; 0x0f
    22a4:	24 1b       	sub	r18, r20
    22a6:	35 0b       	sbc	r19, r21
    22a8:	26 0f       	add	r18, r22
    22aa:	37 1f       	adc	r19, r23
    22ac:	c9 01       	movw	r24, r18
    22ae:	df 91       	pop	r29
    22b0:	cf 91       	pop	r28
    22b2:	1f 91       	pop	r17
    22b4:	0f 91       	pop	r16
    22b6:	08 95       	ret

000022b8 <__vector_13>:


#if defined (__AVR_ATmega32U4__) // Use Timer4 for ATmega32U4 (Teensy/Leonardo).
ISR(TIMER4_OVF_vect) {
#else
ISR(TIMER2_COMPA_vect) {
    22b8:	1f 92       	push	r1
    22ba:	0f 92       	push	r0
    22bc:	0f b6       	in	r0, 0x3f	; 63
    22be:	0f 92       	push	r0
    22c0:	11 24       	eor	r1, r1
    22c2:	0b b6       	in	r0, 0x3b	; 59
    22c4:	0f 92       	push	r0
    22c6:	2f 93       	push	r18
    22c8:	3f 93       	push	r19
    22ca:	4f 93       	push	r20
    22cc:	5f 93       	push	r21
    22ce:	6f 93       	push	r22
    22d0:	7f 93       	push	r23
    22d2:	8f 93       	push	r24
    22d4:	9f 93       	push	r25
    22d6:	af 93       	push	r26
    22d8:	bf 93       	push	r27
    22da:	ef 93       	push	r30
    22dc:	ff 93       	push	r31
#endif
	if(intFunc) intFunc(); // If wrapped function is set, call it.
    22de:	e0 91 ac 18 	lds	r30, 0x18AC
    22e2:	f0 91 ad 18 	lds	r31, 0x18AD
    22e6:	30 97       	sbiw	r30, 0x00	; 0
    22e8:	09 f0       	breq	.+2      	; 0x22ec <__vector_13+0x34>
    22ea:	19 95       	eicall
}
    22ec:	ff 91       	pop	r31
    22ee:	ef 91       	pop	r30
    22f0:	bf 91       	pop	r27
    22f2:	af 91       	pop	r26
    22f4:	9f 91       	pop	r25
    22f6:	8f 91       	pop	r24
    22f8:	7f 91       	pop	r23
    22fa:	6f 91       	pop	r22
    22fc:	5f 91       	pop	r21
    22fe:	4f 91       	pop	r20
    2300:	3f 91       	pop	r19
    2302:	2f 91       	pop	r18
    2304:	0f 90       	pop	r0
    2306:	0b be       	out	0x3b, r0	; 59
    2308:	0f 90       	pop	r0
    230a:	0f be       	out	0x3f, r0	; 63
    230c:	0f 90       	pop	r0
    230e:	1f 90       	pop	r1
    2310:	18 95       	reti

00002312 <pxPortInitialiseStack>:
	return pdTRUE;
}
/*-----------------------------------------------------------*/

void vPortEndScheduler( void )
{
    2312:	31 e1       	ldi	r19, 0x11	; 17
    2314:	fc 01       	movw	r30, r24
    2316:	30 83       	st	Z, r19
    2318:	31 97       	sbiw	r30, 0x01	; 1
    231a:	22 e2       	ldi	r18, 0x22	; 34
    231c:	20 83       	st	Z, r18
    231e:	31 97       	sbiw	r30, 0x01	; 1
    2320:	a3 e3       	ldi	r26, 0x33	; 51
    2322:	a0 83       	st	Z, r26
    2324:	31 97       	sbiw	r30, 0x01	; 1
    2326:	60 83       	st	Z, r22
    2328:	31 97       	sbiw	r30, 0x01	; 1
    232a:	70 83       	st	Z, r23
    232c:	31 97       	sbiw	r30, 0x01	; 1
    232e:	10 82       	st	Z, r1
    2330:	31 97       	sbiw	r30, 0x01	; 1
    2332:	10 82       	st	Z, r1
    2334:	31 97       	sbiw	r30, 0x01	; 1
    2336:	60 e8       	ldi	r22, 0x80	; 128
    2338:	60 83       	st	Z, r22
    233a:	31 97       	sbiw	r30, 0x01	; 1
    233c:	10 82       	st	Z, r1
    233e:	31 97       	sbiw	r30, 0x01	; 1
    2340:	10 82       	st	Z, r1
    2342:	31 97       	sbiw	r30, 0x01	; 1
    2344:	10 82       	st	Z, r1
    2346:	31 97       	sbiw	r30, 0x01	; 1
    2348:	62 e0       	ldi	r22, 0x02	; 2
    234a:	60 83       	st	Z, r22
    234c:	31 97       	sbiw	r30, 0x01	; 1
    234e:	63 e0       	ldi	r22, 0x03	; 3
    2350:	60 83       	st	Z, r22
    2352:	31 97       	sbiw	r30, 0x01	; 1
    2354:	64 e0       	ldi	r22, 0x04	; 4
    2356:	60 83       	st	Z, r22
    2358:	31 97       	sbiw	r30, 0x01	; 1
    235a:	65 e0       	ldi	r22, 0x05	; 5
    235c:	60 83       	st	Z, r22
    235e:	31 97       	sbiw	r30, 0x01	; 1
    2360:	66 e0       	ldi	r22, 0x06	; 6
    2362:	60 83       	st	Z, r22
    2364:	31 97       	sbiw	r30, 0x01	; 1
    2366:	67 e0       	ldi	r22, 0x07	; 7
    2368:	60 83       	st	Z, r22
    236a:	31 97       	sbiw	r30, 0x01	; 1
    236c:	68 e0       	ldi	r22, 0x08	; 8
    236e:	60 83       	st	Z, r22
    2370:	31 97       	sbiw	r30, 0x01	; 1
    2372:	69 e0       	ldi	r22, 0x09	; 9
    2374:	60 83       	st	Z, r22
    2376:	31 97       	sbiw	r30, 0x01	; 1
    2378:	60 e1       	ldi	r22, 0x10	; 16
    237a:	60 83       	st	Z, r22
    237c:	31 97       	sbiw	r30, 0x01	; 1
    237e:	30 83       	st	Z, r19
    2380:	31 97       	sbiw	r30, 0x01	; 1
    2382:	32 e1       	ldi	r19, 0x12	; 18
    2384:	30 83       	st	Z, r19
    2386:	31 97       	sbiw	r30, 0x01	; 1
    2388:	33 e1       	ldi	r19, 0x13	; 19
    238a:	30 83       	st	Z, r19
    238c:	31 97       	sbiw	r30, 0x01	; 1
    238e:	34 e1       	ldi	r19, 0x14	; 20
    2390:	30 83       	st	Z, r19
    2392:	31 97       	sbiw	r30, 0x01	; 1
    2394:	35 e1       	ldi	r19, 0x15	; 21
    2396:	30 83       	st	Z, r19
    2398:	31 97       	sbiw	r30, 0x01	; 1
    239a:	36 e1       	ldi	r19, 0x16	; 22
    239c:	30 83       	st	Z, r19
    239e:	31 97       	sbiw	r30, 0x01	; 1
    23a0:	37 e1       	ldi	r19, 0x17	; 23
    23a2:	30 83       	st	Z, r19
    23a4:	31 97       	sbiw	r30, 0x01	; 1
    23a6:	38 e1       	ldi	r19, 0x18	; 24
    23a8:	30 83       	st	Z, r19
    23aa:	31 97       	sbiw	r30, 0x01	; 1
    23ac:	39 e1       	ldi	r19, 0x19	; 25
    23ae:	30 83       	st	Z, r19
    23b0:	31 97       	sbiw	r30, 0x01	; 1
    23b2:	30 e2       	ldi	r19, 0x20	; 32
    23b4:	30 83       	st	Z, r19
    23b6:	31 97       	sbiw	r30, 0x01	; 1
    23b8:	31 e2       	ldi	r19, 0x21	; 33
    23ba:	30 83       	st	Z, r19
    23bc:	31 97       	sbiw	r30, 0x01	; 1
    23be:	20 83       	st	Z, r18
    23c0:	31 97       	sbiw	r30, 0x01	; 1
    23c2:	23 e2       	ldi	r18, 0x23	; 35
    23c4:	20 83       	st	Z, r18
    23c6:	31 97       	sbiw	r30, 0x01	; 1
    23c8:	40 83       	st	Z, r20
    23ca:	31 97       	sbiw	r30, 0x01	; 1
    23cc:	50 83       	st	Z, r21
    23ce:	31 97       	sbiw	r30, 0x01	; 1
    23d0:	26 e2       	ldi	r18, 0x26	; 38
    23d2:	20 83       	st	Z, r18
    23d4:	31 97       	sbiw	r30, 0x01	; 1
    23d6:	27 e2       	ldi	r18, 0x27	; 39
    23d8:	20 83       	st	Z, r18
    23da:	31 97       	sbiw	r30, 0x01	; 1
    23dc:	28 e2       	ldi	r18, 0x28	; 40
    23de:	20 83       	st	Z, r18
    23e0:	31 97       	sbiw	r30, 0x01	; 1
    23e2:	29 e2       	ldi	r18, 0x29	; 41
    23e4:	20 83       	st	Z, r18
    23e6:	31 97       	sbiw	r30, 0x01	; 1
    23e8:	20 e3       	ldi	r18, 0x30	; 48
    23ea:	20 83       	st	Z, r18
    23ec:	31 97       	sbiw	r30, 0x01	; 1
    23ee:	21 e3       	ldi	r18, 0x31	; 49
    23f0:	20 83       	st	Z, r18
    23f2:	89 97       	sbiw	r24, 0x29	; 41
    23f4:	08 95       	ret

000023f6 <xPortStartScheduler>:
    23f6:	10 92 80 00 	sts	0x0080, r1
    23fa:	81 e1       	ldi	r24, 0x11	; 17
    23fc:	80 93 81 00 	sts	0x0081, r24
    2400:	80 e4       	ldi	r24, 0x40	; 64
    2402:	9f e1       	ldi	r25, 0x1F	; 31
    2404:	90 93 87 00 	sts	0x0087, r25
    2408:	80 93 86 00 	sts	0x0086, r24
    240c:	81 e0       	ldi	r24, 0x01	; 1
    240e:	80 93 6f 00 	sts	0x006F, r24
    2412:	a0 91 0e 19 	lds	r26, 0x190E
    2416:	b0 91 0f 19 	lds	r27, 0x190F
    241a:	cd 91       	ld	r28, X+
    241c:	cd bf       	out	0x3d, r28	; 61
    241e:	dd 91       	ld	r29, X+
    2420:	de bf       	out	0x3e, r29	; 62
    2422:	ff 91       	pop	r31
    2424:	ef 91       	pop	r30
    2426:	df 91       	pop	r29
    2428:	cf 91       	pop	r28
    242a:	bf 91       	pop	r27
    242c:	af 91       	pop	r26
    242e:	9f 91       	pop	r25
    2430:	8f 91       	pop	r24
    2432:	7f 91       	pop	r23
    2434:	6f 91       	pop	r22
    2436:	5f 91       	pop	r21
    2438:	4f 91       	pop	r20
    243a:	3f 91       	pop	r19
    243c:	2f 91       	pop	r18
    243e:	1f 91       	pop	r17
    2440:	0f 91       	pop	r16
    2442:	ff 90       	pop	r15
    2444:	ef 90       	pop	r14
    2446:	df 90       	pop	r13
    2448:	cf 90       	pop	r12
    244a:	bf 90       	pop	r11
    244c:	af 90       	pop	r10
    244e:	9f 90       	pop	r9
    2450:	8f 90       	pop	r8
    2452:	7f 90       	pop	r7
    2454:	6f 90       	pop	r6
    2456:	5f 90       	pop	r5
    2458:	4f 90       	pop	r4
    245a:	3f 90       	pop	r3
    245c:	2f 90       	pop	r2
    245e:	1f 90       	pop	r1
    2460:	0f 90       	pop	r0
    2462:	0c be       	out	0x3c, r0	; 60
    2464:	0f 90       	pop	r0
    2466:	0b be       	out	0x3b, r0	; 59
    2468:	0f 90       	pop	r0
    246a:	0f be       	out	0x3f, r0	; 63
    246c:	0f 90       	pop	r0
    246e:	08 95       	ret
    2470:	08 95       	ret

00002472 <vPortYield>:
 * can use a naked attribute.
 */
void vPortYield( void ) __attribute__ ( ( naked ) );
void vPortYield( void )
{
	portSAVE_CONTEXT();
    2472:	0f 92       	push	r0
    2474:	0f b6       	in	r0, 0x3f	; 63
    2476:	f8 94       	cli
    2478:	0f 92       	push	r0
    247a:	0c b6       	in	r0, 0x3c	; 60
    247c:	0f 92       	push	r0
    247e:	0b b6       	in	r0, 0x3b	; 59
    2480:	0f 92       	push	r0
    2482:	1f 92       	push	r1
    2484:	11 24       	eor	r1, r1
    2486:	2f 92       	push	r2
    2488:	3f 92       	push	r3
    248a:	4f 92       	push	r4
    248c:	5f 92       	push	r5
    248e:	6f 92       	push	r6
    2490:	7f 92       	push	r7
    2492:	8f 92       	push	r8
    2494:	9f 92       	push	r9
    2496:	af 92       	push	r10
    2498:	bf 92       	push	r11
    249a:	cf 92       	push	r12
    249c:	df 92       	push	r13
    249e:	ef 92       	push	r14
    24a0:	ff 92       	push	r15
    24a2:	0f 93       	push	r16
    24a4:	1f 93       	push	r17
    24a6:	2f 93       	push	r18
    24a8:	3f 93       	push	r19
    24aa:	4f 93       	push	r20
    24ac:	5f 93       	push	r21
    24ae:	6f 93       	push	r22
    24b0:	7f 93       	push	r23
    24b2:	8f 93       	push	r24
    24b4:	9f 93       	push	r25
    24b6:	af 93       	push	r26
    24b8:	bf 93       	push	r27
    24ba:	cf 93       	push	r28
    24bc:	df 93       	push	r29
    24be:	ef 93       	push	r30
    24c0:	ff 93       	push	r31
    24c2:	a0 91 0e 19 	lds	r26, 0x190E
    24c6:	b0 91 0f 19 	lds	r27, 0x190F
    24ca:	0d b6       	in	r0, 0x3d	; 61
    24cc:	0d 92       	st	X+, r0
    24ce:	0e b6       	in	r0, 0x3e	; 62
    24d0:	0d 92       	st	X+, r0
	vTaskSwitchContext();
    24d2:	a8 d5       	rcall	.+2896   	; 0x3024 <vTaskSwitchContext>
	portRESTORE_CONTEXT();
    24d4:	a0 91 0e 19 	lds	r26, 0x190E
    24d8:	b0 91 0f 19 	lds	r27, 0x190F
    24dc:	cd 91       	ld	r28, X+
    24de:	cd bf       	out	0x3d, r28	; 61
    24e0:	dd 91       	ld	r29, X+
    24e2:	de bf       	out	0x3e, r29	; 62
    24e4:	ff 91       	pop	r31
    24e6:	ef 91       	pop	r30
    24e8:	df 91       	pop	r29
    24ea:	cf 91       	pop	r28
    24ec:	bf 91       	pop	r27
    24ee:	af 91       	pop	r26
    24f0:	9f 91       	pop	r25
    24f2:	8f 91       	pop	r24
    24f4:	7f 91       	pop	r23
    24f6:	6f 91       	pop	r22
    24f8:	5f 91       	pop	r21
    24fa:	4f 91       	pop	r20
    24fc:	3f 91       	pop	r19
    24fe:	2f 91       	pop	r18
    2500:	1f 91       	pop	r17
    2502:	0f 91       	pop	r16
    2504:	ff 90       	pop	r15
    2506:	ef 90       	pop	r14
    2508:	df 90       	pop	r13
    250a:	cf 90       	pop	r12
    250c:	bf 90       	pop	r11
    250e:	af 90       	pop	r10
    2510:	9f 90       	pop	r9
    2512:	8f 90       	pop	r8
    2514:	7f 90       	pop	r7
    2516:	6f 90       	pop	r6
    2518:	5f 90       	pop	r5
    251a:	4f 90       	pop	r4
    251c:	3f 90       	pop	r3
    251e:	2f 90       	pop	r2
    2520:	1f 90       	pop	r1
    2522:	0f 90       	pop	r0
    2524:	0c be       	out	0x3c, r0	; 60
    2526:	0f 90       	pop	r0
    2528:	0b be       	out	0x3b, r0	; 59
    252a:	0f 90       	pop	r0
    252c:	0f be       	out	0x3f, r0	; 63
    252e:	0f 90       	pop	r0

	asm volatile ( "ret" );
    2530:	08 95       	ret

00002532 <vPortYieldFromTick>:
 * call comes from the tick ISR.
 */
void vPortYieldFromTick( void ) __attribute__ ( ( naked ) );
void vPortYieldFromTick( void )
{
	portSAVE_CONTEXT();
    2532:	0f 92       	push	r0
    2534:	0f b6       	in	r0, 0x3f	; 63
    2536:	f8 94       	cli
    2538:	0f 92       	push	r0
    253a:	0c b6       	in	r0, 0x3c	; 60
    253c:	0f 92       	push	r0
    253e:	0b b6       	in	r0, 0x3b	; 59
    2540:	0f 92       	push	r0
    2542:	1f 92       	push	r1
    2544:	11 24       	eor	r1, r1
    2546:	2f 92       	push	r2
    2548:	3f 92       	push	r3
    254a:	4f 92       	push	r4
    254c:	5f 92       	push	r5
    254e:	6f 92       	push	r6
    2550:	7f 92       	push	r7
    2552:	8f 92       	push	r8
    2554:	9f 92       	push	r9
    2556:	af 92       	push	r10
    2558:	bf 92       	push	r11
    255a:	cf 92       	push	r12
    255c:	df 92       	push	r13
    255e:	ef 92       	push	r14
    2560:	ff 92       	push	r15
    2562:	0f 93       	push	r16
    2564:	1f 93       	push	r17
    2566:	2f 93       	push	r18
    2568:	3f 93       	push	r19
    256a:	4f 93       	push	r20
    256c:	5f 93       	push	r21
    256e:	6f 93       	push	r22
    2570:	7f 93       	push	r23
    2572:	8f 93       	push	r24
    2574:	9f 93       	push	r25
    2576:	af 93       	push	r26
    2578:	bf 93       	push	r27
    257a:	cf 93       	push	r28
    257c:	df 93       	push	r29
    257e:	ef 93       	push	r30
    2580:	ff 93       	push	r31
    2582:	a0 91 0e 19 	lds	r26, 0x190E
    2586:	b0 91 0f 19 	lds	r27, 0x190F
    258a:	0d b6       	in	r0, 0x3d	; 61
    258c:	0d 92       	st	X+, r0
    258e:	0e b6       	in	r0, 0x3e	; 62
    2590:	0d 92       	st	X+, r0
	if( xTaskIncrementTick() != pdFALSE )
    2592:	e1 d3       	rcall	.+1986   	; 0x2d56 <xTaskIncrementTick>
    2594:	81 11       	cpse	r24, r1
	{
		vTaskSwitchContext();
    2596:	46 d5       	rcall	.+2700   	; 0x3024 <vTaskSwitchContext>
	}
	portRESTORE_CONTEXT();
    2598:	a0 91 0e 19 	lds	r26, 0x190E
    259c:	b0 91 0f 19 	lds	r27, 0x190F
    25a0:	cd 91       	ld	r28, X+
    25a2:	cd bf       	out	0x3d, r28	; 61
    25a4:	dd 91       	ld	r29, X+
    25a6:	de bf       	out	0x3e, r29	; 62
    25a8:	ff 91       	pop	r31
    25aa:	ef 91       	pop	r30
    25ac:	df 91       	pop	r29
    25ae:	cf 91       	pop	r28
    25b0:	bf 91       	pop	r27
    25b2:	af 91       	pop	r26
    25b4:	9f 91       	pop	r25
    25b6:	8f 91       	pop	r24
    25b8:	7f 91       	pop	r23
    25ba:	6f 91       	pop	r22
    25bc:	5f 91       	pop	r21
    25be:	4f 91       	pop	r20
    25c0:	3f 91       	pop	r19
    25c2:	2f 91       	pop	r18
    25c4:	1f 91       	pop	r17
    25c6:	0f 91       	pop	r16
    25c8:	ff 90       	pop	r15
    25ca:	ef 90       	pop	r14
    25cc:	df 90       	pop	r13
    25ce:	cf 90       	pop	r12
    25d0:	bf 90       	pop	r11
    25d2:	af 90       	pop	r10
    25d4:	9f 90       	pop	r9
    25d6:	8f 90       	pop	r8
    25d8:	7f 90       	pop	r7
    25da:	6f 90       	pop	r6
    25dc:	5f 90       	pop	r5
    25de:	4f 90       	pop	r4
    25e0:	3f 90       	pop	r3
    25e2:	2f 90       	pop	r2
    25e4:	1f 90       	pop	r1
    25e6:	0f 90       	pop	r0
    25e8:	0c be       	out	0x3c, r0	; 60
    25ea:	0f 90       	pop	r0
    25ec:	0b be       	out	0x3b, r0	; 59
    25ee:	0f 90       	pop	r0
    25f0:	0f be       	out	0x3f, r0	; 63
    25f2:	0f 90       	pop	r0

	asm volatile ( "ret" );
    25f4:	08 95       	ret

000025f6 <__vector_20>:
	 * count is incremented after the context is saved.
	 */
	
	ISR (TIMER1_OVF_vect, ISR_NAKED)
	{
		vPortYieldFromTick();
    25f6:	9d df       	rcall	.-198    	; 0x2532 <vPortYieldFromTick>
		asm volatile ( "reti" );
    25f8:	18 95       	reti

000025fa <prvCopyDataToQueue>:
		}
	}
	portCLEAR_INTERRUPT_MASK_FROM_ISR( uxSavedInterruptStatus );

	return xReturn;
}
    25fa:	1f 93       	push	r17
    25fc:	cf 93       	push	r28
    25fe:	df 93       	push	r29
    2600:	ec 01       	movw	r28, r24
    2602:	14 2f       	mov	r17, r20
    2604:	4c 8d       	ldd	r20, Y+28	; 0x1c
    2606:	41 11       	cpse	r20, r1
    2608:	0b c0       	rjmp	.+22     	; 0x2620 <prvCopyDataToQueue+0x26>
    260a:	88 81       	ld	r24, Y
    260c:	99 81       	ldd	r25, Y+1	; 0x01
    260e:	89 2b       	or	r24, r25
    2610:	09 f0       	breq	.+2      	; 0x2614 <prvCopyDataToQueue+0x1a>
    2612:	40 c0       	rjmp	.+128    	; 0x2694 <prvCopyDataToQueue+0x9a>
    2614:	8a 81       	ldd	r24, Y+2	; 0x02
    2616:	9b 81       	ldd	r25, Y+3	; 0x03
    2618:	45 d6       	rcall	.+3210   	; 0x32a4 <xTaskPriorityDisinherit>
    261a:	1b 82       	std	Y+3, r1	; 0x03
    261c:	1a 82       	std	Y+2, r1	; 0x02
    261e:	3b c0       	rjmp	.+118    	; 0x2696 <prvCopyDataToQueue+0x9c>
    2620:	50 e0       	ldi	r21, 0x00	; 0
    2622:	11 11       	cpse	r17, r1
    2624:	15 c0       	rjmp	.+42     	; 0x2650 <prvCopyDataToQueue+0x56>
    2626:	8c 81       	ldd	r24, Y+4	; 0x04
    2628:	9d 81       	ldd	r25, Y+5	; 0x05
    262a:	0e 94 cd 27 	call	0x4f9a	; 0x4f9a <memcpy>
    262e:	2c 8d       	ldd	r18, Y+28	; 0x1c
    2630:	8c 81       	ldd	r24, Y+4	; 0x04
    2632:	9d 81       	ldd	r25, Y+5	; 0x05
    2634:	82 0f       	add	r24, r18
    2636:	91 1d       	adc	r25, r1
    2638:	9d 83       	std	Y+5, r25	; 0x05
    263a:	8c 83       	std	Y+4, r24	; 0x04
    263c:	2a 81       	ldd	r18, Y+2	; 0x02
    263e:	3b 81       	ldd	r19, Y+3	; 0x03
    2640:	82 17       	cp	r24, r18
    2642:	93 07       	cpc	r25, r19
    2644:	38 f1       	brcs	.+78     	; 0x2694 <prvCopyDataToQueue+0x9a>
    2646:	88 81       	ld	r24, Y
    2648:	99 81       	ldd	r25, Y+1	; 0x01
    264a:	9d 83       	std	Y+5, r25	; 0x05
    264c:	8c 83       	std	Y+4, r24	; 0x04
    264e:	22 c0       	rjmp	.+68     	; 0x2694 <prvCopyDataToQueue+0x9a>
    2650:	8e 81       	ldd	r24, Y+6	; 0x06
    2652:	9f 81       	ldd	r25, Y+7	; 0x07
    2654:	0e 94 cd 27 	call	0x4f9a	; 0x4f9a <memcpy>
    2658:	2c 8d       	ldd	r18, Y+28	; 0x1c
    265a:	30 e0       	ldi	r19, 0x00	; 0
    265c:	31 95       	neg	r19
    265e:	21 95       	neg	r18
    2660:	31 09       	sbc	r19, r1
    2662:	8e 81       	ldd	r24, Y+6	; 0x06
    2664:	9f 81       	ldd	r25, Y+7	; 0x07
    2666:	82 0f       	add	r24, r18
    2668:	93 1f       	adc	r25, r19
    266a:	9f 83       	std	Y+7, r25	; 0x07
    266c:	8e 83       	std	Y+6, r24	; 0x06
    266e:	68 81       	ld	r22, Y
    2670:	79 81       	ldd	r23, Y+1	; 0x01
    2672:	86 17       	cp	r24, r22
    2674:	97 07       	cpc	r25, r23
    2676:	30 f4       	brcc	.+12     	; 0x2684 <prvCopyDataToQueue+0x8a>
    2678:	8a 81       	ldd	r24, Y+2	; 0x02
    267a:	9b 81       	ldd	r25, Y+3	; 0x03
    267c:	82 0f       	add	r24, r18
    267e:	93 1f       	adc	r25, r19
    2680:	9f 83       	std	Y+7, r25	; 0x07
    2682:	8e 83       	std	Y+6, r24	; 0x06
    2684:	12 30       	cpi	r17, 0x02	; 2
    2686:	31 f4       	brne	.+12     	; 0x2694 <prvCopyDataToQueue+0x9a>
    2688:	8a 8d       	ldd	r24, Y+26	; 0x1a
    268a:	88 23       	and	r24, r24
    268c:	19 f0       	breq	.+6      	; 0x2694 <prvCopyDataToQueue+0x9a>
    268e:	8a 8d       	ldd	r24, Y+26	; 0x1a
    2690:	81 50       	subi	r24, 0x01	; 1
    2692:	8a 8f       	std	Y+26, r24	; 0x1a
    2694:	80 e0       	ldi	r24, 0x00	; 0
    2696:	9a 8d       	ldd	r25, Y+26	; 0x1a
    2698:	9f 5f       	subi	r25, 0xFF	; 255
    269a:	9a 8f       	std	Y+26, r25	; 0x1a
    269c:	df 91       	pop	r29
    269e:	cf 91       	pop	r28
    26a0:	1f 91       	pop	r17
    26a2:	08 95       	ret

000026a4 <prvCopyDataFromQueue>:
    26a4:	fc 01       	movw	r30, r24
    26a6:	cb 01       	movw	r24, r22
    26a8:	44 8d       	ldd	r20, Z+28	; 0x1c
    26aa:	44 23       	and	r20, r20
    26ac:	a1 f0       	breq	.+40     	; 0x26d6 <prvCopyDataFromQueue+0x32>
    26ae:	50 e0       	ldi	r21, 0x00	; 0
    26b0:	26 81       	ldd	r18, Z+6	; 0x06
    26b2:	37 81       	ldd	r19, Z+7	; 0x07
    26b4:	24 0f       	add	r18, r20
    26b6:	35 1f       	adc	r19, r21
    26b8:	37 83       	std	Z+7, r19	; 0x07
    26ba:	26 83       	std	Z+6, r18	; 0x06
    26bc:	62 81       	ldd	r22, Z+2	; 0x02
    26be:	73 81       	ldd	r23, Z+3	; 0x03
    26c0:	26 17       	cp	r18, r22
    26c2:	37 07       	cpc	r19, r23
    26c4:	20 f0       	brcs	.+8      	; 0x26ce <prvCopyDataFromQueue+0x2a>
    26c6:	20 81       	ld	r18, Z
    26c8:	31 81       	ldd	r19, Z+1	; 0x01
    26ca:	37 83       	std	Z+7, r19	; 0x07
    26cc:	26 83       	std	Z+6, r18	; 0x06
    26ce:	66 81       	ldd	r22, Z+6	; 0x06
    26d0:	77 81       	ldd	r23, Z+7	; 0x07
    26d2:	0c 94 cd 27 	jmp	0x4f9a	; 0x4f9a <memcpy>
    26d6:	08 95       	ret

000026d8 <prvUnlockQueue>:
    26d8:	0f 93       	push	r16
    26da:	1f 93       	push	r17
    26dc:	cf 93       	push	r28
    26de:	df 93       	push	r29
    26e0:	ec 01       	movw	r28, r24
    26e2:	0f b6       	in	r0, 0x3f	; 63
    26e4:	f8 94       	cli
    26e6:	0f 92       	push	r0
    26e8:	8c 01       	movw	r16, r24
    26ea:	0f 5e       	subi	r16, 0xEF	; 239
    26ec:	1f 4f       	sbci	r17, 0xFF	; 255
    26ee:	8e 8d       	ldd	r24, Y+30	; 0x1e
    26f0:	18 16       	cp	r1, r24
    26f2:	5c f4       	brge	.+22     	; 0x270a <prvUnlockQueue+0x32>
    26f4:	89 89       	ldd	r24, Y+17	; 0x11
    26f6:	88 23       	and	r24, r24
    26f8:	41 f0       	breq	.+16     	; 0x270a <prvUnlockQueue+0x32>
    26fa:	c8 01       	movw	r24, r16
    26fc:	fe d4       	rcall	.+2556   	; 0x30fa <xTaskRemoveFromEventList>
    26fe:	81 11       	cpse	r24, r1
    2700:	78 d5       	rcall	.+2800   	; 0x31f2 <vTaskMissedYield>
    2702:	8e 8d       	ldd	r24, Y+30	; 0x1e
    2704:	81 50       	subi	r24, 0x01	; 1
    2706:	8e 8f       	std	Y+30, r24	; 0x1e
    2708:	f2 cf       	rjmp	.-28     	; 0x26ee <prvUnlockQueue+0x16>
    270a:	8f ef       	ldi	r24, 0xFF	; 255
    270c:	8e 8f       	std	Y+30, r24	; 0x1e
    270e:	0f 90       	pop	r0
    2710:	0f be       	out	0x3f, r0	; 63
    2712:	0f b6       	in	r0, 0x3f	; 63
    2714:	f8 94       	cli
    2716:	0f 92       	push	r0
    2718:	8e 01       	movw	r16, r28
    271a:	08 5f       	subi	r16, 0xF8	; 248
    271c:	1f 4f       	sbci	r17, 0xFF	; 255
    271e:	8d 8d       	ldd	r24, Y+29	; 0x1d
    2720:	18 16       	cp	r1, r24
    2722:	5c f4       	brge	.+22     	; 0x273a <prvUnlockQueue+0x62>
    2724:	88 85       	ldd	r24, Y+8	; 0x08
    2726:	88 23       	and	r24, r24
    2728:	41 f0       	breq	.+16     	; 0x273a <prvUnlockQueue+0x62>
    272a:	c8 01       	movw	r24, r16
    272c:	e6 d4       	rcall	.+2508   	; 0x30fa <xTaskRemoveFromEventList>
    272e:	81 11       	cpse	r24, r1
    2730:	60 d5       	rcall	.+2752   	; 0x31f2 <vTaskMissedYield>
    2732:	8d 8d       	ldd	r24, Y+29	; 0x1d
    2734:	81 50       	subi	r24, 0x01	; 1
    2736:	8d 8f       	std	Y+29, r24	; 0x1d
    2738:	f2 cf       	rjmp	.-28     	; 0x271e <prvUnlockQueue+0x46>
    273a:	8f ef       	ldi	r24, 0xFF	; 255
    273c:	8d 8f       	std	Y+29, r24	; 0x1d
    273e:	0f 90       	pop	r0
    2740:	0f be       	out	0x3f, r0	; 63
    2742:	df 91       	pop	r29
    2744:	cf 91       	pop	r28
    2746:	1f 91       	pop	r17
    2748:	0f 91       	pop	r16
    274a:	08 95       	ret

0000274c <xQueueGenericReset>:
    274c:	cf 93       	push	r28
    274e:	df 93       	push	r29
    2750:	ec 01       	movw	r28, r24
    2752:	0f b6       	in	r0, 0x3f	; 63
    2754:	f8 94       	cli
    2756:	0f 92       	push	r0
    2758:	28 81       	ld	r18, Y
    275a:	39 81       	ldd	r19, Y+1	; 0x01
    275c:	8b 8d       	ldd	r24, Y+27	; 0x1b
    275e:	7c 8d       	ldd	r23, Y+28	; 0x1c
    2760:	87 9f       	mul	r24, r23
    2762:	c0 01       	movw	r24, r0
    2764:	11 24       	eor	r1, r1
    2766:	a9 01       	movw	r20, r18
    2768:	48 0f       	add	r20, r24
    276a:	59 1f       	adc	r21, r25
    276c:	5b 83       	std	Y+3, r21	; 0x03
    276e:	4a 83       	std	Y+2, r20	; 0x02
    2770:	1a 8e       	std	Y+26, r1	; 0x1a
    2772:	3d 83       	std	Y+5, r19	; 0x05
    2774:	2c 83       	std	Y+4, r18	; 0x04
    2776:	87 1b       	sub	r24, r23
    2778:	91 09       	sbc	r25, r1
    277a:	82 0f       	add	r24, r18
    277c:	93 1f       	adc	r25, r19
    277e:	9f 83       	std	Y+7, r25	; 0x07
    2780:	8e 83       	std	Y+6, r24	; 0x06
    2782:	8f ef       	ldi	r24, 0xFF	; 255
    2784:	8d 8f       	std	Y+29, r24	; 0x1d
    2786:	8e 8f       	std	Y+30, r24	; 0x1e
    2788:	61 11       	cpse	r22, r1
    278a:	0a c0       	rjmp	.+20     	; 0x27a0 <xQueueGenericReset+0x54>
    278c:	88 85       	ldd	r24, Y+8	; 0x08
    278e:	88 23       	and	r24, r24
    2790:	69 f0       	breq	.+26     	; 0x27ac <xQueueGenericReset+0x60>
    2792:	ce 01       	movw	r24, r28
    2794:	08 96       	adiw	r24, 0x08	; 8
    2796:	b1 d4       	rcall	.+2402   	; 0x30fa <xTaskRemoveFromEventList>
    2798:	81 30       	cpi	r24, 0x01	; 1
    279a:	41 f4       	brne	.+16     	; 0x27ac <xQueueGenericReset+0x60>
    279c:	6a de       	rcall	.-812    	; 0x2472 <vPortYield>
    279e:	06 c0       	rjmp	.+12     	; 0x27ac <xQueueGenericReset+0x60>
    27a0:	ce 01       	movw	r24, r28
    27a2:	08 96       	adiw	r24, 0x08	; 8
    27a4:	07 dc       	rcall	.-2034   	; 0x1fb4 <vListInitialise>
    27a6:	ce 01       	movw	r24, r28
    27a8:	41 96       	adiw	r24, 0x11	; 17
    27aa:	04 dc       	rcall	.-2040   	; 0x1fb4 <vListInitialise>
    27ac:	0f 90       	pop	r0
    27ae:	0f be       	out	0x3f, r0	; 63
    27b0:	81 e0       	ldi	r24, 0x01	; 1
    27b2:	df 91       	pop	r29
    27b4:	cf 91       	pop	r28
    27b6:	08 95       	ret

000027b8 <xQueueGenericCreate>:
    27b8:	0f 93       	push	r16
    27ba:	1f 93       	push	r17
    27bc:	cf 93       	push	r28
    27be:	df 93       	push	r29
    27c0:	18 2f       	mov	r17, r24
    27c2:	06 2f       	mov	r16, r22
    27c4:	88 23       	and	r24, r24
    27c6:	b9 f0       	breq	.+46     	; 0x27f6 <xQueueGenericCreate+0x3e>
    27c8:	8f e1       	ldi	r24, 0x1F	; 31
    27ca:	90 e0       	ldi	r25, 0x00	; 0
    27cc:	c2 db       	rcall	.-2172   	; 0x1f52 <pvPortMalloc>
    27ce:	ec 01       	movw	r28, r24
    27d0:	00 97       	sbiw	r24, 0x00	; 0
    27d2:	89 f0       	breq	.+34     	; 0x27f6 <xQueueGenericCreate+0x3e>
    27d4:	10 9f       	mul	r17, r16
    27d6:	c0 01       	movw	r24, r0
    27d8:	11 24       	eor	r1, r1
    27da:	01 96       	adiw	r24, 0x01	; 1
    27dc:	ba db       	rcall	.-2188   	; 0x1f52 <pvPortMalloc>
    27de:	99 83       	std	Y+1, r25	; 0x01
    27e0:	88 83       	st	Y, r24
    27e2:	89 2b       	or	r24, r25
    27e4:	31 f0       	breq	.+12     	; 0x27f2 <xQueueGenericCreate+0x3a>
    27e6:	1b 8f       	std	Y+27, r17	; 0x1b
    27e8:	0c 8f       	std	Y+28, r16	; 0x1c
    27ea:	61 e0       	ldi	r22, 0x01	; 1
    27ec:	ce 01       	movw	r24, r28
    27ee:	ae df       	rcall	.-164    	; 0x274c <xQueueGenericReset>
    27f0:	04 c0       	rjmp	.+8      	; 0x27fa <xQueueGenericCreate+0x42>
    27f2:	ce 01       	movw	r24, r28
    27f4:	de db       	rcall	.-2116   	; 0x1fb2 <vPortFree>
    27f6:	c0 e0       	ldi	r28, 0x00	; 0
    27f8:	d0 e0       	ldi	r29, 0x00	; 0
    27fa:	ce 01       	movw	r24, r28
    27fc:	df 91       	pop	r29
    27fe:	cf 91       	pop	r28
    2800:	1f 91       	pop	r17
    2802:	0f 91       	pop	r16
    2804:	08 95       	ret

00002806 <xQueueGenericSend>:
    2806:	bf 92       	push	r11
    2808:	cf 92       	push	r12
    280a:	df 92       	push	r13
    280c:	ef 92       	push	r14
    280e:	ff 92       	push	r15
    2810:	0f 93       	push	r16
    2812:	1f 93       	push	r17
    2814:	cf 93       	push	r28
    2816:	df 93       	push	r29
    2818:	00 d0       	rcall	.+0      	; 0x281a <xQueueGenericSend+0x14>
    281a:	1f 92       	push	r1
    281c:	1f 92       	push	r1
    281e:	cd b7       	in	r28, 0x3d	; 61
    2820:	de b7       	in	r29, 0x3e	; 62
    2822:	8c 01       	movw	r16, r24
    2824:	6b 01       	movw	r12, r22
    2826:	5d 83       	std	Y+5, r21	; 0x05
    2828:	4c 83       	std	Y+4, r20	; 0x04
    282a:	b2 2e       	mov	r11, r18
    282c:	20 e0       	ldi	r18, 0x00	; 0
    282e:	7c 01       	movw	r14, r24
    2830:	88 e0       	ldi	r24, 0x08	; 8
    2832:	e8 0e       	add	r14, r24
    2834:	f1 1c       	adc	r15, r1
    2836:	0f b6       	in	r0, 0x3f	; 63
    2838:	f8 94       	cli
    283a:	0f 92       	push	r0
    283c:	f8 01       	movw	r30, r16
    283e:	92 8d       	ldd	r25, Z+26	; 0x1a
    2840:	83 8d       	ldd	r24, Z+27	; 0x1b
    2842:	98 17       	cp	r25, r24
    2844:	18 f0       	brcs	.+6      	; 0x284c <xQueueGenericSend+0x46>
    2846:	f2 e0       	ldi	r31, 0x02	; 2
    2848:	bf 12       	cpse	r11, r31
    284a:	15 c0       	rjmp	.+42     	; 0x2876 <xQueueGenericSend+0x70>
    284c:	4b 2d       	mov	r20, r11
    284e:	b6 01       	movw	r22, r12
    2850:	c8 01       	movw	r24, r16
    2852:	d3 de       	rcall	.-602    	; 0x25fa <prvCopyDataToQueue>
    2854:	f8 01       	movw	r30, r16
    2856:	91 89       	ldd	r25, Z+17	; 0x11
    2858:	99 23       	and	r25, r25
    285a:	39 f0       	breq	.+14     	; 0x286a <xQueueGenericSend+0x64>
    285c:	c8 01       	movw	r24, r16
    285e:	41 96       	adiw	r24, 0x11	; 17
    2860:	4c d4       	rcall	.+2200   	; 0x30fa <xTaskRemoveFromEventList>
    2862:	81 30       	cpi	r24, 0x01	; 1
    2864:	21 f4       	brne	.+8      	; 0x286e <xQueueGenericSend+0x68>
    2866:	05 de       	rcall	.-1014   	; 0x2472 <vPortYield>
    2868:	02 c0       	rjmp	.+4      	; 0x286e <xQueueGenericSend+0x68>
    286a:	81 11       	cpse	r24, r1
    286c:	fc cf       	rjmp	.-8      	; 0x2866 <xQueueGenericSend+0x60>
    286e:	0f 90       	pop	r0
    2870:	0f be       	out	0x3f, r0	; 63
    2872:	81 e0       	ldi	r24, 0x01	; 1
    2874:	46 c0       	rjmp	.+140    	; 0x2902 <xQueueGenericSend+0xfc>
    2876:	8c 81       	ldd	r24, Y+4	; 0x04
    2878:	9d 81       	ldd	r25, Y+5	; 0x05
    287a:	89 2b       	or	r24, r25
    287c:	19 f4       	brne	.+6      	; 0x2884 <xQueueGenericSend+0x7e>
    287e:	0f 90       	pop	r0
    2880:	0f be       	out	0x3f, r0	; 63
    2882:	3e c0       	rjmp	.+124    	; 0x2900 <xQueueGenericSend+0xfa>
    2884:	21 11       	cpse	r18, r1
    2886:	03 c0       	rjmp	.+6      	; 0x288e <xQueueGenericSend+0x88>
    2888:	ce 01       	movw	r24, r28
    288a:	01 96       	adiw	r24, 0x01	; 1
    288c:	76 d4       	rcall	.+2284   	; 0x317a <vTaskSetTimeOutState>
    288e:	0f 90       	pop	r0
    2890:	0f be       	out	0x3f, r0	; 63
    2892:	5b d2       	rcall	.+1206   	; 0x2d4a <vTaskSuspendAll>
    2894:	0f b6       	in	r0, 0x3f	; 63
    2896:	f8 94       	cli
    2898:	0f 92       	push	r0
    289a:	f8 01       	movw	r30, r16
    289c:	85 8d       	ldd	r24, Z+29	; 0x1d
    289e:	8f 3f       	cpi	r24, 0xFF	; 255
    28a0:	09 f4       	brne	.+2      	; 0x28a4 <xQueueGenericSend+0x9e>
    28a2:	15 8e       	std	Z+29, r1	; 0x1d
    28a4:	f8 01       	movw	r30, r16
    28a6:	86 8d       	ldd	r24, Z+30	; 0x1e
    28a8:	8f 3f       	cpi	r24, 0xFF	; 255
    28aa:	09 f4       	brne	.+2      	; 0x28ae <xQueueGenericSend+0xa8>
    28ac:	16 8e       	std	Z+30, r1	; 0x1e
    28ae:	0f 90       	pop	r0
    28b0:	0f be       	out	0x3f, r0	; 63
    28b2:	be 01       	movw	r22, r28
    28b4:	6c 5f       	subi	r22, 0xFC	; 252
    28b6:	7f 4f       	sbci	r23, 0xFF	; 255
    28b8:	ce 01       	movw	r24, r28
    28ba:	01 96       	adiw	r24, 0x01	; 1
    28bc:	69 d4       	rcall	.+2258   	; 0x3190 <xTaskCheckForTimeOut>
    28be:	81 11       	cpse	r24, r1
    28c0:	1c c0       	rjmp	.+56     	; 0x28fa <xQueueGenericSend+0xf4>
    28c2:	0f b6       	in	r0, 0x3f	; 63
    28c4:	f8 94       	cli
    28c6:	0f 92       	push	r0
    28c8:	f8 01       	movw	r30, r16
    28ca:	92 8d       	ldd	r25, Z+26	; 0x1a
    28cc:	0f 90       	pop	r0
    28ce:	0f be       	out	0x3f, r0	; 63
    28d0:	f8 01       	movw	r30, r16
    28d2:	83 8d       	ldd	r24, Z+27	; 0x1b
    28d4:	98 13       	cpse	r25, r24
    28d6:	0d c0       	rjmp	.+26     	; 0x28f2 <xQueueGenericSend+0xec>
    28d8:	6c 81       	ldd	r22, Y+4	; 0x04
    28da:	7d 81       	ldd	r23, Y+5	; 0x05
    28dc:	c7 01       	movw	r24, r14
    28de:	e2 d3       	rcall	.+1988   	; 0x30a4 <vTaskPlaceOnEventList>
    28e0:	c8 01       	movw	r24, r16
    28e2:	fa de       	rcall	.-524    	; 0x26d8 <prvUnlockQueue>
    28e4:	e4 d2       	rcall	.+1480   	; 0x2eae <xTaskResumeAll>
    28e6:	88 23       	and	r24, r24
    28e8:	11 f0       	breq	.+4      	; 0x28ee <xQueueGenericSend+0xe8>
    28ea:	21 e0       	ldi	r18, 0x01	; 1
    28ec:	a4 cf       	rjmp	.-184    	; 0x2836 <xQueueGenericSend+0x30>
    28ee:	c1 dd       	rcall	.-1150   	; 0x2472 <vPortYield>
    28f0:	fc cf       	rjmp	.-8      	; 0x28ea <xQueueGenericSend+0xe4>
    28f2:	c8 01       	movw	r24, r16
    28f4:	f1 de       	rcall	.-542    	; 0x26d8 <prvUnlockQueue>
    28f6:	db d2       	rcall	.+1462   	; 0x2eae <xTaskResumeAll>
    28f8:	f8 cf       	rjmp	.-16     	; 0x28ea <xQueueGenericSend+0xe4>
    28fa:	c8 01       	movw	r24, r16
    28fc:	ed de       	rcall	.-550    	; 0x26d8 <prvUnlockQueue>
    28fe:	d7 d2       	rcall	.+1454   	; 0x2eae <xTaskResumeAll>
    2900:	80 e0       	ldi	r24, 0x00	; 0
    2902:	0f 90       	pop	r0
    2904:	0f 90       	pop	r0
    2906:	0f 90       	pop	r0
    2908:	0f 90       	pop	r0
    290a:	0f 90       	pop	r0
    290c:	df 91       	pop	r29
    290e:	cf 91       	pop	r28
    2910:	1f 91       	pop	r17
    2912:	0f 91       	pop	r16
    2914:	ff 90       	pop	r15
    2916:	ef 90       	pop	r14
    2918:	df 90       	pop	r13
    291a:	cf 90       	pop	r12
    291c:	bf 90       	pop	r11
    291e:	08 95       	ret

00002920 <xQueueGenericReceive>:
/*-----------------------------------------------------------*/

BaseType_t xQueueGenericReceive( QueueHandle_t xQueue, void * const pvBuffer, TickType_t xTicksToWait, const BaseType_t xJustPeeking )
{
    2920:	bf 92       	push	r11
    2922:	cf 92       	push	r12
    2924:	df 92       	push	r13
    2926:	ef 92       	push	r14
    2928:	ff 92       	push	r15
    292a:	0f 93       	push	r16
    292c:	1f 93       	push	r17
    292e:	cf 93       	push	r28
    2930:	df 93       	push	r29
    2932:	00 d0       	rcall	.+0      	; 0x2934 <xQueueGenericReceive+0x14>
    2934:	1f 92       	push	r1
    2936:	1f 92       	push	r1
    2938:	cd b7       	in	r28, 0x3d	; 61
    293a:	de b7       	in	r29, 0x3e	; 62
    293c:	8c 01       	movw	r16, r24
    293e:	6b 01       	movw	r12, r22
    2940:	5d 83       	std	Y+5, r21	; 0x05
    2942:	4c 83       	std	Y+4, r20	; 0x04
    2944:	b2 2e       	mov	r11, r18
BaseType_t xEntryTimeSet = pdFALSE;
    2946:	30 e0       	ldi	r19, 0x00	; 0
						mtCOVERAGE_TEST_MARKER();
					}
				}
				#endif

				vTaskPlaceOnEventList( &( pxQueue->xTasksWaitingToReceive ), xTicksToWait );
    2948:	7c 01       	movw	r14, r24
    294a:	81 e1       	ldi	r24, 0x11	; 17
    294c:	e8 0e       	add	r14, r24
    294e:	f1 1c       	adc	r15, r1
	statements within the function itself.  This is done in the interest
	of execution time efficiency. */

	for( ;; )
	{
		taskENTER_CRITICAL();
    2950:	0f b6       	in	r0, 0x3f	; 63
    2952:	f8 94       	cli
    2954:	0f 92       	push	r0
		{
			/* Is there data in the queue now?  To be running we must be
			the highest priority task wanting to access the queue. */
			if( pxQueue->uxMessagesWaiting > ( UBaseType_t ) 0 )
    2956:	f8 01       	movw	r30, r16
    2958:	82 8d       	ldd	r24, Z+26	; 0x1a
    295a:	88 23       	and	r24, r24
    295c:	61 f1       	breq	.+88     	; 0x29b6 <xQueueGenericReceive+0x96>
			{
				/* Remember the read position in case the queue is only being
				peeked. */
				pcOriginalReadPosition = pxQueue->u.pcReadFrom;
    295e:	e6 80       	ldd	r14, Z+6	; 0x06
    2960:	f7 80       	ldd	r15, Z+7	; 0x07

				prvCopyDataFromQueue( pxQueue, pvBuffer );
    2962:	b6 01       	movw	r22, r12
    2964:	c8 01       	movw	r24, r16
    2966:	9e de       	rcall	.-708    	; 0x26a4 <prvCopyDataFromQueue>
				if( xJustPeeking == pdFALSE )
				{
					traceQUEUE_RECEIVE( pxQueue );

					/* Actually removing data, not just peeking. */
					--( pxQueue->uxMessagesWaiting );
    2968:	f8 01       	movw	r30, r16
				peeked. */
				pcOriginalReadPosition = pxQueue->u.pcReadFrom;

				prvCopyDataFromQueue( pxQueue, pvBuffer );

				if( xJustPeeking == pdFALSE )
    296a:	b1 10       	cpse	r11, r1
    296c:	16 c0       	rjmp	.+44     	; 0x299a <xQueueGenericReceive+0x7a>
				{
					traceQUEUE_RECEIVE( pxQueue );

					/* Actually removing data, not just peeking. */
					--( pxQueue->uxMessagesWaiting );
    296e:	82 8d       	ldd	r24, Z+26	; 0x1a
    2970:	81 50       	subi	r24, 0x01	; 1
    2972:	82 8f       	std	Z+26, r24	; 0x1a

					#if ( configUSE_MUTEXES == 1 )
					{
						if( pxQueue->uxQueueType == queueQUEUE_IS_MUTEX )
    2974:	80 81       	ld	r24, Z
    2976:	91 81       	ldd	r25, Z+1	; 0x01
    2978:	89 2b       	or	r24, r25
    297a:	21 f4       	brne	.+8      	; 0x2984 <xQueueGenericReceive+0x64>
						{
							/* Record the information required to implement
							priority inheritance should it become necessary. */
							pxQueue->pxMutexHolder = ( int8_t * ) pvTaskIncrementMutexHeldCount(); /*lint !e961 Cast is not redundant as TaskHandle_t is a typedef. */
    297c:	cc d4       	rcall	.+2456   	; 0x3316 <pvTaskIncrementMutexHeldCount>
    297e:	f8 01       	movw	r30, r16
    2980:	93 83       	std	Z+3, r25	; 0x03
    2982:	82 83       	std	Z+2, r24	; 0x02
							mtCOVERAGE_TEST_MARKER();
						}
					}
					#endif /* configUSE_MUTEXES */

					if( listLIST_IS_EMPTY( &( pxQueue->xTasksWaitingToSend ) ) == pdFALSE )
    2984:	f8 01       	movw	r30, r16
    2986:	80 85       	ldd	r24, Z+8	; 0x08
    2988:	88 23       	and	r24, r24
    298a:	89 f0       	breq	.+34     	; 0x29ae <xQueueGenericReceive+0x8e>
					{
						if( xTaskRemoveFromEventList( &( pxQueue->xTasksWaitingToSend ) ) == pdTRUE )
    298c:	c8 01       	movw	r24, r16
    298e:	08 96       	adiw	r24, 0x08	; 8
    2990:	b4 d3       	rcall	.+1896   	; 0x30fa <xTaskRemoveFromEventList>
    2992:	81 30       	cpi	r24, 0x01	; 1
    2994:	61 f4       	brne	.+24     	; 0x29ae <xQueueGenericReceive+0x8e>
						{
							queueYIELD_IF_USING_PREEMPTION();
    2996:	6d dd       	rcall	.-1318   	; 0x2472 <vPortYield>
    2998:	0a c0       	rjmp	.+20     	; 0x29ae <xQueueGenericReceive+0x8e>
				{
					traceQUEUE_PEEK( pxQueue );

					/* The data is not being removed, so reset the read
					pointer. */
					pxQueue->u.pcReadFrom = pcOriginalReadPosition;
    299a:	f7 82       	std	Z+7, r15	; 0x07
    299c:	e6 82       	std	Z+6, r14	; 0x06

					/* The data is being left in the queue, so see if there are
					any other tasks waiting for the data. */
					if( listLIST_IS_EMPTY( &( pxQueue->xTasksWaitingToReceive ) ) == pdFALSE )
    299e:	81 89       	ldd	r24, Z+17	; 0x11
    29a0:	88 23       	and	r24, r24
    29a2:	29 f0       	breq	.+10     	; 0x29ae <xQueueGenericReceive+0x8e>
					{
						/* Tasks that are removed from the event list will get added to
						the pending ready list as the scheduler is still suspended. */
						if( xTaskRemoveFromEventList( &( pxQueue->xTasksWaitingToReceive ) ) != pdFALSE )
    29a4:	c8 01       	movw	r24, r16
    29a6:	41 96       	adiw	r24, 0x11	; 17
    29a8:	a8 d3       	rcall	.+1872   	; 0x30fa <xTaskRemoveFromEventList>
    29aa:	81 11       	cpse	r24, r1
    29ac:	f4 cf       	rjmp	.-24     	; 0x2996 <xQueueGenericReceive+0x76>
					{
						mtCOVERAGE_TEST_MARKER();
					}
				}

				taskEXIT_CRITICAL();
    29ae:	0f 90       	pop	r0
    29b0:	0f be       	out	0x3f, r0	; 63
				return pdPASS;
    29b2:	81 e0       	ldi	r24, 0x01	; 1
    29b4:	52 c0       	rjmp	.+164    	; 0x2a5a <xQueueGenericReceive+0x13a>
			}
			else
			{
				if( xTicksToWait == ( TickType_t ) 0 )
    29b6:	8c 81       	ldd	r24, Y+4	; 0x04
    29b8:	9d 81       	ldd	r25, Y+5	; 0x05
    29ba:	89 2b       	or	r24, r25
    29bc:	19 f4       	brne	.+6      	; 0x29c4 <xQueueGenericReceive+0xa4>
				{
					/* The queue was empty and no block time is specified (or
					the block time has expired) so leave now. */
					taskEXIT_CRITICAL();
    29be:	0f 90       	pop	r0
    29c0:	0f be       	out	0x3f, r0	; 63
    29c2:	4a c0       	rjmp	.+148    	; 0x2a58 <xQueueGenericReceive+0x138>
					traceQUEUE_RECEIVE_FAILED( pxQueue );
					return errQUEUE_EMPTY;
				}
				else if( xEntryTimeSet == pdFALSE )
    29c4:	31 11       	cpse	r19, r1
    29c6:	03 c0       	rjmp	.+6      	; 0x29ce <xQueueGenericReceive+0xae>
				{
					/* The queue was empty and a block time was specified so
					configure the timeout structure. */
					vTaskSetTimeOutState( &xTimeOut );
    29c8:	ce 01       	movw	r24, r28
    29ca:	01 96       	adiw	r24, 0x01	; 1
    29cc:	d6 d3       	rcall	.+1964   	; 0x317a <vTaskSetTimeOutState>
					/* Entry time was already set. */
					mtCOVERAGE_TEST_MARKER();
				}
			}
		}
		taskEXIT_CRITICAL();
    29ce:	0f 90       	pop	r0
    29d0:	0f be       	out	0x3f, r0	; 63

		/* Interrupts and other tasks can send to and receive from the queue
		now the critical section has been exited. */

		vTaskSuspendAll();
    29d2:	bb d1       	rcall	.+886    	; 0x2d4a <vTaskSuspendAll>
		prvLockQueue( pxQueue );
    29d4:	0f b6       	in	r0, 0x3f	; 63
    29d6:	f8 94       	cli
    29d8:	0f 92       	push	r0
    29da:	f8 01       	movw	r30, r16
    29dc:	85 8d       	ldd	r24, Z+29	; 0x1d
    29de:	8f 3f       	cpi	r24, 0xFF	; 255
    29e0:	09 f4       	brne	.+2      	; 0x29e4 <xQueueGenericReceive+0xc4>
    29e2:	15 8e       	std	Z+29, r1	; 0x1d
    29e4:	f8 01       	movw	r30, r16
    29e6:	86 8d       	ldd	r24, Z+30	; 0x1e
    29e8:	8f 3f       	cpi	r24, 0xFF	; 255
    29ea:	09 f4       	brne	.+2      	; 0x29ee <xQueueGenericReceive+0xce>
    29ec:	16 8e       	std	Z+30, r1	; 0x1e
    29ee:	0f 90       	pop	r0
    29f0:	0f be       	out	0x3f, r0	; 63

		/* Update the timeout state to see if it has expired yet. */
		if( xTaskCheckForTimeOut( &xTimeOut, &xTicksToWait ) == pdFALSE )
    29f2:	be 01       	movw	r22, r28
    29f4:	6c 5f       	subi	r22, 0xFC	; 252
    29f6:	7f 4f       	sbci	r23, 0xFF	; 255
    29f8:	ce 01       	movw	r24, r28
    29fa:	01 96       	adiw	r24, 0x01	; 1
    29fc:	c9 d3       	rcall	.+1938   	; 0x3190 <xTaskCheckForTimeOut>
    29fe:	81 11       	cpse	r24, r1
    2a00:	28 c0       	rjmp	.+80     	; 0x2a52 <xQueueGenericReceive+0x132>

static BaseType_t prvIsQueueEmpty( const Queue_t *pxQueue )
{
BaseType_t xReturn;

	taskENTER_CRITICAL();
    2a02:	0f b6       	in	r0, 0x3f	; 63
    2a04:	f8 94       	cli
    2a06:	0f 92       	push	r0
	{
		if( pxQueue->uxMessagesWaiting == ( UBaseType_t )  0 )
    2a08:	f8 01       	movw	r30, r16
    2a0a:	82 8d       	ldd	r24, Z+26	; 0x1a
		else
		{
			xReturn = pdFALSE;
		}
	}
	taskEXIT_CRITICAL();
    2a0c:	0f 90       	pop	r0
    2a0e:	0f be       	out	0x3f, r0	; 63
		prvLockQueue( pxQueue );

		/* Update the timeout state to see if it has expired yet. */
		if( xTaskCheckForTimeOut( &xTimeOut, &xTicksToWait ) == pdFALSE )
		{
			if( prvIsQueueEmpty( pxQueue ) != pdFALSE )
    2a10:	81 11       	cpse	r24, r1
    2a12:	1b c0       	rjmp	.+54     	; 0x2a4a <xQueueGenericReceive+0x12a>
			{
				traceBLOCKING_ON_QUEUE_RECEIVE( pxQueue );

				#if ( configUSE_MUTEXES == 1 )
				{
					if( pxQueue->uxQueueType == queueQUEUE_IS_MUTEX )
    2a14:	f8 01       	movw	r30, r16
    2a16:	80 81       	ld	r24, Z
    2a18:	91 81       	ldd	r25, Z+1	; 0x01
    2a1a:	89 2b       	or	r24, r25
    2a1c:	49 f4       	brne	.+18     	; 0x2a30 <xQueueGenericReceive+0x110>
					{
						taskENTER_CRITICAL();
    2a1e:	0f b6       	in	r0, 0x3f	; 63
    2a20:	f8 94       	cli
    2a22:	0f 92       	push	r0
						{
							vTaskPriorityInherit( ( void * ) pxQueue->pxMutexHolder );
    2a24:	f8 01       	movw	r30, r16
    2a26:	82 81       	ldd	r24, Z+2	; 0x02
    2a28:	93 81       	ldd	r25, Z+3	; 0x03
    2a2a:	e7 d3       	rcall	.+1998   	; 0x31fa <vTaskPriorityInherit>
						}
						taskEXIT_CRITICAL();
    2a2c:	0f 90       	pop	r0
    2a2e:	0f be       	out	0x3f, r0	; 63
						mtCOVERAGE_TEST_MARKER();
					}
				}
				#endif

				vTaskPlaceOnEventList( &( pxQueue->xTasksWaitingToReceive ), xTicksToWait );
    2a30:	6c 81       	ldd	r22, Y+4	; 0x04
    2a32:	7d 81       	ldd	r23, Y+5	; 0x05
    2a34:	c7 01       	movw	r24, r14
    2a36:	36 d3       	rcall	.+1644   	; 0x30a4 <vTaskPlaceOnEventList>
				prvUnlockQueue( pxQueue );
    2a38:	c8 01       	movw	r24, r16
    2a3a:	4e de       	rcall	.-868    	; 0x26d8 <prvUnlockQueue>
				if( xTaskResumeAll() == pdFALSE )
    2a3c:	38 d2       	rcall	.+1136   	; 0x2eae <xTaskResumeAll>
    2a3e:	88 23       	and	r24, r24
    2a40:	11 f0       	breq	.+4      	; 0x2a46 <xQueueGenericReceive+0x126>
    2a42:	31 e0       	ldi	r19, 0x01	; 1
    2a44:	85 cf       	rjmp	.-246    	; 0x2950 <xQueueGenericReceive+0x30>
				{
					portYIELD_WITHIN_API();
    2a46:	15 dd       	rcall	.-1494   	; 0x2472 <vPortYield>
    2a48:	fc cf       	rjmp	.-8      	; 0x2a42 <xQueueGenericReceive+0x122>
				}
			}
			else
			{
				/* Try again. */
				prvUnlockQueue( pxQueue );
    2a4a:	c8 01       	movw	r24, r16
    2a4c:	45 de       	rcall	.-886    	; 0x26d8 <prvUnlockQueue>
				( void ) xTaskResumeAll();
    2a4e:	2f d2       	rcall	.+1118   	; 0x2eae <xTaskResumeAll>
    2a50:	f8 cf       	rjmp	.-16     	; 0x2a42 <xQueueGenericReceive+0x122>
			}
		}
		else
		{
			prvUnlockQueue( pxQueue );
    2a52:	c8 01       	movw	r24, r16
    2a54:	41 de       	rcall	.-894    	; 0x26d8 <prvUnlockQueue>
			( void ) xTaskResumeAll();
    2a56:	2b d2       	rcall	.+1110   	; 0x2eae <xTaskResumeAll>
			traceQUEUE_RECEIVE_FAILED( pxQueue );
			return errQUEUE_EMPTY;
    2a58:	80 e0       	ldi	r24, 0x00	; 0
		}
	}
}
    2a5a:	0f 90       	pop	r0
    2a5c:	0f 90       	pop	r0
    2a5e:	0f 90       	pop	r0
    2a60:	0f 90       	pop	r0
    2a62:	0f 90       	pop	r0
    2a64:	df 91       	pop	r29
    2a66:	cf 91       	pop	r28
    2a68:	1f 91       	pop	r17
    2a6a:	0f 91       	pop	r16
    2a6c:	ff 90       	pop	r15
    2a6e:	ef 90       	pop	r14
    2a70:	df 90       	pop	r13
    2a72:	cf 90       	pop	r12
    2a74:	bf 90       	pop	r11
    2a76:	08 95       	ret

00002a78 <prvResetNextTaskUnblockTime>:
	/* Reset the event list item to its normal value - so it can be used with
	queues and semaphores. */
	listSET_LIST_ITEM_VALUE( &( pxCurrentTCB->xEventListItem ), ( ( TickType_t ) configMAX_PRIORITIES - ( TickType_t ) pxCurrentTCB->uxPriority ) ); /*lint !e961 MISRA exception as the casts are only redundant for some ports. */

	return uxReturn;
}
    2a78:	e0 91 d6 18 	lds	r30, 0x18D6
    2a7c:	f0 91 d7 18 	lds	r31, 0x18D7
    2a80:	80 81       	ld	r24, Z
    2a82:	81 11       	cpse	r24, r1
    2a84:	03 c0       	rjmp	.+6      	; 0x2a8c <prvResetNextTaskUnblockTime+0x14>
    2a86:	8f ef       	ldi	r24, 0xFF	; 255
    2a88:	9f ef       	ldi	r25, 0xFF	; 255
    2a8a:	0c c0       	rjmp	.+24     	; 0x2aa4 <prvResetNextTaskUnblockTime+0x2c>
    2a8c:	e0 91 d6 18 	lds	r30, 0x18D6
    2a90:	f0 91 d7 18 	lds	r31, 0x18D7
    2a94:	05 80       	ldd	r0, Z+5	; 0x05
    2a96:	f6 81       	ldd	r31, Z+6	; 0x06
    2a98:	e0 2d       	mov	r30, r0
    2a9a:	06 80       	ldd	r0, Z+6	; 0x06
    2a9c:	f7 81       	ldd	r31, Z+7	; 0x07
    2a9e:	e0 2d       	mov	r30, r0
    2aa0:	82 81       	ldd	r24, Z+2	; 0x02
    2aa2:	93 81       	ldd	r25, Z+3	; 0x03
    2aa4:	90 93 17 02 	sts	0x0217, r25
    2aa8:	80 93 16 02 	sts	0x0216, r24
    2aac:	08 95       	ret

00002aae <prvAddCurrentTaskToDelayedList>:
    2aae:	cf 93       	push	r28
    2ab0:	df 93       	push	r29
    2ab2:	ec 01       	movw	r28, r24
    2ab4:	e0 91 0e 19 	lds	r30, 0x190E
    2ab8:	f0 91 0f 19 	lds	r31, 0x190F
    2abc:	93 83       	std	Z+3, r25	; 0x03
    2abe:	82 83       	std	Z+2, r24	; 0x02
    2ac0:	80 91 b5 18 	lds	r24, 0x18B5
    2ac4:	90 91 b6 18 	lds	r25, 0x18B6
    2ac8:	60 91 0e 19 	lds	r22, 0x190E
    2acc:	70 91 0f 19 	lds	r23, 0x190F
    2ad0:	c8 17       	cp	r28, r24
    2ad2:	d9 07       	cpc	r29, r25
    2ad4:	48 f4       	brcc	.+18     	; 0x2ae8 <prvAddCurrentTaskToDelayedList+0x3a>
    2ad6:	80 91 d4 18 	lds	r24, 0x18D4
    2ada:	90 91 d5 18 	lds	r25, 0x18D5
    2ade:	6e 5f       	subi	r22, 0xFE	; 254
    2ae0:	7f 4f       	sbci	r23, 0xFF	; 255
    2ae2:	df 91       	pop	r29
    2ae4:	cf 91       	pop	r28
    2ae6:	99 ca       	rjmp	.-2766   	; 0x201a <vListInsert>
    2ae8:	80 91 d6 18 	lds	r24, 0x18D6
    2aec:	90 91 d7 18 	lds	r25, 0x18D7
    2af0:	6e 5f       	subi	r22, 0xFE	; 254
    2af2:	7f 4f       	sbci	r23, 0xFF	; 255
    2af4:	92 da       	rcall	.-2780   	; 0x201a <vListInsert>
    2af6:	80 91 16 02 	lds	r24, 0x0216
    2afa:	90 91 17 02 	lds	r25, 0x0217
    2afe:	c8 17       	cp	r28, r24
    2b00:	d9 07       	cpc	r29, r25
    2b02:	20 f4       	brcc	.+8      	; 0x2b0c <prvAddCurrentTaskToDelayedList+0x5e>
    2b04:	d0 93 17 02 	sts	0x0217, r29
    2b08:	c0 93 16 02 	sts	0x0216, r28
    2b0c:	df 91       	pop	r29
    2b0e:	cf 91       	pop	r28
    2b10:	08 95       	ret

00002b12 <xTaskGenericCreate>:
    2b12:	5f 92       	push	r5
    2b14:	6f 92       	push	r6
    2b16:	7f 92       	push	r7
    2b18:	8f 92       	push	r8
    2b1a:	9f 92       	push	r9
    2b1c:	af 92       	push	r10
    2b1e:	bf 92       	push	r11
    2b20:	cf 92       	push	r12
    2b22:	df 92       	push	r13
    2b24:	ef 92       	push	r14
    2b26:	ff 92       	push	r15
    2b28:	0f 93       	push	r16
    2b2a:	1f 93       	push	r17
    2b2c:	cf 93       	push	r28
    2b2e:	df 93       	push	r29
    2b30:	4c 01       	movw	r8, r24
    2b32:	16 2f       	mov	r17, r22
    2b34:	57 2e       	mov	r5, r23
    2b36:	5a 01       	movw	r10, r20
    2b38:	39 01       	movw	r6, r18
    2b3a:	83 e2       	ldi	r24, 0x23	; 35
    2b3c:	90 e0       	ldi	r25, 0x00	; 0
    2b3e:	09 da       	rcall	.-3054   	; 0x1f52 <pvPortMalloc>
    2b40:	ec 01       	movw	r28, r24
    2b42:	00 97       	sbiw	r24, 0x00	; 0
    2b44:	09 f4       	brne	.+2      	; 0x2b48 <xTaskGenericCreate+0x36>
    2b46:	c0 c0       	rjmp	.+384    	; 0x2cc8 <xTaskGenericCreate+0x1b6>
    2b48:	c1 14       	cp	r12, r1
    2b4a:	d1 04       	cpc	r13, r1
    2b4c:	19 f4       	brne	.+6      	; 0x2b54 <xTaskGenericCreate+0x42>
    2b4e:	c5 01       	movw	r24, r10
    2b50:	00 da       	rcall	.-3072   	; 0x1f52 <pvPortMalloc>
    2b52:	01 c0       	rjmp	.+2      	; 0x2b56 <xTaskGenericCreate+0x44>
    2b54:	c6 01       	movw	r24, r12
    2b56:	98 8f       	std	Y+24, r25	; 0x18
    2b58:	8f 8b       	std	Y+23, r24	; 0x17
    2b5a:	00 97       	sbiw	r24, 0x00	; 0
    2b5c:	19 f4       	brne	.+6      	; 0x2b64 <xTaskGenericCreate+0x52>
    2b5e:	ce 01       	movw	r24, r28
    2b60:	28 da       	rcall	.-2992   	; 0x1fb2 <vPortFree>
    2b62:	b2 c0       	rjmp	.+356    	; 0x2cc8 <xTaskGenericCreate+0x1b6>
    2b64:	21 e0       	ldi	r18, 0x01	; 1
    2b66:	a2 1a       	sub	r10, r18
    2b68:	b1 08       	sbc	r11, r1
    2b6a:	a8 0e       	add	r10, r24
    2b6c:	b9 1e       	adc	r11, r25
    2b6e:	e1 2f       	mov	r30, r17
    2b70:	f5 2d       	mov	r31, r5
    2b72:	80 e0       	ldi	r24, 0x00	; 0
    2b74:	90 e0       	ldi	r25, 0x00	; 0
    2b76:	bf 01       	movw	r22, r30
    2b78:	41 91       	ld	r20, Z+
    2b7a:	9e 01       	movw	r18, r28
    2b7c:	28 0f       	add	r18, r24
    2b7e:	39 1f       	adc	r19, r25
    2b80:	d9 01       	movw	r26, r18
    2b82:	59 96       	adiw	r26, 0x19	; 25
    2b84:	4c 93       	st	X, r20
    2b86:	db 01       	movw	r26, r22
    2b88:	2c 91       	ld	r18, X
    2b8a:	22 23       	and	r18, r18
    2b8c:	21 f0       	breq	.+8      	; 0x2b96 <xTaskGenericCreate+0x84>
    2b8e:	01 96       	adiw	r24, 0x01	; 1
    2b90:	88 30       	cpi	r24, 0x08	; 8
    2b92:	91 05       	cpc	r25, r1
    2b94:	81 f7       	brne	.-32     	; 0x2b76 <xTaskGenericCreate+0x64>
    2b96:	18 a2       	std	Y+32, r1	; 0x20
    2b98:	10 2f       	mov	r17, r16
    2b9a:	04 30       	cpi	r16, 0x04	; 4
    2b9c:	08 f0       	brcs	.+2      	; 0x2ba0 <xTaskGenericCreate+0x8e>
    2b9e:	13 e0       	ldi	r17, 0x03	; 3
    2ba0:	1e 8b       	std	Y+22, r17	; 0x16
    2ba2:	19 a3       	std	Y+33, r17	; 0x21
    2ba4:	1a a2       	std	Y+34, r1	; 0x22
    2ba6:	6e 01       	movw	r12, r28
    2ba8:	b2 e0       	ldi	r27, 0x02	; 2
    2baa:	cb 0e       	add	r12, r27
    2bac:	d1 1c       	adc	r13, r1
    2bae:	c6 01       	movw	r24, r12
    2bb0:	0f da       	rcall	.-3042   	; 0x1fd0 <vListInitialiseItem>
    2bb2:	ce 01       	movw	r24, r28
    2bb4:	0c 96       	adiw	r24, 0x0c	; 12
    2bb6:	0c da       	rcall	.-3048   	; 0x1fd0 <vListInitialiseItem>
    2bb8:	d9 87       	std	Y+9, r29	; 0x09
    2bba:	c8 87       	std	Y+8, r28	; 0x08
    2bbc:	84 e0       	ldi	r24, 0x04	; 4
    2bbe:	90 e0       	ldi	r25, 0x00	; 0
    2bc0:	81 1b       	sub	r24, r17
    2bc2:	91 09       	sbc	r25, r1
    2bc4:	9d 87       	std	Y+13, r25	; 0x0d
    2bc6:	8c 87       	std	Y+12, r24	; 0x0c
    2bc8:	db 8b       	std	Y+19, r29	; 0x13
    2bca:	ca 8b       	std	Y+18, r28	; 0x12
    2bcc:	a3 01       	movw	r20, r6
    2bce:	b4 01       	movw	r22, r8
    2bd0:	c5 01       	movw	r24, r10
    2bd2:	9f db       	rcall	.-2242   	; 0x2312 <pxPortInitialiseStack>
    2bd4:	99 83       	std	Y+1, r25	; 0x01
    2bd6:	88 83       	st	Y, r24
    2bd8:	e1 14       	cp	r14, r1
    2bda:	f1 04       	cpc	r15, r1
    2bdc:	19 f0       	breq	.+6      	; 0x2be4 <xTaskGenericCreate+0xd2>
    2bde:	f7 01       	movw	r30, r14
    2be0:	d1 83       	std	Z+1, r29	; 0x01
    2be2:	c0 83       	st	Z, r28
    2be4:	0f b6       	in	r0, 0x3f	; 63
    2be6:	f8 94       	cli
    2be8:	0f 92       	push	r0
    2bea:	80 91 b7 18 	lds	r24, 0x18B7
    2bee:	8f 5f       	subi	r24, 0xFF	; 255
    2bf0:	80 93 b7 18 	sts	0x18B7, r24
    2bf4:	80 91 0e 19 	lds	r24, 0x190E
    2bf8:	90 91 0f 19 	lds	r25, 0x190F
    2bfc:	89 2b       	or	r24, r25
    2bfe:	89 f5       	brne	.+98     	; 0x2c62 <xTaskGenericCreate+0x150>
    2c00:	d0 93 0f 19 	sts	0x190F, r29
    2c04:	c0 93 0e 19 	sts	0x190E, r28
    2c08:	80 91 b7 18 	lds	r24, 0x18B7
    2c0c:	81 30       	cpi	r24, 0x01	; 1
    2c0e:	09 f0       	breq	.+2      	; 0x2c12 <xTaskGenericCreate+0x100>
    2c10:	37 c0       	rjmp	.+110    	; 0x2c80 <xTaskGenericCreate+0x16e>
    2c12:	8a ee       	ldi	r24, 0xEA	; 234
    2c14:	98 e1       	ldi	r25, 0x18	; 24
    2c16:	ce d9       	rcall	.-3172   	; 0x1fb4 <vListInitialise>
    2c18:	83 ef       	ldi	r24, 0xF3	; 243
    2c1a:	98 e1       	ldi	r25, 0x18	; 24
    2c1c:	cb d9       	rcall	.-3178   	; 0x1fb4 <vListInitialise>
    2c1e:	8c ef       	ldi	r24, 0xFC	; 252
    2c20:	98 e1       	ldi	r25, 0x18	; 24
    2c22:	c8 d9       	rcall	.-3184   	; 0x1fb4 <vListInitialise>
    2c24:	85 e0       	ldi	r24, 0x05	; 5
    2c26:	99 e1       	ldi	r25, 0x19	; 25
    2c28:	c5 d9       	rcall	.-3190   	; 0x1fb4 <vListInitialise>
    2c2a:	81 ee       	ldi	r24, 0xE1	; 225
    2c2c:	98 e1       	ldi	r25, 0x18	; 24
    2c2e:	c2 d9       	rcall	.-3196   	; 0x1fb4 <vListInitialise>
    2c30:	88 ed       	ldi	r24, 0xD8	; 216
    2c32:	98 e1       	ldi	r25, 0x18	; 24
    2c34:	bf d9       	rcall	.-3202   	; 0x1fb4 <vListInitialise>
    2c36:	8b ec       	ldi	r24, 0xCB	; 203
    2c38:	98 e1       	ldi	r25, 0x18	; 24
    2c3a:	bc d9       	rcall	.-3208   	; 0x1fb4 <vListInitialise>
    2c3c:	82 ec       	ldi	r24, 0xC2	; 194
    2c3e:	98 e1       	ldi	r25, 0x18	; 24
    2c40:	b9 d9       	rcall	.-3214   	; 0x1fb4 <vListInitialise>
    2c42:	88 eb       	ldi	r24, 0xB8	; 184
    2c44:	98 e1       	ldi	r25, 0x18	; 24
    2c46:	b6 d9       	rcall	.-3220   	; 0x1fb4 <vListInitialise>
    2c48:	81 ee       	ldi	r24, 0xE1	; 225
    2c4a:	98 e1       	ldi	r25, 0x18	; 24
    2c4c:	90 93 d7 18 	sts	0x18D7, r25
    2c50:	80 93 d6 18 	sts	0x18D6, r24
    2c54:	88 ed       	ldi	r24, 0xD8	; 216
    2c56:	98 e1       	ldi	r25, 0x18	; 24
    2c58:	90 93 d5 18 	sts	0x18D5, r25
    2c5c:	80 93 d4 18 	sts	0x18D4, r24
    2c60:	0f c0       	rjmp	.+30     	; 0x2c80 <xTaskGenericCreate+0x16e>
    2c62:	80 91 b3 18 	lds	r24, 0x18B3
    2c66:	81 11       	cpse	r24, r1
    2c68:	0b c0       	rjmp	.+22     	; 0x2c80 <xTaskGenericCreate+0x16e>
    2c6a:	e0 91 0e 19 	lds	r30, 0x190E
    2c6e:	f0 91 0f 19 	lds	r31, 0x190F
    2c72:	86 89       	ldd	r24, Z+22	; 0x16
    2c74:	08 17       	cp	r16, r24
    2c76:	20 f0       	brcs	.+8      	; 0x2c80 <xTaskGenericCreate+0x16e>
    2c78:	d0 93 0f 19 	sts	0x190F, r29
    2c7c:	c0 93 0e 19 	sts	0x190E, r28
    2c80:	80 91 af 18 	lds	r24, 0x18AF
    2c84:	8f 5f       	subi	r24, 0xFF	; 255
    2c86:	80 93 af 18 	sts	0x18AF, r24
    2c8a:	8e 89       	ldd	r24, Y+22	; 0x16
    2c8c:	90 91 b4 18 	lds	r25, 0x18B4
    2c90:	98 17       	cp	r25, r24
    2c92:	10 f4       	brcc	.+4      	; 0x2c98 <xTaskGenericCreate+0x186>
    2c94:	80 93 b4 18 	sts	0x18B4, r24
    2c98:	f9 e0       	ldi	r31, 0x09	; 9
    2c9a:	8f 9f       	mul	r24, r31
    2c9c:	c0 01       	movw	r24, r0
    2c9e:	11 24       	eor	r1, r1
    2ca0:	b6 01       	movw	r22, r12
    2ca2:	86 51       	subi	r24, 0x16	; 22
    2ca4:	97 4e       	sbci	r25, 0xE7	; 231
    2ca6:	98 d9       	rcall	.-3280   	; 0x1fd8 <vListInsertEnd>
    2ca8:	0f 90       	pop	r0
    2caa:	0f be       	out	0x3f, r0	; 63
    2cac:	80 91 b3 18 	lds	r24, 0x18B3
    2cb0:	88 23       	and	r24, r24
    2cb2:	41 f0       	breq	.+16     	; 0x2cc4 <xTaskGenericCreate+0x1b2>
    2cb4:	e0 91 0e 19 	lds	r30, 0x190E
    2cb8:	f0 91 0f 19 	lds	r31, 0x190F
    2cbc:	86 89       	ldd	r24, Z+22	; 0x16
    2cbe:	80 17       	cp	r24, r16
    2cc0:	08 f4       	brcc	.+2      	; 0x2cc4 <xTaskGenericCreate+0x1b2>
    2cc2:	d7 db       	rcall	.-2130   	; 0x2472 <vPortYield>
    2cc4:	81 e0       	ldi	r24, 0x01	; 1
    2cc6:	01 c0       	rjmp	.+2      	; 0x2cca <xTaskGenericCreate+0x1b8>
    2cc8:	8f ef       	ldi	r24, 0xFF	; 255
    2cca:	df 91       	pop	r29
    2ccc:	cf 91       	pop	r28
    2cce:	1f 91       	pop	r17
    2cd0:	0f 91       	pop	r16
    2cd2:	ff 90       	pop	r15
    2cd4:	ef 90       	pop	r14
    2cd6:	df 90       	pop	r13
    2cd8:	cf 90       	pop	r12
    2cda:	bf 90       	pop	r11
    2cdc:	af 90       	pop	r10
    2cde:	9f 90       	pop	r9
    2ce0:	8f 90       	pop	r8
    2ce2:	7f 90       	pop	r7
    2ce4:	6f 90       	pop	r6
    2ce6:	5f 90       	pop	r5
    2ce8:	08 95       	ret

00002cea <vTaskStartScheduler>:
    2cea:	af 92       	push	r10
    2cec:	bf 92       	push	r11
    2cee:	cf 92       	push	r12
    2cf0:	df 92       	push	r13
    2cf2:	ef 92       	push	r14
    2cf4:	ff 92       	push	r15
    2cf6:	0f 93       	push	r16
    2cf8:	a1 2c       	mov	r10, r1
    2cfa:	b1 2c       	mov	r11, r1
    2cfc:	c1 2c       	mov	r12, r1
    2cfe:	d1 2c       	mov	r13, r1
    2d00:	e1 2c       	mov	r14, r1
    2d02:	f1 2c       	mov	r15, r1
    2d04:	00 e0       	ldi	r16, 0x00	; 0
    2d06:	20 e0       	ldi	r18, 0x00	; 0
    2d08:	30 e0       	ldi	r19, 0x00	; 0
    2d0a:	45 e5       	ldi	r20, 0x55	; 85
    2d0c:	50 e0       	ldi	r21, 0x00	; 0
    2d0e:	62 e0       	ldi	r22, 0x02	; 2
    2d10:	73 e0       	ldi	r23, 0x03	; 3
    2d12:	82 ee       	ldi	r24, 0xE2	; 226
    2d14:	97 e1       	ldi	r25, 0x17	; 23
    2d16:	fd de       	rcall	.-518    	; 0x2b12 <xTaskGenericCreate>
    2d18:	81 30       	cpi	r24, 0x01	; 1
    2d1a:	79 f4       	brne	.+30     	; 0x2d3a <vTaskStartScheduler+0x50>
    2d1c:	f8 94       	cli
    2d1e:	80 93 b3 18 	sts	0x18B3, r24
    2d22:	10 92 b6 18 	sts	0x18B6, r1
    2d26:	10 92 b5 18 	sts	0x18B5, r1
    2d2a:	0f 91       	pop	r16
    2d2c:	ff 90       	pop	r15
    2d2e:	ef 90       	pop	r14
    2d30:	df 90       	pop	r13
    2d32:	cf 90       	pop	r12
    2d34:	bf 90       	pop	r11
    2d36:	af 90       	pop	r10
    2d38:	5e cb       	rjmp	.-2372   	; 0x23f6 <xPortStartScheduler>
    2d3a:	0f 91       	pop	r16
    2d3c:	ff 90       	pop	r15
    2d3e:	ef 90       	pop	r14
    2d40:	df 90       	pop	r13
    2d42:	cf 90       	pop	r12
    2d44:	bf 90       	pop	r11
    2d46:	af 90       	pop	r10
    2d48:	08 95       	ret

00002d4a <vTaskSuspendAll>:
    2d4a:	80 91 ae 18 	lds	r24, 0x18AE
    2d4e:	8f 5f       	subi	r24, 0xFF	; 255
    2d50:	80 93 ae 18 	sts	0x18AE, r24
    2d54:	08 95       	ret

00002d56 <xTaskIncrementTick>:
    2d56:	cf 92       	push	r12
    2d58:	df 92       	push	r13
    2d5a:	ef 92       	push	r14
    2d5c:	ff 92       	push	r15
    2d5e:	0f 93       	push	r16
    2d60:	1f 93       	push	r17
    2d62:	cf 93       	push	r28
    2d64:	df 93       	push	r29
    2d66:	80 91 ae 18 	lds	r24, 0x18AE
    2d6a:	81 11       	cpse	r24, r1
    2d6c:	8a c0       	rjmp	.+276    	; 0x2e82 <xTaskIncrementTick+0x12c>
    2d6e:	80 91 b5 18 	lds	r24, 0x18B5
    2d72:	90 91 b6 18 	lds	r25, 0x18B6
    2d76:	01 96       	adiw	r24, 0x01	; 1
    2d78:	90 93 b6 18 	sts	0x18B6, r25
    2d7c:	80 93 b5 18 	sts	0x18B5, r24
    2d80:	00 91 b5 18 	lds	r16, 0x18B5
    2d84:	10 91 b6 18 	lds	r17, 0x18B6
    2d88:	01 15       	cp	r16, r1
    2d8a:	11 05       	cpc	r17, r1
    2d8c:	b1 f4       	brne	.+44     	; 0x2dba <xTaskIncrementTick+0x64>
    2d8e:	80 91 d6 18 	lds	r24, 0x18D6
    2d92:	90 91 d7 18 	lds	r25, 0x18D7
    2d96:	20 91 d4 18 	lds	r18, 0x18D4
    2d9a:	30 91 d5 18 	lds	r19, 0x18D5
    2d9e:	30 93 d7 18 	sts	0x18D7, r19
    2da2:	20 93 d6 18 	sts	0x18D6, r18
    2da6:	90 93 d5 18 	sts	0x18D5, r25
    2daa:	80 93 d4 18 	sts	0x18D4, r24
    2dae:	80 91 b0 18 	lds	r24, 0x18B0
    2db2:	8f 5f       	subi	r24, 0xFF	; 255
    2db4:	80 93 b0 18 	sts	0x18B0, r24
    2db8:	5f de       	rcall	.-834    	; 0x2a78 <prvResetNextTaskUnblockTime>
    2dba:	80 91 16 02 	lds	r24, 0x0216
    2dbe:	90 91 17 02 	lds	r25, 0x0217
    2dc2:	d1 2c       	mov	r13, r1
    2dc4:	08 17       	cp	r16, r24
    2dc6:	19 07       	cpc	r17, r25
    2dc8:	08 f4       	brcc	.+2      	; 0x2dcc <xTaskIncrementTick+0x76>
    2dca:	4a c0       	rjmp	.+148    	; 0x2e60 <xTaskIncrementTick+0x10a>
    2dcc:	89 e0       	ldi	r24, 0x09	; 9
    2dce:	c8 2e       	mov	r12, r24
    2dd0:	e0 91 d6 18 	lds	r30, 0x18D6
    2dd4:	f0 91 d7 18 	lds	r31, 0x18D7
    2dd8:	80 81       	ld	r24, Z
    2dda:	81 11       	cpse	r24, r1
    2ddc:	07 c0       	rjmp	.+14     	; 0x2dec <xTaskIncrementTick+0x96>
    2dde:	8f ef       	ldi	r24, 0xFF	; 255
    2de0:	9f ef       	ldi	r25, 0xFF	; 255
    2de2:	90 93 17 02 	sts	0x0217, r25
    2de6:	80 93 16 02 	sts	0x0216, r24
    2dea:	3a c0       	rjmp	.+116    	; 0x2e60 <xTaskIncrementTick+0x10a>
    2dec:	e0 91 d6 18 	lds	r30, 0x18D6
    2df0:	f0 91 d7 18 	lds	r31, 0x18D7
    2df4:	05 80       	ldd	r0, Z+5	; 0x05
    2df6:	f6 81       	ldd	r31, Z+6	; 0x06
    2df8:	e0 2d       	mov	r30, r0
    2dfa:	c6 81       	ldd	r28, Z+6	; 0x06
    2dfc:	d7 81       	ldd	r29, Z+7	; 0x07
    2dfe:	2a 81       	ldd	r18, Y+2	; 0x02
    2e00:	3b 81       	ldd	r19, Y+3	; 0x03
    2e02:	02 17       	cp	r16, r18
    2e04:	13 07       	cpc	r17, r19
    2e06:	28 f4       	brcc	.+10     	; 0x2e12 <xTaskIncrementTick+0xbc>
    2e08:	30 93 17 02 	sts	0x0217, r19
    2e0c:	20 93 16 02 	sts	0x0216, r18
    2e10:	27 c0       	rjmp	.+78     	; 0x2e60 <xTaskIncrementTick+0x10a>
    2e12:	7e 01       	movw	r14, r28
    2e14:	82 e0       	ldi	r24, 0x02	; 2
    2e16:	e8 0e       	add	r14, r24
    2e18:	f1 1c       	adc	r15, r1
    2e1a:	c7 01       	movw	r24, r14
    2e1c:	36 d9       	rcall	.-3476   	; 0x208a <uxListRemove>
    2e1e:	2c 89       	ldd	r18, Y+20	; 0x14
    2e20:	3d 89       	ldd	r19, Y+21	; 0x15
    2e22:	23 2b       	or	r18, r19
    2e24:	19 f0       	breq	.+6      	; 0x2e2c <xTaskIncrementTick+0xd6>
    2e26:	ce 01       	movw	r24, r28
    2e28:	0c 96       	adiw	r24, 0x0c	; 12
    2e2a:	2f d9       	rcall	.-3490   	; 0x208a <uxListRemove>
    2e2c:	2e 89       	ldd	r18, Y+22	; 0x16
    2e2e:	80 91 b4 18 	lds	r24, 0x18B4
    2e32:	82 17       	cp	r24, r18
    2e34:	10 f4       	brcc	.+4      	; 0x2e3a <xTaskIncrementTick+0xe4>
    2e36:	20 93 b4 18 	sts	0x18B4, r18
    2e3a:	c2 9e       	mul	r12, r18
    2e3c:	c0 01       	movw	r24, r0
    2e3e:	11 24       	eor	r1, r1
    2e40:	b7 01       	movw	r22, r14
    2e42:	86 51       	subi	r24, 0x16	; 22
    2e44:	97 4e       	sbci	r25, 0xE7	; 231
    2e46:	c8 d8       	rcall	.-3696   	; 0x1fd8 <vListInsertEnd>
    2e48:	e0 91 0e 19 	lds	r30, 0x190E
    2e4c:	f0 91 0f 19 	lds	r31, 0x190F
    2e50:	9e 89       	ldd	r25, Y+22	; 0x16
    2e52:	86 89       	ldd	r24, Z+22	; 0x16
    2e54:	98 17       	cp	r25, r24
    2e56:	08 f4       	brcc	.+2      	; 0x2e5a <xTaskIncrementTick+0x104>
    2e58:	bb cf       	rjmp	.-138    	; 0x2dd0 <xTaskIncrementTick+0x7a>
    2e5a:	dd 24       	eor	r13, r13
    2e5c:	d3 94       	inc	r13
    2e5e:	b8 cf       	rjmp	.-144    	; 0x2dd0 <xTaskIncrementTick+0x7a>
    2e60:	e0 91 0e 19 	lds	r30, 0x190E
    2e64:	f0 91 0f 19 	lds	r31, 0x190F
    2e68:	e6 89       	ldd	r30, Z+22	; 0x16
    2e6a:	89 e0       	ldi	r24, 0x09	; 9
    2e6c:	e8 9f       	mul	r30, r24
    2e6e:	f0 01       	movw	r30, r0
    2e70:	11 24       	eor	r1, r1
    2e72:	e6 51       	subi	r30, 0x16	; 22
    2e74:	f7 4e       	sbci	r31, 0xE7	; 231
    2e76:	80 81       	ld	r24, Z
    2e78:	82 30       	cpi	r24, 0x02	; 2
    2e7a:	48 f0       	brcs	.+18     	; 0x2e8e <xTaskIncrementTick+0x138>
    2e7c:	dd 24       	eor	r13, r13
    2e7e:	d3 94       	inc	r13
    2e80:	06 c0       	rjmp	.+12     	; 0x2e8e <xTaskIncrementTick+0x138>
    2e82:	80 91 b2 18 	lds	r24, 0x18B2
    2e86:	8f 5f       	subi	r24, 0xFF	; 255
    2e88:	80 93 b2 18 	sts	0x18B2, r24
    2e8c:	d1 2c       	mov	r13, r1
    2e8e:	80 91 b1 18 	lds	r24, 0x18B1
    2e92:	88 23       	and	r24, r24
    2e94:	11 f0       	breq	.+4      	; 0x2e9a <xTaskIncrementTick+0x144>
    2e96:	dd 24       	eor	r13, r13
    2e98:	d3 94       	inc	r13
    2e9a:	8d 2d       	mov	r24, r13
    2e9c:	df 91       	pop	r29
    2e9e:	cf 91       	pop	r28
    2ea0:	1f 91       	pop	r17
    2ea2:	0f 91       	pop	r16
    2ea4:	ff 90       	pop	r15
    2ea6:	ef 90       	pop	r14
    2ea8:	df 90       	pop	r13
    2eaa:	cf 90       	pop	r12
    2eac:	08 95       	ret

00002eae <xTaskResumeAll>:
    2eae:	ef 92       	push	r14
    2eb0:	ff 92       	push	r15
    2eb2:	0f 93       	push	r16
    2eb4:	1f 93       	push	r17
    2eb6:	cf 93       	push	r28
    2eb8:	df 93       	push	r29
    2eba:	0f b6       	in	r0, 0x3f	; 63
    2ebc:	f8 94       	cli
    2ebe:	0f 92       	push	r0
    2ec0:	80 91 ae 18 	lds	r24, 0x18AE
    2ec4:	81 50       	subi	r24, 0x01	; 1
    2ec6:	80 93 ae 18 	sts	0x18AE, r24
    2eca:	80 91 ae 18 	lds	r24, 0x18AE
    2ece:	88 23       	and	r24, r24
    2ed0:	11 f0       	breq	.+4      	; 0x2ed6 <xTaskResumeAll+0x28>
    2ed2:	80 e0       	ldi	r24, 0x00	; 0
    2ed4:	4e c0       	rjmp	.+156    	; 0x2f72 <xTaskResumeAll+0xc4>
    2ed6:	80 91 b7 18 	lds	r24, 0x18B7
    2eda:	88 23       	and	r24, r24
    2edc:	d1 f3       	breq	.-12     	; 0x2ed2 <xTaskResumeAll+0x24>
    2ede:	99 e0       	ldi	r25, 0x09	; 9
    2ee0:	f9 2e       	mov	r15, r25
    2ee2:	ee 24       	eor	r14, r14
    2ee4:	e3 94       	inc	r14
    2ee6:	80 91 cb 18 	lds	r24, 0x18CB
    2eea:	88 23       	and	r24, r24
    2eec:	39 f1       	breq	.+78     	; 0x2f3c <xTaskResumeAll+0x8e>
    2eee:	e0 91 d0 18 	lds	r30, 0x18D0
    2ef2:	f0 91 d1 18 	lds	r31, 0x18D1
    2ef6:	c6 81       	ldd	r28, Z+6	; 0x06
    2ef8:	d7 81       	ldd	r29, Z+7	; 0x07
    2efa:	ce 01       	movw	r24, r28
    2efc:	0c 96       	adiw	r24, 0x0c	; 12
    2efe:	c5 d8       	rcall	.-3702   	; 0x208a <uxListRemove>
    2f00:	8e 01       	movw	r16, r28
    2f02:	0e 5f       	subi	r16, 0xFE	; 254
    2f04:	1f 4f       	sbci	r17, 0xFF	; 255
    2f06:	c8 01       	movw	r24, r16
    2f08:	c0 d8       	rcall	.-3712   	; 0x208a <uxListRemove>
    2f0a:	8e 89       	ldd	r24, Y+22	; 0x16
    2f0c:	90 91 b4 18 	lds	r25, 0x18B4
    2f10:	98 17       	cp	r25, r24
    2f12:	10 f4       	brcc	.+4      	; 0x2f18 <xTaskResumeAll+0x6a>
    2f14:	80 93 b4 18 	sts	0x18B4, r24
    2f18:	f8 9e       	mul	r15, r24
    2f1a:	c0 01       	movw	r24, r0
    2f1c:	11 24       	eor	r1, r1
    2f1e:	b8 01       	movw	r22, r16
    2f20:	86 51       	subi	r24, 0x16	; 22
    2f22:	97 4e       	sbci	r25, 0xE7	; 231
    2f24:	59 d8       	rcall	.-3918   	; 0x1fd8 <vListInsertEnd>
    2f26:	e0 91 0e 19 	lds	r30, 0x190E
    2f2a:	f0 91 0f 19 	lds	r31, 0x190F
    2f2e:	9e 89       	ldd	r25, Y+22	; 0x16
    2f30:	86 89       	ldd	r24, Z+22	; 0x16
    2f32:	98 17       	cp	r25, r24
    2f34:	c0 f2       	brcs	.-80     	; 0x2ee6 <xTaskResumeAll+0x38>
    2f36:	e0 92 b1 18 	sts	0x18B1, r14
    2f3a:	d5 cf       	rjmp	.-86     	; 0x2ee6 <xTaskResumeAll+0x38>
    2f3c:	80 91 b2 18 	lds	r24, 0x18B2
    2f40:	81 11       	cpse	r24, r1
    2f42:	08 c0       	rjmp	.+16     	; 0x2f54 <xTaskResumeAll+0xa6>
    2f44:	80 91 b1 18 	lds	r24, 0x18B1
    2f48:	81 30       	cpi	r24, 0x01	; 1
    2f4a:	09 f0       	breq	.+2      	; 0x2f4e <xTaskResumeAll+0xa0>
    2f4c:	c2 cf       	rjmp	.-124    	; 0x2ed2 <xTaskResumeAll+0x24>
    2f4e:	91 da       	rcall	.-2782   	; 0x2472 <vPortYield>
    2f50:	81 e0       	ldi	r24, 0x01	; 1
    2f52:	0f c0       	rjmp	.+30     	; 0x2f72 <xTaskResumeAll+0xc4>
    2f54:	c1 e0       	ldi	r28, 0x01	; 1
    2f56:	80 91 b2 18 	lds	r24, 0x18B2
    2f5a:	88 23       	and	r24, r24
    2f5c:	99 f3       	breq	.-26     	; 0x2f44 <xTaskResumeAll+0x96>
    2f5e:	fb de       	rcall	.-522    	; 0x2d56 <xTaskIncrementTick>
    2f60:	81 11       	cpse	r24, r1
    2f62:	c0 93 b1 18 	sts	0x18B1, r28
    2f66:	80 91 b2 18 	lds	r24, 0x18B2
    2f6a:	81 50       	subi	r24, 0x01	; 1
    2f6c:	80 93 b2 18 	sts	0x18B2, r24
    2f70:	f2 cf       	rjmp	.-28     	; 0x2f56 <xTaskResumeAll+0xa8>
    2f72:	0f 90       	pop	r0
    2f74:	0f be       	out	0x3f, r0	; 63
    2f76:	df 91       	pop	r29
    2f78:	cf 91       	pop	r28
    2f7a:	1f 91       	pop	r17
    2f7c:	0f 91       	pop	r16
    2f7e:	ff 90       	pop	r15
    2f80:	ef 90       	pop	r14
    2f82:	08 95       	ret

00002f84 <vTaskDelay>:
    2f84:	0f 93       	push	r16
    2f86:	1f 93       	push	r17
    2f88:	cf 93       	push	r28
    2f8a:	df 93       	push	r29
    2f8c:	8c 01       	movw	r16, r24
    2f8e:	00 97       	sbiw	r24, 0x00	; 0
    2f90:	11 f4       	brne	.+4      	; 0x2f96 <vTaskDelay+0x12>
    2f92:	6f da       	rcall	.-2850   	; 0x2472 <vPortYield>
    2f94:	12 c0       	rjmp	.+36     	; 0x2fba <vTaskDelay+0x36>
    2f96:	d9 de       	rcall	.-590    	; 0x2d4a <vTaskSuspendAll>
    2f98:	c0 91 b5 18 	lds	r28, 0x18B5
    2f9c:	d0 91 b6 18 	lds	r29, 0x18B6
    2fa0:	c0 0f       	add	r28, r16
    2fa2:	d1 1f       	adc	r29, r17
    2fa4:	80 91 0e 19 	lds	r24, 0x190E
    2fa8:	90 91 0f 19 	lds	r25, 0x190F
    2fac:	02 96       	adiw	r24, 0x02	; 2
    2fae:	6d d8       	rcall	.-3878   	; 0x208a <uxListRemove>
    2fb0:	ce 01       	movw	r24, r28
    2fb2:	7d dd       	rcall	.-1286   	; 0x2aae <prvAddCurrentTaskToDelayedList>
    2fb4:	7c df       	rcall	.-264    	; 0x2eae <xTaskResumeAll>
    2fb6:	88 23       	and	r24, r24
    2fb8:	61 f3       	breq	.-40     	; 0x2f92 <vTaskDelay+0xe>
    2fba:	df 91       	pop	r29
    2fbc:	cf 91       	pop	r28
    2fbe:	1f 91       	pop	r17
    2fc0:	0f 91       	pop	r16
    2fc2:	08 95       	ret

00002fc4 <prvIdleTask>:
    2fc4:	80 91 c1 18 	lds	r24, 0x18C1
    2fc8:	88 23       	and	r24, r24
    2fca:	31 f1       	breq	.+76     	; 0x3018 <prvIdleTask+0x54>
    2fcc:	be de       	rcall	.-644    	; 0x2d4a <vTaskSuspendAll>
    2fce:	c0 91 c2 18 	lds	r28, 0x18C2
    2fd2:	6d df       	rcall	.-294    	; 0x2eae <xTaskResumeAll>
    2fd4:	cc 23       	and	r28, r28
    2fd6:	b1 f3       	breq	.-20     	; 0x2fc4 <prvIdleTask>
    2fd8:	0f b6       	in	r0, 0x3f	; 63
    2fda:	f8 94       	cli
    2fdc:	0f 92       	push	r0
    2fde:	e0 91 c7 18 	lds	r30, 0x18C7
    2fe2:	f0 91 c8 18 	lds	r31, 0x18C8
    2fe6:	c6 81       	ldd	r28, Z+6	; 0x06
    2fe8:	d7 81       	ldd	r29, Z+7	; 0x07
    2fea:	ce 01       	movw	r24, r28
    2fec:	02 96       	adiw	r24, 0x02	; 2
    2fee:	4d d8       	rcall	.-3942   	; 0x208a <uxListRemove>
    2ff0:	80 91 b7 18 	lds	r24, 0x18B7
    2ff4:	81 50       	subi	r24, 0x01	; 1
    2ff6:	80 93 b7 18 	sts	0x18B7, r24
    2ffa:	80 91 c1 18 	lds	r24, 0x18C1
    2ffe:	81 50       	subi	r24, 0x01	; 1
    3000:	80 93 c1 18 	sts	0x18C1, r24
    3004:	0f 90       	pop	r0
    3006:	0f be       	out	0x3f, r0	; 63
    3008:	8f 89       	ldd	r24, Y+23	; 0x17
    300a:	98 8d       	ldd	r25, Y+24	; 0x18
    300c:	0e 94 d9 0f 	call	0x1fb2	; 0x1fb2 <vPortFree>
    3010:	ce 01       	movw	r24, r28
    3012:	0e 94 d9 0f 	call	0x1fb2	; 0x1fb2 <vPortFree>
    3016:	d6 cf       	rjmp	.-84     	; 0x2fc4 <prvIdleTask>
    3018:	80 91 ea 18 	lds	r24, 0x18EA
    301c:	82 30       	cpi	r24, 0x02	; 2
    301e:	90 f2       	brcs	.-92     	; 0x2fc4 <prvIdleTask>
    3020:	28 da       	rcall	.-2992   	; 0x2472 <vPortYield>
    3022:	d0 cf       	rjmp	.-96     	; 0x2fc4 <prvIdleTask>

00003024 <vTaskSwitchContext>:
    3024:	80 91 ae 18 	lds	r24, 0x18AE
    3028:	88 23       	and	r24, r24
    302a:	21 f0       	breq	.+8      	; 0x3034 <vTaskSwitchContext+0x10>
    302c:	81 e0       	ldi	r24, 0x01	; 1
    302e:	80 93 b1 18 	sts	0x18B1, r24
    3032:	08 95       	ret
    3034:	10 92 b1 18 	sts	0x18B1, r1
    3038:	99 e0       	ldi	r25, 0x09	; 9
    303a:	e0 91 b4 18 	lds	r30, 0x18B4
    303e:	9e 9f       	mul	r25, r30
    3040:	f0 01       	movw	r30, r0
    3042:	11 24       	eor	r1, r1
    3044:	e6 51       	subi	r30, 0x16	; 22
    3046:	f7 4e       	sbci	r31, 0xE7	; 231
    3048:	80 81       	ld	r24, Z
    304a:	81 11       	cpse	r24, r1
    304c:	06 c0       	rjmp	.+12     	; 0x305a <vTaskSwitchContext+0x36>
    304e:	80 91 b4 18 	lds	r24, 0x18B4
    3052:	81 50       	subi	r24, 0x01	; 1
    3054:	80 93 b4 18 	sts	0x18B4, r24
    3058:	f0 cf       	rjmp	.-32     	; 0x303a <vTaskSwitchContext+0x16>
    305a:	e0 91 b4 18 	lds	r30, 0x18B4
    305e:	89 e0       	ldi	r24, 0x09	; 9
    3060:	e8 9f       	mul	r30, r24
    3062:	f0 01       	movw	r30, r0
    3064:	11 24       	eor	r1, r1
    3066:	e6 51       	subi	r30, 0x16	; 22
    3068:	f7 4e       	sbci	r31, 0xE7	; 231
    306a:	a1 81       	ldd	r26, Z+1	; 0x01
    306c:	b2 81       	ldd	r27, Z+2	; 0x02
    306e:	12 96       	adiw	r26, 0x02	; 2
    3070:	0d 90       	ld	r0, X+
    3072:	bc 91       	ld	r27, X
    3074:	a0 2d       	mov	r26, r0
    3076:	b2 83       	std	Z+2, r27	; 0x02
    3078:	a1 83       	std	Z+1, r26	; 0x01
    307a:	cf 01       	movw	r24, r30
    307c:	03 96       	adiw	r24, 0x03	; 3
    307e:	a8 17       	cp	r26, r24
    3080:	b9 07       	cpc	r27, r25
    3082:	31 f4       	brne	.+12     	; 0x3090 <vTaskSwitchContext+0x6c>
    3084:	12 96       	adiw	r26, 0x02	; 2
    3086:	8d 91       	ld	r24, X+
    3088:	9c 91       	ld	r25, X
    308a:	13 97       	sbiw	r26, 0x03	; 3
    308c:	92 83       	std	Z+2, r25	; 0x02
    308e:	81 83       	std	Z+1, r24	; 0x01
    3090:	01 80       	ldd	r0, Z+1	; 0x01
    3092:	f2 81       	ldd	r31, Z+2	; 0x02
    3094:	e0 2d       	mov	r30, r0
    3096:	86 81       	ldd	r24, Z+6	; 0x06
    3098:	97 81       	ldd	r25, Z+7	; 0x07
    309a:	90 93 0f 19 	sts	0x190F, r25
    309e:	80 93 0e 19 	sts	0x190E, r24
    30a2:	08 95       	ret

000030a4 <vTaskPlaceOnEventList>:
    30a4:	cf 93       	push	r28
    30a6:	df 93       	push	r29
    30a8:	eb 01       	movw	r28, r22
    30aa:	60 91 0e 19 	lds	r22, 0x190E
    30ae:	70 91 0f 19 	lds	r23, 0x190F
    30b2:	64 5f       	subi	r22, 0xF4	; 244
    30b4:	7f 4f       	sbci	r23, 0xFF	; 255
    30b6:	0e 94 0d 10 	call	0x201a	; 0x201a <vListInsert>
    30ba:	80 91 0e 19 	lds	r24, 0x190E
    30be:	90 91 0f 19 	lds	r25, 0x190F
    30c2:	02 96       	adiw	r24, 0x02	; 2
    30c4:	0e 94 45 10 	call	0x208a	; 0x208a <uxListRemove>
    30c8:	cf 3f       	cpi	r28, 0xFF	; 255
    30ca:	8f ef       	ldi	r24, 0xFF	; 255
    30cc:	d8 07       	cpc	r29, r24
    30ce:	61 f4       	brne	.+24     	; 0x30e8 <vTaskPlaceOnEventList+0x44>
    30d0:	60 91 0e 19 	lds	r22, 0x190E
    30d4:	70 91 0f 19 	lds	r23, 0x190F
    30d8:	6e 5f       	subi	r22, 0xFE	; 254
    30da:	7f 4f       	sbci	r23, 0xFF	; 255
    30dc:	88 eb       	ldi	r24, 0xB8	; 184
    30de:	98 e1       	ldi	r25, 0x18	; 24
    30e0:	df 91       	pop	r29
    30e2:	cf 91       	pop	r28
    30e4:	0c 94 ec 0f 	jmp	0x1fd8	; 0x1fd8 <vListInsertEnd>
    30e8:	80 91 b5 18 	lds	r24, 0x18B5
    30ec:	90 91 b6 18 	lds	r25, 0x18B6
    30f0:	8c 0f       	add	r24, r28
    30f2:	9d 1f       	adc	r25, r29
    30f4:	df 91       	pop	r29
    30f6:	cf 91       	pop	r28
    30f8:	da cc       	rjmp	.-1612   	; 0x2aae <prvAddCurrentTaskToDelayedList>

000030fa <xTaskRemoveFromEventList>:
    30fa:	0f 93       	push	r16
    30fc:	1f 93       	push	r17
    30fe:	cf 93       	push	r28
    3100:	df 93       	push	r29
    3102:	dc 01       	movw	r26, r24
    3104:	15 96       	adiw	r26, 0x05	; 5
    3106:	ed 91       	ld	r30, X+
    3108:	fc 91       	ld	r31, X
    310a:	16 97       	sbiw	r26, 0x06	; 6
    310c:	c6 81       	ldd	r28, Z+6	; 0x06
    310e:	d7 81       	ldd	r29, Z+7	; 0x07
    3110:	8e 01       	movw	r16, r28
    3112:	04 5f       	subi	r16, 0xF4	; 244
    3114:	1f 4f       	sbci	r17, 0xFF	; 255
    3116:	c8 01       	movw	r24, r16
    3118:	0e 94 45 10 	call	0x208a	; 0x208a <uxListRemove>
    311c:	80 91 ae 18 	lds	r24, 0x18AE
    3120:	81 11       	cpse	r24, r1
    3122:	14 c0       	rjmp	.+40     	; 0x314c <xTaskRemoveFromEventList+0x52>
    3124:	0a 50       	subi	r16, 0x0A	; 10
    3126:	11 09       	sbc	r17, r1
    3128:	c8 01       	movw	r24, r16
    312a:	0e 94 45 10 	call	0x208a	; 0x208a <uxListRemove>
    312e:	8e 89       	ldd	r24, Y+22	; 0x16
    3130:	90 91 b4 18 	lds	r25, 0x18B4
    3134:	98 17       	cp	r25, r24
    3136:	10 f4       	brcc	.+4      	; 0x313c <xTaskRemoveFromEventList+0x42>
    3138:	80 93 b4 18 	sts	0x18B4, r24
    313c:	b9 e0       	ldi	r27, 0x09	; 9
    313e:	8b 9f       	mul	r24, r27
    3140:	c0 01       	movw	r24, r0
    3142:	11 24       	eor	r1, r1
    3144:	b8 01       	movw	r22, r16
    3146:	86 51       	subi	r24, 0x16	; 22
    3148:	97 4e       	sbci	r25, 0xE7	; 231
    314a:	03 c0       	rjmp	.+6      	; 0x3152 <xTaskRemoveFromEventList+0x58>
    314c:	b8 01       	movw	r22, r16
    314e:	8b ec       	ldi	r24, 0xCB	; 203
    3150:	98 e1       	ldi	r25, 0x18	; 24
    3152:	0e 94 ec 0f 	call	0x1fd8	; 0x1fd8 <vListInsertEnd>
    3156:	e0 91 0e 19 	lds	r30, 0x190E
    315a:	f0 91 0f 19 	lds	r31, 0x190F
    315e:	9e 89       	ldd	r25, Y+22	; 0x16
    3160:	86 89       	ldd	r24, Z+22	; 0x16
    3162:	89 17       	cp	r24, r25
    3164:	20 f4       	brcc	.+8      	; 0x316e <xTaskRemoveFromEventList+0x74>
    3166:	81 e0       	ldi	r24, 0x01	; 1
    3168:	80 93 b1 18 	sts	0x18B1, r24
    316c:	01 c0       	rjmp	.+2      	; 0x3170 <xTaskRemoveFromEventList+0x76>
    316e:	80 e0       	ldi	r24, 0x00	; 0
    3170:	df 91       	pop	r29
    3172:	cf 91       	pop	r28
    3174:	1f 91       	pop	r17
    3176:	0f 91       	pop	r16
    3178:	08 95       	ret

0000317a <vTaskSetTimeOutState>:
    317a:	20 91 b0 18 	lds	r18, 0x18B0
    317e:	fc 01       	movw	r30, r24
    3180:	20 83       	st	Z, r18
    3182:	20 91 b5 18 	lds	r18, 0x18B5
    3186:	30 91 b6 18 	lds	r19, 0x18B6
    318a:	32 83       	std	Z+2, r19	; 0x02
    318c:	21 83       	std	Z+1, r18	; 0x01
    318e:	08 95       	ret

00003190 <xTaskCheckForTimeOut>:
    3190:	cf 93       	push	r28
    3192:	df 93       	push	r29
    3194:	0f b6       	in	r0, 0x3f	; 63
    3196:	f8 94       	cli
    3198:	0f 92       	push	r0
    319a:	e0 91 b5 18 	lds	r30, 0x18B5
    319e:	f0 91 b6 18 	lds	r31, 0x18B6
    31a2:	db 01       	movw	r26, r22
    31a4:	4d 91       	ld	r20, X+
    31a6:	5c 91       	ld	r21, X
    31a8:	4f 3f       	cpi	r20, 0xFF	; 255
    31aa:	bf ef       	ldi	r27, 0xFF	; 255
    31ac:	5b 07       	cpc	r21, r27
    31ae:	c9 f0       	breq	.+50     	; 0x31e2 <xTaskCheckForTimeOut+0x52>
    31b0:	b0 91 b0 18 	lds	r27, 0x18B0
    31b4:	ec 01       	movw	r28, r24
    31b6:	a8 81       	ld	r26, Y
    31b8:	29 81       	ldd	r18, Y+1	; 0x01
    31ba:	3a 81       	ldd	r19, Y+2	; 0x02
    31bc:	ba 17       	cp	r27, r26
    31be:	19 f0       	breq	.+6      	; 0x31c6 <xTaskCheckForTimeOut+0x36>
    31c0:	e2 17       	cp	r30, r18
    31c2:	f3 07       	cpc	r31, r19
    31c4:	80 f4       	brcc	.+32     	; 0x31e6 <xTaskCheckForTimeOut+0x56>
    31c6:	df 01       	movw	r26, r30
    31c8:	a2 1b       	sub	r26, r18
    31ca:	b3 0b       	sbc	r27, r19
    31cc:	a4 17       	cp	r26, r20
    31ce:	b5 07       	cpc	r27, r21
    31d0:	50 f4       	brcc	.+20     	; 0x31e6 <xTaskCheckForTimeOut+0x56>
    31d2:	2e 1b       	sub	r18, r30
    31d4:	3f 0b       	sbc	r19, r31
    31d6:	24 0f       	add	r18, r20
    31d8:	35 1f       	adc	r19, r21
    31da:	fb 01       	movw	r30, r22
    31dc:	31 83       	std	Z+1, r19	; 0x01
    31de:	20 83       	st	Z, r18
    31e0:	cc df       	rcall	.-104    	; 0x317a <vTaskSetTimeOutState>
    31e2:	80 e0       	ldi	r24, 0x00	; 0
    31e4:	01 c0       	rjmp	.+2      	; 0x31e8 <xTaskCheckForTimeOut+0x58>
    31e6:	81 e0       	ldi	r24, 0x01	; 1
    31e8:	0f 90       	pop	r0
    31ea:	0f be       	out	0x3f, r0	; 63
    31ec:	df 91       	pop	r29
    31ee:	cf 91       	pop	r28
    31f0:	08 95       	ret

000031f2 <vTaskMissedYield>:
    31f2:	81 e0       	ldi	r24, 0x01	; 1
    31f4:	80 93 b1 18 	sts	0x18B1, r24
    31f8:	08 95       	ret

000031fa <vTaskPriorityInherit>:
    31fa:	0f 93       	push	r16
    31fc:	1f 93       	push	r17
    31fe:	cf 93       	push	r28
    3200:	df 93       	push	r29
    3202:	ec 01       	movw	r28, r24
    3204:	00 97       	sbiw	r24, 0x00	; 0
    3206:	09 f4       	brne	.+2      	; 0x320a <vTaskPriorityInherit+0x10>
    3208:	48 c0       	rjmp	.+144    	; 0x329a <vTaskPriorityInherit+0xa0>
    320a:	8e 89       	ldd	r24, Y+22	; 0x16
    320c:	e0 91 0e 19 	lds	r30, 0x190E
    3210:	f0 91 0f 19 	lds	r31, 0x190F
    3214:	96 89       	ldd	r25, Z+22	; 0x16
    3216:	89 17       	cp	r24, r25
    3218:	08 f0       	brcs	.+2      	; 0x321c <vTaskPriorityInherit+0x22>
    321a:	3f c0       	rjmp	.+126    	; 0x329a <vTaskPriorityInherit+0xa0>
    321c:	2c 85       	ldd	r18, Y+12	; 0x0c
    321e:	3d 85       	ldd	r19, Y+13	; 0x0d
    3220:	37 fd       	sbrc	r19, 7
    3222:	0b c0       	rjmp	.+22     	; 0x323a <vTaskPriorityInherit+0x40>
    3224:	e0 91 0e 19 	lds	r30, 0x190E
    3228:	f0 91 0f 19 	lds	r31, 0x190F
    322c:	96 89       	ldd	r25, Z+22	; 0x16
    322e:	24 e0       	ldi	r18, 0x04	; 4
    3230:	30 e0       	ldi	r19, 0x00	; 0
    3232:	29 1b       	sub	r18, r25
    3234:	31 09       	sbc	r19, r1
    3236:	3d 87       	std	Y+13, r19	; 0x0d
    3238:	2c 87       	std	Y+12, r18	; 0x0c
    323a:	29 e0       	ldi	r18, 0x09	; 9
    323c:	82 9f       	mul	r24, r18
    323e:	c0 01       	movw	r24, r0
    3240:	11 24       	eor	r1, r1
    3242:	86 51       	subi	r24, 0x16	; 22
    3244:	97 4e       	sbci	r25, 0xE7	; 231
    3246:	2a 85       	ldd	r18, Y+10	; 0x0a
    3248:	3b 85       	ldd	r19, Y+11	; 0x0b
    324a:	28 17       	cp	r18, r24
    324c:	39 07       	cpc	r19, r25
    324e:	f9 f4       	brne	.+62     	; 0x328e <vTaskPriorityInherit+0x94>
    3250:	8e 01       	movw	r16, r28
    3252:	0e 5f       	subi	r16, 0xFE	; 254
    3254:	1f 4f       	sbci	r17, 0xFF	; 255
    3256:	c8 01       	movw	r24, r16
    3258:	0e 94 45 10 	call	0x208a	; 0x208a <uxListRemove>
    325c:	e0 91 0e 19 	lds	r30, 0x190E
    3260:	f0 91 0f 19 	lds	r31, 0x190F
    3264:	86 89       	ldd	r24, Z+22	; 0x16
    3266:	8e 8b       	std	Y+22, r24	; 0x16
    3268:	90 91 b4 18 	lds	r25, 0x18B4
    326c:	98 17       	cp	r25, r24
    326e:	10 f4       	brcc	.+4      	; 0x3274 <vTaskPriorityInherit+0x7a>
    3270:	80 93 b4 18 	sts	0x18B4, r24
    3274:	29 e0       	ldi	r18, 0x09	; 9
    3276:	82 9f       	mul	r24, r18
    3278:	c0 01       	movw	r24, r0
    327a:	11 24       	eor	r1, r1
    327c:	b8 01       	movw	r22, r16
    327e:	86 51       	subi	r24, 0x16	; 22
    3280:	97 4e       	sbci	r25, 0xE7	; 231
    3282:	df 91       	pop	r29
    3284:	cf 91       	pop	r28
    3286:	1f 91       	pop	r17
    3288:	0f 91       	pop	r16
    328a:	0c 94 ec 0f 	jmp	0x1fd8	; 0x1fd8 <vListInsertEnd>
    328e:	e0 91 0e 19 	lds	r30, 0x190E
    3292:	f0 91 0f 19 	lds	r31, 0x190F
    3296:	86 89       	ldd	r24, Z+22	; 0x16
    3298:	8e 8b       	std	Y+22, r24	; 0x16
    329a:	df 91       	pop	r29
    329c:	cf 91       	pop	r28
    329e:	1f 91       	pop	r17
    32a0:	0f 91       	pop	r16
    32a2:	08 95       	ret

000032a4 <xTaskPriorityDisinherit>:
    32a4:	0f 93       	push	r16
    32a6:	1f 93       	push	r17
    32a8:	cf 93       	push	r28
    32aa:	df 93       	push	r29
    32ac:	ec 01       	movw	r28, r24
    32ae:	00 97       	sbiw	r24, 0x00	; 0
    32b0:	11 f4       	brne	.+4      	; 0x32b6 <xTaskPriorityDisinherit+0x12>
    32b2:	80 e0       	ldi	r24, 0x00	; 0
    32b4:	2b c0       	rjmp	.+86     	; 0x330c <xTaskPriorityDisinherit+0x68>
    32b6:	8a a1       	ldd	r24, Y+34	; 0x22
    32b8:	81 50       	subi	r24, 0x01	; 1
    32ba:	8a a3       	std	Y+34, r24	; 0x22
    32bc:	2e 89       	ldd	r18, Y+22	; 0x16
    32be:	99 a1       	ldd	r25, Y+33	; 0x21
    32c0:	29 17       	cp	r18, r25
    32c2:	b9 f3       	breq	.-18     	; 0x32b2 <xTaskPriorityDisinherit+0xe>
    32c4:	81 11       	cpse	r24, r1
    32c6:	f5 cf       	rjmp	.-22     	; 0x32b2 <xTaskPriorityDisinherit+0xe>
    32c8:	8e 01       	movw	r16, r28
    32ca:	0e 5f       	subi	r16, 0xFE	; 254
    32cc:	1f 4f       	sbci	r17, 0xFF	; 255
    32ce:	c8 01       	movw	r24, r16
    32d0:	0e 94 45 10 	call	0x208a	; 0x208a <uxListRemove>
    32d4:	89 a1       	ldd	r24, Y+33	; 0x21
    32d6:	8e 8b       	std	Y+22, r24	; 0x16
    32d8:	48 2f       	mov	r20, r24
    32da:	50 e0       	ldi	r21, 0x00	; 0
    32dc:	24 e0       	ldi	r18, 0x04	; 4
    32de:	30 e0       	ldi	r19, 0x00	; 0
    32e0:	24 1b       	sub	r18, r20
    32e2:	35 0b       	sbc	r19, r21
    32e4:	3d 87       	std	Y+13, r19	; 0x0d
    32e6:	2c 87       	std	Y+12, r18	; 0x0c
    32e8:	90 91 b4 18 	lds	r25, 0x18B4
    32ec:	98 17       	cp	r25, r24
    32ee:	10 f4       	brcc	.+4      	; 0x32f4 <xTaskPriorityDisinherit+0x50>
    32f0:	80 93 b4 18 	sts	0x18B4, r24
    32f4:	29 e0       	ldi	r18, 0x09	; 9
    32f6:	24 9f       	mul	r18, r20
    32f8:	c0 01       	movw	r24, r0
    32fa:	25 9f       	mul	r18, r21
    32fc:	90 0d       	add	r25, r0
    32fe:	11 24       	eor	r1, r1
    3300:	b8 01       	movw	r22, r16
    3302:	86 51       	subi	r24, 0x16	; 22
    3304:	97 4e       	sbci	r25, 0xE7	; 231
    3306:	0e 94 ec 0f 	call	0x1fd8	; 0x1fd8 <vListInsertEnd>
    330a:	81 e0       	ldi	r24, 0x01	; 1
    330c:	df 91       	pop	r29
    330e:	cf 91       	pop	r28
    3310:	1f 91       	pop	r17
    3312:	0f 91       	pop	r16
    3314:	08 95       	ret

00003316 <pvTaskIncrementMutexHeldCount>:

	void *pvTaskIncrementMutexHeldCount( void )
	{
		/* If xSemaphoreCreateMutex() is called before any tasks have been created
		then pxCurrentTCB will be NULL. */
		if( pxCurrentTCB != NULL )
    3316:	80 91 0e 19 	lds	r24, 0x190E
    331a:	90 91 0f 19 	lds	r25, 0x190F
    331e:	89 2b       	or	r24, r25
    3320:	39 f0       	breq	.+14     	; 0x3330 <pvTaskIncrementMutexHeldCount+0x1a>
		{
			( pxCurrentTCB->uxMutexesHeld )++;
    3322:	e0 91 0e 19 	lds	r30, 0x190E
    3326:	f0 91 0f 19 	lds	r31, 0x190F
    332a:	82 a1       	ldd	r24, Z+34	; 0x22
    332c:	8f 5f       	subi	r24, 0xFF	; 255
    332e:	82 a3       	std	Z+34, r24	; 0x22
		}

		return pxCurrentTCB;
    3330:	80 91 0e 19 	lds	r24, 0x190E
    3334:	90 91 0f 19 	lds	r25, 0x190F
	}
    3338:	08 95       	ret

0000333a <twi_init>:
{
  // transmit master read ready signal, with or without ack
  if(ack){
    TWCR = _BV(TWEN) | _BV(TWIE) | _BV(TWINT) | _BV(TWEA);
  }else{
	  TWCR = _BV(TWEN) | _BV(TWIE) | _BV(TWINT);
    333a:	10 92 7d 19 	sts	0x197D, r1
    333e:	81 e0       	ldi	r24, 0x01	; 1
    3340:	80 93 7b 19 	sts	0x197B, r24
    3344:	10 92 7a 19 	sts	0x197A, r1
    3348:	61 e0       	ldi	r22, 0x01	; 1
    334a:	84 e1       	ldi	r24, 0x14	; 20
    334c:	0e 94 3d 27 	call	0x4e7a	; 0x4e7a <digitalWrite>
    3350:	61 e0       	ldi	r22, 0x01	; 1
    3352:	85 e1       	ldi	r24, 0x15	; 21
    3354:	0e 94 3d 27 	call	0x4e7a	; 0x4e7a <digitalWrite>
    3358:	e9 eb       	ldi	r30, 0xB9	; 185
    335a:	f0 e0       	ldi	r31, 0x00	; 0
    335c:	80 81       	ld	r24, Z
    335e:	8e 7f       	andi	r24, 0xFE	; 254
    3360:	80 83       	st	Z, r24
    3362:	80 81       	ld	r24, Z
    3364:	8d 7f       	andi	r24, 0xFD	; 253
    3366:	80 83       	st	Z, r24
    3368:	88 e4       	ldi	r24, 0x48	; 72
    336a:	80 93 b8 00 	sts	0x00B8, r24
    336e:	85 e4       	ldi	r24, 0x45	; 69
    3370:	80 93 bc 00 	sts	0x00BC, r24
    3374:	08 95       	ret

00003376 <twi_readFrom>:
    3376:	41 32       	cpi	r20, 0x21	; 33
    3378:	08 f0       	brcs	.+2      	; 0x337c <twi_readFrom+0x6>
    337a:	3f c0       	rjmp	.+126    	; 0x33fa <twi_readFrom+0x84>
    337c:	90 91 7d 19 	lds	r25, 0x197D
    3380:	91 11       	cpse	r25, r1
    3382:	fc cf       	rjmp	.-8      	; 0x337c <twi_readFrom+0x6>
    3384:	91 e0       	ldi	r25, 0x01	; 1
    3386:	90 93 7d 19 	sts	0x197D, r25
    338a:	20 93 7b 19 	sts	0x197B, r18
    338e:	2f ef       	ldi	r18, 0xFF	; 255
    3390:	20 93 10 19 	sts	0x1910, r18
    3394:	10 92 55 19 	sts	0x1955, r1
    3398:	24 0f       	add	r18, r20
    339a:	20 93 54 19 	sts	0x1954, r18
    339e:	90 93 7c 19 	sts	0x197C, r25
    33a2:	90 91 7c 19 	lds	r25, 0x197C
    33a6:	88 0f       	add	r24, r24
    33a8:	89 2b       	or	r24, r25
    33aa:	80 93 7c 19 	sts	0x197C, r24
    33ae:	80 91 7a 19 	lds	r24, 0x197A
    33b2:	81 30       	cpi	r24, 0x01	; 1
    33b4:	41 f4       	brne	.+16     	; 0x33c6 <twi_readFrom+0x50>
    33b6:	10 92 7a 19 	sts	0x197A, r1
    33ba:	80 91 7c 19 	lds	r24, 0x197C
    33be:	80 93 bb 00 	sts	0x00BB, r24
    33c2:	85 ec       	ldi	r24, 0xC5	; 197
    33c4:	01 c0       	rjmp	.+2      	; 0x33c8 <twi_readFrom+0x52>
    33c6:	85 ee       	ldi	r24, 0xE5	; 229
    33c8:	80 93 bc 00 	sts	0x00BC, r24
    33cc:	80 91 7d 19 	lds	r24, 0x197D
    33d0:	81 30       	cpi	r24, 0x01	; 1
    33d2:	e1 f3       	breq	.-8      	; 0x33cc <twi_readFrom+0x56>
    33d4:	80 91 55 19 	lds	r24, 0x1955
    33d8:	84 17       	cp	r24, r20
    33da:	10 f4       	brcc	.+4      	; 0x33e0 <twi_readFrom+0x6a>
    33dc:	40 91 55 19 	lds	r20, 0x1955
    33e0:	26 e5       	ldi	r18, 0x56	; 86
    33e2:	39 e1       	ldi	r19, 0x19	; 25
    33e4:	fb 01       	movw	r30, r22
    33e6:	d9 01       	movw	r26, r18
    33e8:	8a 2f       	mov	r24, r26
    33ea:	82 1b       	sub	r24, r18
    33ec:	84 17       	cp	r24, r20
    33ee:	18 f4       	brcc	.+6      	; 0x33f6 <twi_readFrom+0x80>
    33f0:	8d 91       	ld	r24, X+
    33f2:	81 93       	st	Z+, r24
    33f4:	f9 cf       	rjmp	.-14     	; 0x33e8 <twi_readFrom+0x72>
    33f6:	84 2f       	mov	r24, r20
    33f8:	08 95       	ret
    33fa:	80 e0       	ldi	r24, 0x00	; 0
    33fc:	08 95       	ret

000033fe <twi_writeTo>:
    33fe:	0f 93       	push	r16
    3400:	41 32       	cpi	r20, 0x21	; 33
    3402:	08 f0       	brcs	.+2      	; 0x3406 <twi_writeTo+0x8>
    3404:	46 c0       	rjmp	.+140    	; 0x3492 <twi_writeTo+0x94>
    3406:	90 91 7d 19 	lds	r25, 0x197D
    340a:	91 11       	cpse	r25, r1
    340c:	fc cf       	rjmp	.-8      	; 0x3406 <twi_writeTo+0x8>
    340e:	92 e0       	ldi	r25, 0x02	; 2
    3410:	90 93 7d 19 	sts	0x197D, r25
    3414:	00 93 7b 19 	sts	0x197B, r16
    3418:	9f ef       	ldi	r25, 0xFF	; 255
    341a:	90 93 10 19 	sts	0x1910, r25
    341e:	10 92 55 19 	sts	0x1955, r1
    3422:	40 93 54 19 	sts	0x1954, r20
    3426:	fb 01       	movw	r30, r22
    3428:	66 e5       	ldi	r22, 0x56	; 86
    342a:	79 e1       	ldi	r23, 0x19	; 25
    342c:	db 01       	movw	r26, r22
    342e:	9a 2f       	mov	r25, r26
    3430:	96 1b       	sub	r25, r22
    3432:	94 17       	cp	r25, r20
    3434:	18 f4       	brcc	.+6      	; 0x343c <twi_writeTo+0x3e>
    3436:	91 91       	ld	r25, Z+
    3438:	9d 93       	st	X+, r25
    343a:	f9 cf       	rjmp	.-14     	; 0x342e <twi_writeTo+0x30>
    343c:	10 92 7c 19 	sts	0x197C, r1
    3440:	90 91 7c 19 	lds	r25, 0x197C
    3444:	88 0f       	add	r24, r24
    3446:	89 2b       	or	r24, r25
    3448:	80 93 7c 19 	sts	0x197C, r24
    344c:	80 91 7a 19 	lds	r24, 0x197A
    3450:	81 30       	cpi	r24, 0x01	; 1
    3452:	41 f4       	brne	.+16     	; 0x3464 <twi_writeTo+0x66>
    3454:	10 92 7a 19 	sts	0x197A, r1
    3458:	80 91 7c 19 	lds	r24, 0x197C
    345c:	80 93 bb 00 	sts	0x00BB, r24
    3460:	85 ec       	ldi	r24, 0xC5	; 197
    3462:	01 c0       	rjmp	.+2      	; 0x3466 <twi_writeTo+0x68>
    3464:	85 ee       	ldi	r24, 0xE5	; 229
    3466:	80 93 bc 00 	sts	0x00BC, r24
    346a:	22 23       	and	r18, r18
    346c:	21 f0       	breq	.+8      	; 0x3476 <twi_writeTo+0x78>
    346e:	80 91 7d 19 	lds	r24, 0x197D
    3472:	82 30       	cpi	r24, 0x02	; 2
    3474:	e1 f3       	breq	.-8      	; 0x346e <twi_writeTo+0x70>
    3476:	80 91 10 19 	lds	r24, 0x1910
    347a:	8f 3f       	cpi	r24, 0xFF	; 255
    347c:	61 f0       	breq	.+24     	; 0x3496 <twi_writeTo+0x98>
    347e:	80 91 10 19 	lds	r24, 0x1910
    3482:	80 32       	cpi	r24, 0x20	; 32
    3484:	51 f0       	breq	.+20     	; 0x349a <twi_writeTo+0x9c>
    3486:	80 91 10 19 	lds	r24, 0x1910
    348a:	80 33       	cpi	r24, 0x30	; 48
    348c:	41 f4       	brne	.+16     	; 0x349e <twi_writeTo+0xa0>
    348e:	83 e0       	ldi	r24, 0x03	; 3
    3490:	07 c0       	rjmp	.+14     	; 0x34a0 <twi_writeTo+0xa2>
    3492:	81 e0       	ldi	r24, 0x01	; 1
    3494:	05 c0       	rjmp	.+10     	; 0x34a0 <twi_writeTo+0xa2>
    3496:	80 e0       	ldi	r24, 0x00	; 0
    3498:	03 c0       	rjmp	.+6      	; 0x34a0 <twi_writeTo+0xa2>
    349a:	82 e0       	ldi	r24, 0x02	; 2
    349c:	01 c0       	rjmp	.+2      	; 0x34a0 <twi_writeTo+0xa2>
    349e:	84 e0       	ldi	r24, 0x04	; 4
    34a0:	0f 91       	pop	r16
    34a2:	08 95       	ret

000034a4 <twi_transmit>:
    34a4:	61 32       	cpi	r22, 0x21	; 33
    34a6:	98 f4       	brcc	.+38     	; 0x34ce <twi_transmit+0x2a>
    34a8:	20 91 7d 19 	lds	r18, 0x197D
    34ac:	24 30       	cpi	r18, 0x04	; 4
    34ae:	89 f4       	brne	.+34     	; 0x34d2 <twi_transmit+0x2e>
    34b0:	60 93 32 19 	sts	0x1932, r22
    34b4:	fc 01       	movw	r30, r24
    34b6:	84 e3       	ldi	r24, 0x34	; 52
    34b8:	99 e1       	ldi	r25, 0x19	; 25
    34ba:	dc 01       	movw	r26, r24
    34bc:	2a 2f       	mov	r18, r26
    34be:	28 1b       	sub	r18, r24
    34c0:	26 17       	cp	r18, r22
    34c2:	18 f4       	brcc	.+6      	; 0x34ca <twi_transmit+0x26>
    34c4:	21 91       	ld	r18, Z+
    34c6:	2d 93       	st	X+, r18
    34c8:	f9 cf       	rjmp	.-14     	; 0x34bc <twi_transmit+0x18>
    34ca:	80 e0       	ldi	r24, 0x00	; 0
    34cc:	08 95       	ret
    34ce:	81 e0       	ldi	r24, 0x01	; 1
    34d0:	08 95       	ret
    34d2:	82 e0       	ldi	r24, 0x02	; 2
    34d4:	08 95       	ret

000034d6 <twi_stop>:
 * Output   none
 */
void twi_stop(void)
{
  // send stop condition
  TWCR = _BV(TWEN) | _BV(TWIE) | _BV(TWEA) | _BV(TWINT) | _BV(TWSTO);
    34d6:	85 ed       	ldi	r24, 0xD5	; 213
    34d8:	80 93 bc 00 	sts	0x00BC, r24

  // wait for stop condition to be exectued on bus
  // TWINT is not set after a stop condition!
  while(TWCR & _BV(TWSTO)){
    34dc:	80 91 bc 00 	lds	r24, 0x00BC
    34e0:	84 fd       	sbrc	r24, 4
    34e2:	fc cf       	rjmp	.-8      	; 0x34dc <twi_stop+0x6>
    continue;
  }

  // update twi state
  twi_state = TWI_READY;
    34e4:	10 92 7d 19 	sts	0x197D, r1
    34e8:	08 95       	ret

000034ea <twi_releaseBus>:
 * Output   none
 */
void twi_releaseBus(void)
{
  // release bus
  TWCR = _BV(TWEN) | _BV(TWIE) | _BV(TWEA) | _BV(TWINT);
    34ea:	85 ec       	ldi	r24, 0xC5	; 197
    34ec:	80 93 bc 00 	sts	0x00BC, r24

  // update twi state
  twi_state = TWI_READY;
    34f0:	10 92 7d 19 	sts	0x197D, r1
    34f4:	08 95       	ret

000034f6 <__vector_39>:
}

ISR(TWI_vect)
{
    34f6:	1f 92       	push	r1
    34f8:	0f 92       	push	r0
    34fa:	0f b6       	in	r0, 0x3f	; 63
    34fc:	0f 92       	push	r0
    34fe:	11 24       	eor	r1, r1
    3500:	0b b6       	in	r0, 0x3b	; 59
    3502:	0f 92       	push	r0
    3504:	2f 93       	push	r18
    3506:	3f 93       	push	r19
    3508:	4f 93       	push	r20
    350a:	5f 93       	push	r21
    350c:	6f 93       	push	r22
    350e:	7f 93       	push	r23
    3510:	8f 93       	push	r24
    3512:	9f 93       	push	r25
    3514:	af 93       	push	r26
    3516:	bf 93       	push	r27
    3518:	ef 93       	push	r30
    351a:	ff 93       	push	r31
  switch(TW_STATUS){
    351c:	80 91 b9 00 	lds	r24, 0x00B9
    3520:	88 7f       	andi	r24, 0xF8	; 248
    3522:	80 36       	cpi	r24, 0x60	; 96
    3524:	09 f4       	brne	.+2      	; 0x3528 <__vector_39+0x32>
    3526:	9c c0       	rjmp	.+312    	; 0x3660 <__vector_39+0x16a>
    3528:	68 f5       	brcc	.+90     	; 0x3584 <__vector_39+0x8e>
    352a:	88 32       	cpi	r24, 0x28	; 40
    352c:	09 f4       	brne	.+2      	; 0x3530 <__vector_39+0x3a>
    352e:	5b c0       	rjmp	.+182    	; 0x35e6 <__vector_39+0xf0>
    3530:	90 f4       	brcc	.+36     	; 0x3556 <__vector_39+0x60>
    3532:	80 31       	cpi	r24, 0x10	; 16
    3534:	09 f4       	brne	.+2      	; 0x3538 <__vector_39+0x42>
    3536:	54 c0       	rjmp	.+168    	; 0x35e0 <__vector_39+0xea>
    3538:	38 f4       	brcc	.+14     	; 0x3548 <__vector_39+0x52>
    353a:	88 23       	and	r24, r24
    353c:	09 f4       	brne	.+2      	; 0x3540 <__vector_39+0x4a>
    353e:	f3 c0       	rjmp	.+486    	; 0x3726 <__vector_39+0x230>
    3540:	88 30       	cpi	r24, 0x08	; 8
    3542:	09 f4       	brne	.+2      	; 0x3546 <__vector_39+0x50>
    3544:	4d c0       	rjmp	.+154    	; 0x35e0 <__vector_39+0xea>
    3546:	f2 c0       	rjmp	.+484    	; 0x372c <__vector_39+0x236>
    3548:	88 31       	cpi	r24, 0x18	; 24
    354a:	09 f4       	brne	.+2      	; 0x354e <__vector_39+0x58>
    354c:	4c c0       	rjmp	.+152    	; 0x35e6 <__vector_39+0xf0>
    354e:	80 32       	cpi	r24, 0x20	; 32
    3550:	09 f4       	brne	.+2      	; 0x3554 <__vector_39+0x5e>
    3552:	5d c0       	rjmp	.+186    	; 0x360e <__vector_39+0x118>
    3554:	eb c0       	rjmp	.+470    	; 0x372c <__vector_39+0x236>
    3556:	80 34       	cpi	r24, 0x40	; 64
    3558:	09 f4       	brne	.+2      	; 0x355c <__vector_39+0x66>
    355a:	68 c0       	rjmp	.+208    	; 0x362c <__vector_39+0x136>
    355c:	48 f4       	brcc	.+18     	; 0x3570 <__vector_39+0x7a>
    355e:	80 33       	cpi	r24, 0x30	; 48
    3560:	09 f4       	brne	.+2      	; 0x3564 <__vector_39+0x6e>
    3562:	55 c0       	rjmp	.+170    	; 0x360e <__vector_39+0x118>
    3564:	88 33       	cpi	r24, 0x38	; 56
    3566:	09 f0       	breq	.+2      	; 0x356a <__vector_39+0x74>
    3568:	e1 c0       	rjmp	.+450    	; 0x372c <__vector_39+0x236>
    case TW_MT_DATA_NACK: // data sent, nack received
      twi_error = TW_MT_DATA_NACK;
      twi_stop();
      break;
    case TW_MT_ARB_LOST: // lost bus arbitration
      twi_error = TW_MT_ARB_LOST;
    356a:	80 93 10 19 	sts	0x1910, r24
    356e:	a7 c0       	rjmp	.+334    	; 0x36be <__vector_39+0x1c8>
  twi_state = TWI_READY;
}

ISR(TWI_vect)
{
  switch(TW_STATUS){
    3570:	80 35       	cpi	r24, 0x50	; 80
    3572:	09 f4       	brne	.+2      	; 0x3576 <__vector_39+0x80>
    3574:	4f c0       	rjmp	.+158    	; 0x3614 <__vector_39+0x11e>
    3576:	88 35       	cpi	r24, 0x58	; 88
    3578:	09 f4       	brne	.+2      	; 0x357c <__vector_39+0x86>
    357a:	5d c0       	rjmp	.+186    	; 0x3636 <__vector_39+0x140>
    357c:	88 34       	cpi	r24, 0x48	; 72
    357e:	09 f0       	breq	.+2      	; 0x3582 <__vector_39+0x8c>
    3580:	d5 c0       	rjmp	.+426    	; 0x372c <__vector_39+0x236>
    3582:	d3 c0       	rjmp	.+422    	; 0x372a <__vector_39+0x234>
    3584:	88 39       	cpi	r24, 0x98	; 152
    3586:	09 f4       	brne	.+2      	; 0x358a <__vector_39+0x94>
    3588:	c4 c0       	rjmp	.+392    	; 0x3712 <__vector_39+0x21c>
    358a:	a8 f4       	brcc	.+42     	; 0x35b6 <__vector_39+0xc0>
    358c:	88 37       	cpi	r24, 0x78	; 120
    358e:	09 f4       	brne	.+2      	; 0x3592 <__vector_39+0x9c>
    3590:	67 c0       	rjmp	.+206    	; 0x3660 <__vector_39+0x16a>
    3592:	38 f4       	brcc	.+14     	; 0x35a2 <__vector_39+0xac>
    3594:	88 36       	cpi	r24, 0x68	; 104
    3596:	09 f4       	brne	.+2      	; 0x359a <__vector_39+0xa4>
    3598:	63 c0       	rjmp	.+198    	; 0x3660 <__vector_39+0x16a>
    359a:	80 37       	cpi	r24, 0x70	; 112
    359c:	09 f4       	brne	.+2      	; 0x35a0 <__vector_39+0xaa>
    359e:	60 c0       	rjmp	.+192    	; 0x3660 <__vector_39+0x16a>
    35a0:	c5 c0       	rjmp	.+394    	; 0x372c <__vector_39+0x236>
    35a2:	88 38       	cpi	r24, 0x88	; 136
    35a4:	09 f4       	brne	.+2      	; 0x35a8 <__vector_39+0xb2>
    35a6:	b5 c0       	rjmp	.+362    	; 0x3712 <__vector_39+0x21c>
    35a8:	80 39       	cpi	r24, 0x90	; 144
    35aa:	09 f4       	brne	.+2      	; 0x35ae <__vector_39+0xb8>
    35ac:	5f c0       	rjmp	.+190    	; 0x366c <__vector_39+0x176>
    35ae:	80 38       	cpi	r24, 0x80	; 128
    35b0:	09 f0       	breq	.+2      	; 0x35b4 <__vector_39+0xbe>
    35b2:	bc c0       	rjmp	.+376    	; 0x372c <__vector_39+0x236>
    35b4:	5b c0       	rjmp	.+182    	; 0x366c <__vector_39+0x176>
    35b6:	80 3b       	cpi	r24, 0xB0	; 176
    35b8:	09 f4       	brne	.+2      	; 0x35bc <__vector_39+0xc6>
    35ba:	83 c0       	rjmp	.+262    	; 0x36c2 <__vector_39+0x1cc>
    35bc:	38 f4       	brcc	.+14     	; 0x35cc <__vector_39+0xd6>
    35be:	80 3a       	cpi	r24, 0xA0	; 160
    35c0:	09 f4       	brne	.+2      	; 0x35c4 <__vector_39+0xce>
    35c2:	66 c0       	rjmp	.+204    	; 0x3690 <__vector_39+0x19a>
    35c4:	88 3a       	cpi	r24, 0xA8	; 168
    35c6:	09 f4       	brne	.+2      	; 0x35ca <__vector_39+0xd4>
    35c8:	7c c0       	rjmp	.+248    	; 0x36c2 <__vector_39+0x1cc>
    35ca:	b0 c0       	rjmp	.+352    	; 0x372c <__vector_39+0x236>
    35cc:	80 3c       	cpi	r24, 0xC0	; 192
    35ce:	09 f4       	brne	.+2      	; 0x35d2 <__vector_39+0xdc>
    35d0:	a4 c0       	rjmp	.+328    	; 0x371a <__vector_39+0x224>
    35d2:	88 3c       	cpi	r24, 0xC8	; 200
    35d4:	09 f4       	brne	.+2      	; 0x35d8 <__vector_39+0xe2>
    35d6:	a1 c0       	rjmp	.+322    	; 0x371a <__vector_39+0x224>
    35d8:	88 3b       	cpi	r24, 0xB8	; 184
    35da:	09 f4       	brne	.+2      	; 0x35de <__vector_39+0xe8>
    35dc:	87 c0       	rjmp	.+270    	; 0x36ec <__vector_39+0x1f6>
    35de:	a6 c0       	rjmp	.+332    	; 0x372c <__vector_39+0x236>
    // All Master
    case TW_START:     // sent start condition
    case TW_REP_START: // sent repeated start condition
      // copy device address and r/w bit to output register and ack
      TWDR = twi_slarw;
    35e0:	80 91 7c 19 	lds	r24, 0x197C
    35e4:	10 c0       	rjmp	.+32     	; 0x3606 <__vector_39+0x110>

    // Master Transmitter
    case TW_MT_SLA_ACK:  // slave receiver acked address
    case TW_MT_DATA_ACK: // slave receiver acked data
      // if there is data to send, send it, otherwise stop 
      if(twi_masterBufferIndex < twi_masterBufferLength){
    35e6:	90 91 55 19 	lds	r25, 0x1955
    35ea:	80 91 54 19 	lds	r24, 0x1954
    35ee:	98 17       	cp	r25, r24
    35f0:	70 f5       	brcc	.+92     	; 0x364e <__vector_39+0x158>
        // copy data to output register and ack
        TWDR = twi_masterBuffer[twi_masterBufferIndex++];
    35f2:	e0 91 55 19 	lds	r30, 0x1955
    35f6:	81 e0       	ldi	r24, 0x01	; 1
    35f8:	8e 0f       	add	r24, r30
    35fa:	80 93 55 19 	sts	0x1955, r24
    35fe:	f0 e0       	ldi	r31, 0x00	; 0
    3600:	ea 5a       	subi	r30, 0xAA	; 170
    3602:	f6 4e       	sbci	r31, 0xE6	; 230
    3604:	80 81       	ld	r24, Z
    3606:	80 93 bb 00 	sts	0x00BB, r24
 */
void twi_reply(uint8_t ack)
{
  // transmit master read ready signal, with or without ack
  if(ack){
    TWCR = _BV(TWEN) | _BV(TWIE) | _BV(TWINT) | _BV(TWEA);
    360a:	85 ec       	ldi	r24, 0xC5	; 197
    360c:	83 c0       	rjmp	.+262    	; 0x3714 <__vector_39+0x21e>
    case TW_MT_SLA_NACK:  // address sent, nack received
      twi_error = TW_MT_SLA_NACK;
      twi_stop();
      break;
    case TW_MT_DATA_NACK: // data sent, nack received
      twi_error = TW_MT_DATA_NACK;
    360e:	80 93 10 19 	sts	0x1910, r24
    3612:	8b c0       	rjmp	.+278    	; 0x372a <__vector_39+0x234>
      break;

    // Master Receiver
    case TW_MR_DATA_ACK: // data received, ack sent
      // put byte into buffer
      twi_masterBuffer[twi_masterBufferIndex++] = TWDR;
    3614:	e0 91 55 19 	lds	r30, 0x1955
    3618:	81 e0       	ldi	r24, 0x01	; 1
    361a:	8e 0f       	add	r24, r30
    361c:	80 93 55 19 	sts	0x1955, r24
    3620:	80 91 bb 00 	lds	r24, 0x00BB
    3624:	f0 e0       	ldi	r31, 0x00	; 0
    3626:	ea 5a       	subi	r30, 0xAA	; 170
    3628:	f6 4e       	sbci	r31, 0xE6	; 230
    362a:	80 83       	st	Z, r24
    case TW_MR_SLA_ACK:  // address sent, ack received
      // ack if more bytes are expected, otherwise nack
      if(twi_masterBufferIndex < twi_masterBufferLength){
    362c:	90 91 55 19 	lds	r25, 0x1955
    3630:	80 91 54 19 	lds	r24, 0x1954
    3634:	6b c0       	rjmp	.+214    	; 0x370c <__vector_39+0x216>
        twi_reply(0);
      }
      break;
    case TW_MR_DATA_NACK: // data received, nack sent
      // put final byte into buffer
      twi_masterBuffer[twi_masterBufferIndex++] = TWDR;
    3636:	e0 91 55 19 	lds	r30, 0x1955
    363a:	81 e0       	ldi	r24, 0x01	; 1
    363c:	8e 0f       	add	r24, r30
    363e:	80 93 55 19 	sts	0x1955, r24
    3642:	80 91 bb 00 	lds	r24, 0x00BB
    3646:	f0 e0       	ldi	r31, 0x00	; 0
    3648:	ea 5a       	subi	r30, 0xAA	; 170
    364a:	f6 4e       	sbci	r31, 0xE6	; 230
    364c:	80 83       	st	Z, r24
	if (twi_sendStop)
    364e:	80 91 7b 19 	lds	r24, 0x197B
    3652:	81 11       	cpse	r24, r1
    3654:	6a c0       	rjmp	.+212    	; 0x372a <__vector_39+0x234>
          twi_stop();
	else {
	  twi_inRepStart = true;	// we're gonna send the START
    3656:	81 e0       	ldi	r24, 0x01	; 1
    3658:	80 93 7a 19 	sts	0x197A, r24
	  // don't enable the interrupt. We'll generate the start, but we 
	  // avoid handling the interrupt until we're in the next transaction,
	  // at the point where we would normally issue the start.
	  TWCR = _BV(TWINT) | _BV(TWSTA)| _BV(TWEN) ;
    365c:	84 ea       	ldi	r24, 0xA4	; 164
    365e:	5e c0       	rjmp	.+188    	; 0x371c <__vector_39+0x226>
    case TW_SR_SLA_ACK:   // addressed, returned ack
    case TW_SR_GCALL_ACK: // addressed generally, returned ack
    case TW_SR_ARB_LOST_SLA_ACK:   // lost arbitration, returned ack
    case TW_SR_ARB_LOST_GCALL_ACK: // lost arbitration, returned ack
      // enter slave receiver mode
      twi_state = TWI_SRX;
    3660:	83 e0       	ldi	r24, 0x03	; 3
    3662:	80 93 7d 19 	sts	0x197D, r24
      // indicate that rx buffer can be overwritten and ack
      twi_rxBufferIndex = 0;
    3666:	10 92 11 19 	sts	0x1911, r1
    366a:	cf cf       	rjmp	.-98     	; 0x360a <__vector_39+0x114>
      twi_reply(1);
      break;
    case TW_SR_DATA_ACK:       // data received, returned ack
    case TW_SR_GCALL_DATA_ACK: // data received generally, returned ack
      // if there is still room in the rx buffer
      if(twi_rxBufferIndex < TWI_BUFFER_LENGTH){
    366c:	80 91 11 19 	lds	r24, 0x1911
    3670:	80 32       	cpi	r24, 0x20	; 32
    3672:	08 f0       	brcs	.+2      	; 0x3676 <__vector_39+0x180>
    3674:	4e c0       	rjmp	.+156    	; 0x3712 <__vector_39+0x21c>
        // put byte in buffer and ack
        twi_rxBuffer[twi_rxBufferIndex++] = TWDR;
    3676:	e0 91 11 19 	lds	r30, 0x1911
    367a:	81 e0       	ldi	r24, 0x01	; 1
    367c:	8e 0f       	add	r24, r30
    367e:	80 93 11 19 	sts	0x1911, r24
    3682:	80 91 bb 00 	lds	r24, 0x00BB
    3686:	f0 e0       	ldi	r31, 0x00	; 0
    3688:	ee 5e       	subi	r30, 0xEE	; 238
    368a:	f6 4e       	sbci	r31, 0xE6	; 230
    368c:	80 83       	st	Z, r24
    368e:	bd cf       	rjmp	.-134    	; 0x360a <__vector_39+0x114>
        twi_reply(0);
      }
      break;
    case TW_SR_STOP: // stop or repeated start condition received
      // put a null char after data if there's room
      if(twi_rxBufferIndex < TWI_BUFFER_LENGTH){
    3690:	80 91 11 19 	lds	r24, 0x1911
    3694:	80 32       	cpi	r24, 0x20	; 32
    3696:	30 f4       	brcc	.+12     	; 0x36a4 <__vector_39+0x1ae>
        twi_rxBuffer[twi_rxBufferIndex] = '\0';
    3698:	e0 91 11 19 	lds	r30, 0x1911
    369c:	f0 e0       	ldi	r31, 0x00	; 0
    369e:	ee 5e       	subi	r30, 0xEE	; 238
    36a0:	f6 4e       	sbci	r31, 0xE6	; 230
    36a2:	10 82       	st	Z, r1
      }
      // sends ack and stops interface for clock stretching
      twi_stop();
    36a4:	18 df       	rcall	.-464    	; 0x34d6 <twi_stop>
      // callback to user defined callback
      twi_onSlaveReceive(twi_rxBuffer, twi_rxBufferIndex);
    36a6:	60 91 11 19 	lds	r22, 0x1911
    36aa:	70 e0       	ldi	r23, 0x00	; 0
    36ac:	e0 91 76 19 	lds	r30, 0x1976
    36b0:	f0 91 77 19 	lds	r31, 0x1977
    36b4:	82 e1       	ldi	r24, 0x12	; 18
    36b6:	99 e1       	ldi	r25, 0x19	; 25
    36b8:	19 95       	eicall
      // since we submit rx buffer to "wire" library, we can reset it
      twi_rxBufferIndex = 0;
    36ba:	10 92 11 19 	sts	0x1911, r1
      // ack future responses and leave slave receiver state
      twi_releaseBus();
    36be:	15 df       	rcall	.-470    	; 0x34ea <twi_releaseBus>
      break;
    36c0:	35 c0       	rjmp	.+106    	; 0x372c <__vector_39+0x236>
    
    // Slave Transmitter
    case TW_ST_SLA_ACK:          // addressed, returned ack
    case TW_ST_ARB_LOST_SLA_ACK: // arbitration lost, returned ack
      // enter slave transmitter mode
      twi_state = TWI_STX;
    36c2:	84 e0       	ldi	r24, 0x04	; 4
    36c4:	80 93 7d 19 	sts	0x197D, r24
      // ready the tx buffer index for iteration
      twi_txBufferIndex = 0;
    36c8:	10 92 33 19 	sts	0x1933, r1
      // set tx buffer length to be zero, to verify if user changes it
      twi_txBufferLength = 0;
    36cc:	10 92 32 19 	sts	0x1932, r1
      // request for txBuffer to be filled and length to be set
      // note: user must call twi_transmit(bytes, length) to do this
      twi_onSlaveTransmit();
    36d0:	e0 91 78 19 	lds	r30, 0x1978
    36d4:	f0 91 79 19 	lds	r31, 0x1979
    36d8:	19 95       	eicall
      // if they didn't change buffer & length, initialize it
      if(0 == twi_txBufferLength){
    36da:	80 91 32 19 	lds	r24, 0x1932
    36de:	81 11       	cpse	r24, r1
    36e0:	05 c0       	rjmp	.+10     	; 0x36ec <__vector_39+0x1f6>
        twi_txBufferLength = 1;
    36e2:	81 e0       	ldi	r24, 0x01	; 1
    36e4:	80 93 32 19 	sts	0x1932, r24
        twi_txBuffer[0] = 0x00;
    36e8:	10 92 34 19 	sts	0x1934, r1
      }
      // transmit first byte from buffer, fall
    case TW_ST_DATA_ACK: // byte sent, ack returned
      // copy data to output register
      TWDR = twi_txBuffer[twi_txBufferIndex++];
    36ec:	e0 91 33 19 	lds	r30, 0x1933
    36f0:	81 e0       	ldi	r24, 0x01	; 1
    36f2:	8e 0f       	add	r24, r30
    36f4:	80 93 33 19 	sts	0x1933, r24
    36f8:	f0 e0       	ldi	r31, 0x00	; 0
    36fa:	ec 5c       	subi	r30, 0xCC	; 204
    36fc:	f6 4e       	sbci	r31, 0xE6	; 230
    36fe:	80 81       	ld	r24, Z
    3700:	80 93 bb 00 	sts	0x00BB, r24
      // if there is more to send, ack, otherwise nack
      if(twi_txBufferIndex < twi_txBufferLength){
    3704:	90 91 33 19 	lds	r25, 0x1933
    3708:	80 91 32 19 	lds	r24, 0x1932
    370c:	98 17       	cp	r25, r24
    370e:	08 f4       	brcc	.+2      	; 0x3712 <__vector_39+0x21c>
    3710:	7c cf       	rjmp	.-264    	; 0x360a <__vector_39+0x114>
{
  // transmit master read ready signal, with or without ack
  if(ack){
    TWCR = _BV(TWEN) | _BV(TWIE) | _BV(TWINT) | _BV(TWEA);
  }else{
	  TWCR = _BV(TWEN) | _BV(TWIE) | _BV(TWINT);
    3712:	85 e8       	ldi	r24, 0x85	; 133
    3714:	80 93 bc 00 	sts	0x00BC, r24
    3718:	09 c0       	rjmp	.+18     	; 0x372c <__vector_39+0x236>
 */
void twi_reply(uint8_t ack)
{
  // transmit master read ready signal, with or without ack
  if(ack){
    TWCR = _BV(TWEN) | _BV(TWIE) | _BV(TWINT) | _BV(TWEA);
    371a:	85 ec       	ldi	r24, 0xC5	; 197
    371c:	80 93 bc 00 	sts	0x00BC, r24
    case TW_ST_DATA_NACK: // received nack, we are done 
    case TW_ST_LAST_DATA: // received ack, but we are done already!
      // ack future responses
      twi_reply(1);
      // leave slave receiver state
      twi_state = TWI_READY;
    3720:	10 92 7d 19 	sts	0x197D, r1
      break;
    3724:	03 c0       	rjmp	.+6      	; 0x372c <__vector_39+0x236>

    // All
    case TW_NO_INFO:   // no state information
      break;
    case TW_BUS_ERROR: // bus error, illegal stop/start
      twi_error = TW_BUS_ERROR;
    3726:	10 92 10 19 	sts	0x1910, r1
      twi_stop();
    372a:	d5 de       	rcall	.-598    	; 0x34d6 <twi_stop>
      break;
  }
}
    372c:	ff 91       	pop	r31
    372e:	ef 91       	pop	r30
    3730:	bf 91       	pop	r27
    3732:	af 91       	pop	r26
    3734:	9f 91       	pop	r25
    3736:	8f 91       	pop	r24
    3738:	7f 91       	pop	r23
    373a:	6f 91       	pop	r22
    373c:	5f 91       	pop	r21
    373e:	4f 91       	pop	r20
    3740:	3f 91       	pop	r19
    3742:	2f 91       	pop	r18
    3744:	0f 90       	pop	r0
    3746:	0b be       	out	0x3b, r0	; 59
    3748:	0f 90       	pop	r0
    374a:	0f be       	out	0x3f, r0	; 63
    374c:	0f 90       	pop	r0
    374e:	1f 90       	pop	r1
    3750:	18 95       	reti

00003752 <_ZN7TwoWire9availableEv>:
}

// sets function called on slave read
void TwoWire::onRequest( void (*function)(void) )
{
  user_onRequest = function;
    3752:	80 91 ae 19 	lds	r24, 0x19AE
    3756:	90 e0       	ldi	r25, 0x00	; 0
    3758:	20 91 af 19 	lds	r18, 0x19AF
    375c:	82 1b       	sub	r24, r18
    375e:	91 09       	sbc	r25, r1
    3760:	08 95       	ret

00003762 <_ZN7TwoWire4readEv>:
    3762:	20 91 af 19 	lds	r18, 0x19AF
    3766:	80 91 ae 19 	lds	r24, 0x19AE
    376a:	28 17       	cp	r18, r24
    376c:	50 f4       	brcc	.+20     	; 0x3782 <_ZN7TwoWire4readEv+0x20>
    376e:	e2 2f       	mov	r30, r18
    3770:	f0 e0       	ldi	r31, 0x00	; 0
    3772:	e0 55       	subi	r30, 0x50	; 80
    3774:	f6 4e       	sbci	r31, 0xE6	; 230
    3776:	80 81       	ld	r24, Z
    3778:	90 e0       	ldi	r25, 0x00	; 0
    377a:	2f 5f       	subi	r18, 0xFF	; 255
    377c:	20 93 af 19 	sts	0x19AF, r18
    3780:	08 95       	ret
    3782:	8f ef       	ldi	r24, 0xFF	; 255
    3784:	9f ef       	ldi	r25, 0xFF	; 255
    3786:	08 95       	ret

00003788 <_ZN7TwoWire4peekEv>:
    3788:	e0 91 af 19 	lds	r30, 0x19AF
    378c:	80 91 ae 19 	lds	r24, 0x19AE
    3790:	e8 17       	cp	r30, r24
    3792:	30 f4       	brcc	.+12     	; 0x37a0 <_ZN7TwoWire4peekEv+0x18>
    3794:	f0 e0       	ldi	r31, 0x00	; 0
    3796:	e0 55       	subi	r30, 0x50	; 80
    3798:	f6 4e       	sbci	r31, 0xE6	; 230
    379a:	80 81       	ld	r24, Z
    379c:	90 e0       	ldi	r25, 0x00	; 0
    379e:	08 95       	ret
    37a0:	8f ef       	ldi	r24, 0xFF	; 255
    37a2:	9f ef       	ldi	r25, 0xFF	; 255
    37a4:	08 95       	ret

000037a6 <_ZN7TwoWire5flushEv>:
    37a6:	08 95       	ret

000037a8 <_ZN7TwoWire5writeEPKhj>:
    37a8:	cf 92       	push	r12
    37aa:	df 92       	push	r13
    37ac:	ef 92       	push	r14
    37ae:	ff 92       	push	r15
    37b0:	0f 93       	push	r16
    37b2:	1f 93       	push	r17
    37b4:	cf 93       	push	r28
    37b6:	df 93       	push	r29
    37b8:	7c 01       	movw	r14, r24
    37ba:	cb 01       	movw	r24, r22
    37bc:	8a 01       	movw	r16, r20
    37be:	20 91 8a 19 	lds	r18, 0x198A
    37c2:	22 23       	and	r18, r18
    37c4:	89 f0       	breq	.+34     	; 0x37e8 <_ZN7TwoWire5writeEPKhj+0x40>
    37c6:	eb 01       	movw	r28, r22
    37c8:	6b 01       	movw	r12, r22
    37ca:	c4 0e       	add	r12, r20
    37cc:	d5 1e       	adc	r13, r21
    37ce:	cc 15       	cp	r28, r12
    37d0:	dd 05       	cpc	r29, r13
    37d2:	61 f0       	breq	.+24     	; 0x37ec <_ZN7TwoWire5writeEPKhj+0x44>
    37d4:	69 91       	ld	r22, Y+
    37d6:	d7 01       	movw	r26, r14
    37d8:	ed 91       	ld	r30, X+
    37da:	fc 91       	ld	r31, X
    37dc:	01 90       	ld	r0, Z+
    37de:	f0 81       	ld	r31, Z
    37e0:	e0 2d       	mov	r30, r0
    37e2:	c7 01       	movw	r24, r14
    37e4:	19 95       	eicall
    37e6:	f3 cf       	rjmp	.-26     	; 0x37ce <_ZN7TwoWire5writeEPKhj+0x26>
    37e8:	64 2f       	mov	r22, r20
    37ea:	5c de       	rcall	.-840    	; 0x34a4 <twi_transmit>
    37ec:	c8 01       	movw	r24, r16
    37ee:	df 91       	pop	r29
    37f0:	cf 91       	pop	r28
    37f2:	1f 91       	pop	r17
    37f4:	0f 91       	pop	r16
    37f6:	ff 90       	pop	r15
    37f8:	ef 90       	pop	r14
    37fa:	df 90       	pop	r13
    37fc:	cf 90       	pop	r12
    37fe:	08 95       	ret

00003800 <_ZN7TwoWire5writeEh>:
    3800:	cf 93       	push	r28
    3802:	df 93       	push	r29
    3804:	1f 92       	push	r1
    3806:	cd b7       	in	r28, 0x3d	; 61
    3808:	de b7       	in	r29, 0x3e	; 62
    380a:	69 83       	std	Y+1, r22	; 0x01
    380c:	20 91 8a 19 	lds	r18, 0x198A
    3810:	22 23       	and	r18, r18
    3812:	d1 f0       	breq	.+52     	; 0x3848 <_ZN7TwoWire5writeEh+0x48>
    3814:	20 91 8b 19 	lds	r18, 0x198B
    3818:	20 32       	cpi	r18, 0x20	; 32
    381a:	40 f0       	brcs	.+16     	; 0x382c <_ZN7TwoWire5writeEh+0x2c>
    381c:	21 e0       	ldi	r18, 0x01	; 1
    381e:	30 e0       	ldi	r19, 0x00	; 0
    3820:	fc 01       	movw	r30, r24
    3822:	33 83       	std	Z+3, r19	; 0x03
    3824:	22 83       	std	Z+2, r18	; 0x02
    3826:	80 e0       	ldi	r24, 0x00	; 0
    3828:	90 e0       	ldi	r25, 0x00	; 0
    382a:	14 c0       	rjmp	.+40     	; 0x3854 <_ZN7TwoWire5writeEh+0x54>
    382c:	80 91 8c 19 	lds	r24, 0x198C
    3830:	e8 2f       	mov	r30, r24
    3832:	f0 e0       	ldi	r31, 0x00	; 0
    3834:	e3 57       	subi	r30, 0x73	; 115
    3836:	f6 4e       	sbci	r31, 0xE6	; 230
    3838:	99 81       	ldd	r25, Y+1	; 0x01
    383a:	90 83       	st	Z, r25
    383c:	8f 5f       	subi	r24, 0xFF	; 255
    383e:	80 93 8c 19 	sts	0x198C, r24
    3842:	80 93 8b 19 	sts	0x198B, r24
    3846:	04 c0       	rjmp	.+8      	; 0x3850 <_ZN7TwoWire5writeEh+0x50>
    3848:	61 e0       	ldi	r22, 0x01	; 1
    384a:	ce 01       	movw	r24, r28
    384c:	01 96       	adiw	r24, 0x01	; 1
    384e:	2a de       	rcall	.-940    	; 0x34a4 <twi_transmit>
    3850:	81 e0       	ldi	r24, 0x01	; 1
    3852:	90 e0       	ldi	r25, 0x00	; 0
    3854:	0f 90       	pop	r0
    3856:	df 91       	pop	r29
    3858:	cf 91       	pop	r28
    385a:	08 95       	ret

0000385c <_ZN7TwoWireC1Ev>:
    385c:	fc 01       	movw	r30, r24
    385e:	13 82       	std	Z+3, r1	; 0x03
    3860:	12 82       	std	Z+2, r1	; 0x02
    3862:	48 ee       	ldi	r20, 0xE8	; 232
    3864:	53 e0       	ldi	r21, 0x03	; 3
    3866:	60 e0       	ldi	r22, 0x00	; 0
    3868:	70 e0       	ldi	r23, 0x00	; 0
    386a:	44 83       	std	Z+4, r20	; 0x04
    386c:	55 83       	std	Z+5, r21	; 0x05
    386e:	66 83       	std	Z+6, r22	; 0x06
    3870:	77 83       	std	Z+7, r23	; 0x07
    3872:	8b e0       	ldi	r24, 0x0B	; 11
    3874:	93 e0       	ldi	r25, 0x03	; 3
    3876:	91 83       	std	Z+1, r25	; 0x01
    3878:	80 83       	st	Z, r24
    387a:	08 95       	ret

0000387c <_ZN7TwoWire5beginEv>:
    387c:	10 92 af 19 	sts	0x19AF, r1
    3880:	10 92 ae 19 	sts	0x19AE, r1
    3884:	10 92 8c 19 	sts	0x198C, r1
    3888:	10 92 8b 19 	sts	0x198B, r1
    388c:	56 cd       	rjmp	.-1364   	; 0x333a <twi_init>

0000388e <_ZN7TwoWire11requestFromEhhh>:
    388e:	86 2f       	mov	r24, r22
    3890:	41 32       	cpi	r20, 0x21	; 33
    3892:	08 f0       	brcs	.+2      	; 0x3896 <_ZN7TwoWire11requestFromEhhh+0x8>
    3894:	40 e2       	ldi	r20, 0x20	; 32
    3896:	60 eb       	ldi	r22, 0xB0	; 176
    3898:	79 e1       	ldi	r23, 0x19	; 25
    389a:	6d dd       	rcall	.-1318   	; 0x3376 <twi_readFrom>
    389c:	10 92 af 19 	sts	0x19AF, r1
    38a0:	80 93 ae 19 	sts	0x19AE, r24
    38a4:	08 95       	ret

000038a6 <_ZN7TwoWire17beginTransmissionEh>:
    38a6:	81 e0       	ldi	r24, 0x01	; 1
    38a8:	80 93 8a 19 	sts	0x198A, r24
    38ac:	60 93 ad 19 	sts	0x19AD, r22
    38b0:	10 92 8c 19 	sts	0x198C, r1
    38b4:	10 92 8b 19 	sts	0x198B, r1
    38b8:	08 95       	ret

000038ba <_ZN7TwoWire15endTransmissionEh>:
    38ba:	0f 93       	push	r16
    38bc:	06 2f       	mov	r16, r22
    38be:	21 e0       	ldi	r18, 0x01	; 1
    38c0:	40 91 8b 19 	lds	r20, 0x198B
    38c4:	6d e8       	ldi	r22, 0x8D	; 141
    38c6:	79 e1       	ldi	r23, 0x19	; 25
    38c8:	80 91 ad 19 	lds	r24, 0x19AD
    38cc:	98 dd       	rcall	.-1232   	; 0x33fe <twi_writeTo>
    38ce:	10 92 8c 19 	sts	0x198C, r1
    38d2:	10 92 8b 19 	sts	0x198B, r1
    38d6:	10 92 8a 19 	sts	0x198A, r1
    38da:	0f 91       	pop	r16
    38dc:	08 95       	ret

000038de <_GLOBAL__sub_I__ZN7TwoWire8rxBufferE>:
}

// Preinstantiate Objects //////////////////////////////////////////////////////

TwoWire Wire = TwoWire();
    38de:	8e e7       	ldi	r24, 0x7E	; 126
    38e0:	99 e1       	ldi	r25, 0x19	; 25
    38e2:	bc cf       	rjmp	.-136    	; 0x385c <_ZN7TwoWireC1Ev>

000038e4 <__subsf3>:
    38e4:	50 58       	subi	r21, 0x80	; 128

000038e6 <__addsf3>:
    38e6:	bb 27       	eor	r27, r27
    38e8:	aa 27       	eor	r26, r26
    38ea:	0e d0       	rcall	.+28     	; 0x3908 <__addsf3x>
    38ec:	83 c2       	rjmp	.+1286   	; 0x3df4 <__fp_round>
    38ee:	4c d2       	rcall	.+1176   	; 0x3d88 <__fp_pscA>
    38f0:	30 f0       	brcs	.+12     	; 0x38fe <__addsf3+0x18>
    38f2:	51 d2       	rcall	.+1186   	; 0x3d96 <__fp_pscB>
    38f4:	20 f0       	brcs	.+8      	; 0x38fe <__addsf3+0x18>
    38f6:	31 f4       	brne	.+12     	; 0x3904 <__addsf3+0x1e>
    38f8:	9f 3f       	cpi	r25, 0xFF	; 255
    38fa:	11 f4       	brne	.+4      	; 0x3900 <__addsf3+0x1a>
    38fc:	1e f4       	brtc	.+6      	; 0x3904 <__addsf3+0x1e>
    38fe:	1c c2       	rjmp	.+1080   	; 0x3d38 <__fp_nan>
    3900:	0e f4       	brtc	.+2      	; 0x3904 <__addsf3+0x1e>
    3902:	e0 95       	com	r30
    3904:	e7 fb       	bst	r30, 7
    3906:	04 c2       	rjmp	.+1032   	; 0x3d10 <__fp_inf>

00003908 <__addsf3x>:
    3908:	e9 2f       	mov	r30, r25
    390a:	96 d2       	rcall	.+1324   	; 0x3e38 <__fp_split3>
    390c:	80 f3       	brcs	.-32     	; 0x38ee <__addsf3+0x8>
    390e:	ba 17       	cp	r27, r26
    3910:	62 07       	cpc	r22, r18
    3912:	73 07       	cpc	r23, r19
    3914:	84 07       	cpc	r24, r20
    3916:	95 07       	cpc	r25, r21
    3918:	18 f0       	brcs	.+6      	; 0x3920 <__addsf3x+0x18>
    391a:	71 f4       	brne	.+28     	; 0x3938 <__addsf3x+0x30>
    391c:	9e f5       	brtc	.+102    	; 0x3984 <__addsf3x+0x7c>
    391e:	ae c2       	rjmp	.+1372   	; 0x3e7c <__fp_zero>
    3920:	0e f4       	brtc	.+2      	; 0x3924 <__addsf3x+0x1c>
    3922:	e0 95       	com	r30
    3924:	0b 2e       	mov	r0, r27
    3926:	ba 2f       	mov	r27, r26
    3928:	a0 2d       	mov	r26, r0
    392a:	0b 01       	movw	r0, r22
    392c:	b9 01       	movw	r22, r18
    392e:	90 01       	movw	r18, r0
    3930:	0c 01       	movw	r0, r24
    3932:	ca 01       	movw	r24, r20
    3934:	a0 01       	movw	r20, r0
    3936:	11 24       	eor	r1, r1
    3938:	ff 27       	eor	r31, r31
    393a:	59 1b       	sub	r21, r25
    393c:	99 f0       	breq	.+38     	; 0x3964 <__addsf3x+0x5c>
    393e:	59 3f       	cpi	r21, 0xF9	; 249
    3940:	50 f4       	brcc	.+20     	; 0x3956 <__addsf3x+0x4e>
    3942:	50 3e       	cpi	r21, 0xE0	; 224
    3944:	68 f1       	brcs	.+90     	; 0x39a0 <__addsf3x+0x98>
    3946:	1a 16       	cp	r1, r26
    3948:	f0 40       	sbci	r31, 0x00	; 0
    394a:	a2 2f       	mov	r26, r18
    394c:	23 2f       	mov	r18, r19
    394e:	34 2f       	mov	r19, r20
    3950:	44 27       	eor	r20, r20
    3952:	58 5f       	subi	r21, 0xF8	; 248
    3954:	f3 cf       	rjmp	.-26     	; 0x393c <__addsf3x+0x34>
    3956:	46 95       	lsr	r20
    3958:	37 95       	ror	r19
    395a:	27 95       	ror	r18
    395c:	a7 95       	ror	r26
    395e:	f0 40       	sbci	r31, 0x00	; 0
    3960:	53 95       	inc	r21
    3962:	c9 f7       	brne	.-14     	; 0x3956 <__addsf3x+0x4e>
    3964:	7e f4       	brtc	.+30     	; 0x3984 <__addsf3x+0x7c>
    3966:	1f 16       	cp	r1, r31
    3968:	ba 0b       	sbc	r27, r26
    396a:	62 0b       	sbc	r22, r18
    396c:	73 0b       	sbc	r23, r19
    396e:	84 0b       	sbc	r24, r20
    3970:	ba f0       	brmi	.+46     	; 0x39a0 <__addsf3x+0x98>
    3972:	91 50       	subi	r25, 0x01	; 1
    3974:	a1 f0       	breq	.+40     	; 0x399e <__addsf3x+0x96>
    3976:	ff 0f       	add	r31, r31
    3978:	bb 1f       	adc	r27, r27
    397a:	66 1f       	adc	r22, r22
    397c:	77 1f       	adc	r23, r23
    397e:	88 1f       	adc	r24, r24
    3980:	c2 f7       	brpl	.-16     	; 0x3972 <__addsf3x+0x6a>
    3982:	0e c0       	rjmp	.+28     	; 0x39a0 <__addsf3x+0x98>
    3984:	ba 0f       	add	r27, r26
    3986:	62 1f       	adc	r22, r18
    3988:	73 1f       	adc	r23, r19
    398a:	84 1f       	adc	r24, r20
    398c:	48 f4       	brcc	.+18     	; 0x39a0 <__addsf3x+0x98>
    398e:	87 95       	ror	r24
    3990:	77 95       	ror	r23
    3992:	67 95       	ror	r22
    3994:	b7 95       	ror	r27
    3996:	f7 95       	ror	r31
    3998:	9e 3f       	cpi	r25, 0xFE	; 254
    399a:	08 f0       	brcs	.+2      	; 0x399e <__addsf3x+0x96>
    399c:	b3 cf       	rjmp	.-154    	; 0x3904 <__addsf3+0x1e>
    399e:	93 95       	inc	r25
    39a0:	88 0f       	add	r24, r24
    39a2:	08 f0       	brcs	.+2      	; 0x39a6 <__addsf3x+0x9e>
    39a4:	99 27       	eor	r25, r25
    39a6:	ee 0f       	add	r30, r30
    39a8:	97 95       	ror	r25
    39aa:	87 95       	ror	r24
    39ac:	08 95       	ret
    39ae:	ec d1       	rcall	.+984    	; 0x3d88 <__fp_pscA>
    39b0:	58 f0       	brcs	.+22     	; 0x39c8 <__addsf3x+0xc0>
    39b2:	80 e8       	ldi	r24, 0x80	; 128
    39b4:	91 e0       	ldi	r25, 0x01	; 1
    39b6:	09 f4       	brne	.+2      	; 0x39ba <__addsf3x+0xb2>
    39b8:	9e ef       	ldi	r25, 0xFE	; 254
    39ba:	ed d1       	rcall	.+986    	; 0x3d96 <__fp_pscB>
    39bc:	28 f0       	brcs	.+10     	; 0x39c8 <__addsf3x+0xc0>
    39be:	40 e8       	ldi	r20, 0x80	; 128
    39c0:	51 e0       	ldi	r21, 0x01	; 1
    39c2:	59 f4       	brne	.+22     	; 0x39da <atan2+0xe>
    39c4:	5e ef       	ldi	r21, 0xFE	; 254
    39c6:	09 c0       	rjmp	.+18     	; 0x39da <atan2+0xe>
    39c8:	b7 c1       	rjmp	.+878    	; 0x3d38 <__fp_nan>
    39ca:	58 c2       	rjmp	.+1200   	; 0x3e7c <__fp_zero>

000039cc <atan2>:
    39cc:	e9 2f       	mov	r30, r25
    39ce:	e0 78       	andi	r30, 0x80	; 128
    39d0:	33 d2       	rcall	.+1126   	; 0x3e38 <__fp_split3>
    39d2:	68 f3       	brcs	.-38     	; 0x39ae <__addsf3x+0xa6>
    39d4:	09 2e       	mov	r0, r25
    39d6:	05 2a       	or	r0, r21
    39d8:	c1 f3       	breq	.-16     	; 0x39ca <__addsf3x+0xc2>
    39da:	26 17       	cp	r18, r22
    39dc:	37 07       	cpc	r19, r23
    39de:	48 07       	cpc	r20, r24
    39e0:	59 07       	cpc	r21, r25
    39e2:	38 f0       	brcs	.+14     	; 0x39f2 <atan2+0x26>
    39e4:	0e 2e       	mov	r0, r30
    39e6:	07 f8       	bld	r0, 7
    39e8:	e0 25       	eor	r30, r0
    39ea:	69 f0       	breq	.+26     	; 0x3a06 <atan2+0x3a>
    39ec:	e0 25       	eor	r30, r0
    39ee:	e0 64       	ori	r30, 0x40	; 64
    39f0:	0a c0       	rjmp	.+20     	; 0x3a06 <atan2+0x3a>
    39f2:	ef 63       	ori	r30, 0x3F	; 63
    39f4:	07 f8       	bld	r0, 7
    39f6:	00 94       	com	r0
    39f8:	07 fa       	bst	r0, 7
    39fa:	db 01       	movw	r26, r22
    39fc:	b9 01       	movw	r22, r18
    39fe:	9d 01       	movw	r18, r26
    3a00:	dc 01       	movw	r26, r24
    3a02:	ca 01       	movw	r24, r20
    3a04:	ad 01       	movw	r20, r26
    3a06:	ef 93       	push	r30
    3a08:	4a d0       	rcall	.+148    	; 0x3a9e <__divsf3_pse>
    3a0a:	f4 d1       	rcall	.+1000   	; 0x3df4 <__fp_round>
    3a0c:	0a d0       	rcall	.+20     	; 0x3a22 <atan>
    3a0e:	5f 91       	pop	r21
    3a10:	55 23       	and	r21, r21
    3a12:	31 f0       	breq	.+12     	; 0x3a20 <atan2+0x54>
    3a14:	2b ed       	ldi	r18, 0xDB	; 219
    3a16:	3f e0       	ldi	r19, 0x0F	; 15
    3a18:	49 e4       	ldi	r20, 0x49	; 73
    3a1a:	50 fd       	sbrc	r21, 0
    3a1c:	49 ec       	ldi	r20, 0xC9	; 201
    3a1e:	63 cf       	rjmp	.-314    	; 0x38e6 <__addsf3>
    3a20:	08 95       	ret

00003a22 <atan>:
    3a22:	df 93       	push	r29
    3a24:	dd 27       	eor	r29, r29
    3a26:	b9 2f       	mov	r27, r25
    3a28:	bf 77       	andi	r27, 0x7F	; 127
    3a2a:	40 e8       	ldi	r20, 0x80	; 128
    3a2c:	5f e3       	ldi	r21, 0x3F	; 63
    3a2e:	16 16       	cp	r1, r22
    3a30:	17 06       	cpc	r1, r23
    3a32:	48 07       	cpc	r20, r24
    3a34:	5b 07       	cpc	r21, r27
    3a36:	10 f4       	brcc	.+4      	; 0x3a3c <atan+0x1a>
    3a38:	d9 2f       	mov	r29, r25
    3a3a:	2b d2       	rcall	.+1110   	; 0x3e92 <inverse>
    3a3c:	9f 93       	push	r25
    3a3e:	8f 93       	push	r24
    3a40:	7f 93       	push	r23
    3a42:	6f 93       	push	r22
    3a44:	d8 d2       	rcall	.+1456   	; 0x3ff6 <square>
    3a46:	e4 ee       	ldi	r30, 0xE4	; 228
    3a48:	f0 e0       	ldi	r31, 0x00	; 0
    3a4a:	79 d1       	rcall	.+754    	; 0x3d3e <__fp_powser>
    3a4c:	d3 d1       	rcall	.+934    	; 0x3df4 <__fp_round>
    3a4e:	2f 91       	pop	r18
    3a50:	3f 91       	pop	r19
    3a52:	4f 91       	pop	r20
    3a54:	5f 91       	pop	r21
    3a56:	30 d2       	rcall	.+1120   	; 0x3eb8 <__mulsf3x>
    3a58:	dd 23       	and	r29, r29
    3a5a:	49 f0       	breq	.+18     	; 0x3a6e <atan+0x4c>
    3a5c:	90 58       	subi	r25, 0x80	; 128
    3a5e:	a2 ea       	ldi	r26, 0xA2	; 162
    3a60:	2a ed       	ldi	r18, 0xDA	; 218
    3a62:	3f e0       	ldi	r19, 0x0F	; 15
    3a64:	49 ec       	ldi	r20, 0xC9	; 201
    3a66:	5f e3       	ldi	r21, 0x3F	; 63
    3a68:	d0 78       	andi	r29, 0x80	; 128
    3a6a:	5d 27       	eor	r21, r29
    3a6c:	4d df       	rcall	.-358    	; 0x3908 <__addsf3x>
    3a6e:	df 91       	pop	r29
    3a70:	c1 c1       	rjmp	.+898    	; 0x3df4 <__fp_round>

00003a72 <__cmpsf2>:
    3a72:	2a d1       	rcall	.+596    	; 0x3cc8 <__fp_cmp>
    3a74:	08 f4       	brcc	.+2      	; 0x3a78 <__cmpsf2+0x6>
    3a76:	81 e0       	ldi	r24, 0x01	; 1
    3a78:	08 95       	ret

00003a7a <cos>:
    3a7a:	95 d1       	rcall	.+810    	; 0x3da6 <__fp_rempio2>
    3a7c:	e3 95       	inc	r30
    3a7e:	cb c1       	rjmp	.+918    	; 0x3e16 <__fp_sinus>

00003a80 <__divsf3>:
    3a80:	0c d0       	rcall	.+24     	; 0x3a9a <__divsf3x>
    3a82:	b8 c1       	rjmp	.+880    	; 0x3df4 <__fp_round>
    3a84:	88 d1       	rcall	.+784    	; 0x3d96 <__fp_pscB>
    3a86:	40 f0       	brcs	.+16     	; 0x3a98 <__divsf3+0x18>
    3a88:	7f d1       	rcall	.+766    	; 0x3d88 <__fp_pscA>
    3a8a:	30 f0       	brcs	.+12     	; 0x3a98 <__divsf3+0x18>
    3a8c:	21 f4       	brne	.+8      	; 0x3a96 <__divsf3+0x16>
    3a8e:	5f 3f       	cpi	r21, 0xFF	; 255
    3a90:	19 f0       	breq	.+6      	; 0x3a98 <__divsf3+0x18>
    3a92:	3e c1       	rjmp	.+636    	; 0x3d10 <__fp_inf>
    3a94:	51 11       	cpse	r21, r1
    3a96:	f3 c1       	rjmp	.+998    	; 0x3e7e <__fp_szero>
    3a98:	4f c1       	rjmp	.+670    	; 0x3d38 <__fp_nan>

00003a9a <__divsf3x>:
    3a9a:	ce d1       	rcall	.+924    	; 0x3e38 <__fp_split3>
    3a9c:	98 f3       	brcs	.-26     	; 0x3a84 <__divsf3+0x4>

00003a9e <__divsf3_pse>:
    3a9e:	99 23       	and	r25, r25
    3aa0:	c9 f3       	breq	.-14     	; 0x3a94 <__divsf3+0x14>
    3aa2:	55 23       	and	r21, r21
    3aa4:	b1 f3       	breq	.-20     	; 0x3a92 <__divsf3+0x12>
    3aa6:	95 1b       	sub	r25, r21
    3aa8:	55 0b       	sbc	r21, r21
    3aaa:	bb 27       	eor	r27, r27
    3aac:	aa 27       	eor	r26, r26
    3aae:	62 17       	cp	r22, r18
    3ab0:	73 07       	cpc	r23, r19
    3ab2:	84 07       	cpc	r24, r20
    3ab4:	38 f0       	brcs	.+14     	; 0x3ac4 <__divsf3_pse+0x26>
    3ab6:	9f 5f       	subi	r25, 0xFF	; 255
    3ab8:	5f 4f       	sbci	r21, 0xFF	; 255
    3aba:	22 0f       	add	r18, r18
    3abc:	33 1f       	adc	r19, r19
    3abe:	44 1f       	adc	r20, r20
    3ac0:	aa 1f       	adc	r26, r26
    3ac2:	a9 f3       	breq	.-22     	; 0x3aae <__divsf3_pse+0x10>
    3ac4:	33 d0       	rcall	.+102    	; 0x3b2c <__divsf3_pse+0x8e>
    3ac6:	0e 2e       	mov	r0, r30
    3ac8:	3a f0       	brmi	.+14     	; 0x3ad8 <__divsf3_pse+0x3a>
    3aca:	e0 e8       	ldi	r30, 0x80	; 128
    3acc:	30 d0       	rcall	.+96     	; 0x3b2e <__divsf3_pse+0x90>
    3ace:	91 50       	subi	r25, 0x01	; 1
    3ad0:	50 40       	sbci	r21, 0x00	; 0
    3ad2:	e6 95       	lsr	r30
    3ad4:	00 1c       	adc	r0, r0
    3ad6:	ca f7       	brpl	.-14     	; 0x3aca <__divsf3_pse+0x2c>
    3ad8:	29 d0       	rcall	.+82     	; 0x3b2c <__divsf3_pse+0x8e>
    3ada:	fe 2f       	mov	r31, r30
    3adc:	27 d0       	rcall	.+78     	; 0x3b2c <__divsf3_pse+0x8e>
    3ade:	66 0f       	add	r22, r22
    3ae0:	77 1f       	adc	r23, r23
    3ae2:	88 1f       	adc	r24, r24
    3ae4:	bb 1f       	adc	r27, r27
    3ae6:	26 17       	cp	r18, r22
    3ae8:	37 07       	cpc	r19, r23
    3aea:	48 07       	cpc	r20, r24
    3aec:	ab 07       	cpc	r26, r27
    3aee:	b0 e8       	ldi	r27, 0x80	; 128
    3af0:	09 f0       	breq	.+2      	; 0x3af4 <__divsf3_pse+0x56>
    3af2:	bb 0b       	sbc	r27, r27
    3af4:	80 2d       	mov	r24, r0
    3af6:	bf 01       	movw	r22, r30
    3af8:	ff 27       	eor	r31, r31
    3afa:	93 58       	subi	r25, 0x83	; 131
    3afc:	5f 4f       	sbci	r21, 0xFF	; 255
    3afe:	2a f0       	brmi	.+10     	; 0x3b0a <__divsf3_pse+0x6c>
    3b00:	9e 3f       	cpi	r25, 0xFE	; 254
    3b02:	51 05       	cpc	r21, r1
    3b04:	68 f0       	brcs	.+26     	; 0x3b20 <__divsf3_pse+0x82>
    3b06:	04 c1       	rjmp	.+520    	; 0x3d10 <__fp_inf>
    3b08:	ba c1       	rjmp	.+884    	; 0x3e7e <__fp_szero>
    3b0a:	5f 3f       	cpi	r21, 0xFF	; 255
    3b0c:	ec f3       	brlt	.-6      	; 0x3b08 <__divsf3_pse+0x6a>
    3b0e:	98 3e       	cpi	r25, 0xE8	; 232
    3b10:	dc f3       	brlt	.-10     	; 0x3b08 <__divsf3_pse+0x6a>
    3b12:	86 95       	lsr	r24
    3b14:	77 95       	ror	r23
    3b16:	67 95       	ror	r22
    3b18:	b7 95       	ror	r27
    3b1a:	f7 95       	ror	r31
    3b1c:	9f 5f       	subi	r25, 0xFF	; 255
    3b1e:	c9 f7       	brne	.-14     	; 0x3b12 <__divsf3_pse+0x74>
    3b20:	88 0f       	add	r24, r24
    3b22:	91 1d       	adc	r25, r1
    3b24:	96 95       	lsr	r25
    3b26:	87 95       	ror	r24
    3b28:	97 f9       	bld	r25, 7
    3b2a:	08 95       	ret
    3b2c:	e1 e0       	ldi	r30, 0x01	; 1
    3b2e:	66 0f       	add	r22, r22
    3b30:	77 1f       	adc	r23, r23
    3b32:	88 1f       	adc	r24, r24
    3b34:	bb 1f       	adc	r27, r27
    3b36:	62 17       	cp	r22, r18
    3b38:	73 07       	cpc	r23, r19
    3b3a:	84 07       	cpc	r24, r20
    3b3c:	ba 07       	cpc	r27, r26
    3b3e:	20 f0       	brcs	.+8      	; 0x3b48 <__divsf3_pse+0xaa>
    3b40:	62 1b       	sub	r22, r18
    3b42:	73 0b       	sbc	r23, r19
    3b44:	84 0b       	sbc	r24, r20
    3b46:	ba 0b       	sbc	r27, r26
    3b48:	ee 1f       	adc	r30, r30
    3b4a:	88 f7       	brcc	.-30     	; 0x3b2e <__divsf3_pse+0x90>
    3b4c:	e0 95       	com	r30
    3b4e:	08 95       	ret

00003b50 <__fixsfsi>:
    3b50:	04 d0       	rcall	.+8      	; 0x3b5a <__fixunssfsi>
    3b52:	68 94       	set
    3b54:	b1 11       	cpse	r27, r1
    3b56:	93 c1       	rjmp	.+806    	; 0x3e7e <__fp_szero>
    3b58:	08 95       	ret

00003b5a <__fixunssfsi>:
    3b5a:	76 d1       	rcall	.+748    	; 0x3e48 <__fp_splitA>
    3b5c:	88 f0       	brcs	.+34     	; 0x3b80 <__fixunssfsi+0x26>
    3b5e:	9f 57       	subi	r25, 0x7F	; 127
    3b60:	90 f0       	brcs	.+36     	; 0x3b86 <__fixunssfsi+0x2c>
    3b62:	b9 2f       	mov	r27, r25
    3b64:	99 27       	eor	r25, r25
    3b66:	b7 51       	subi	r27, 0x17	; 23
    3b68:	a0 f0       	brcs	.+40     	; 0x3b92 <__fixunssfsi+0x38>
    3b6a:	d1 f0       	breq	.+52     	; 0x3ba0 <__fixunssfsi+0x46>
    3b6c:	66 0f       	add	r22, r22
    3b6e:	77 1f       	adc	r23, r23
    3b70:	88 1f       	adc	r24, r24
    3b72:	99 1f       	adc	r25, r25
    3b74:	1a f0       	brmi	.+6      	; 0x3b7c <__fixunssfsi+0x22>
    3b76:	ba 95       	dec	r27
    3b78:	c9 f7       	brne	.-14     	; 0x3b6c <__fixunssfsi+0x12>
    3b7a:	12 c0       	rjmp	.+36     	; 0x3ba0 <__fixunssfsi+0x46>
    3b7c:	b1 30       	cpi	r27, 0x01	; 1
    3b7e:	81 f0       	breq	.+32     	; 0x3ba0 <__fixunssfsi+0x46>
    3b80:	7d d1       	rcall	.+762    	; 0x3e7c <__fp_zero>
    3b82:	b1 e0       	ldi	r27, 0x01	; 1
    3b84:	08 95       	ret
    3b86:	7a c1       	rjmp	.+756    	; 0x3e7c <__fp_zero>
    3b88:	67 2f       	mov	r22, r23
    3b8a:	78 2f       	mov	r23, r24
    3b8c:	88 27       	eor	r24, r24
    3b8e:	b8 5f       	subi	r27, 0xF8	; 248
    3b90:	39 f0       	breq	.+14     	; 0x3ba0 <__fixunssfsi+0x46>
    3b92:	b9 3f       	cpi	r27, 0xF9	; 249
    3b94:	cc f3       	brlt	.-14     	; 0x3b88 <__fixunssfsi+0x2e>
    3b96:	86 95       	lsr	r24
    3b98:	77 95       	ror	r23
    3b9a:	67 95       	ror	r22
    3b9c:	b3 95       	inc	r27
    3b9e:	d9 f7       	brne	.-10     	; 0x3b96 <__fixunssfsi+0x3c>
    3ba0:	3e f4       	brtc	.+14     	; 0x3bb0 <__fixunssfsi+0x56>
    3ba2:	90 95       	com	r25
    3ba4:	80 95       	com	r24
    3ba6:	70 95       	com	r23
    3ba8:	61 95       	neg	r22
    3baa:	7f 4f       	sbci	r23, 0xFF	; 255
    3bac:	8f 4f       	sbci	r24, 0xFF	; 255
    3bae:	9f 4f       	sbci	r25, 0xFF	; 255
    3bb0:	08 95       	ret

00003bb2 <__floatunsisf>:
    3bb2:	e8 94       	clt
    3bb4:	09 c0       	rjmp	.+18     	; 0x3bc8 <__floatsisf+0x12>

00003bb6 <__floatsisf>:
    3bb6:	97 fb       	bst	r25, 7
    3bb8:	3e f4       	brtc	.+14     	; 0x3bc8 <__floatsisf+0x12>
    3bba:	90 95       	com	r25
    3bbc:	80 95       	com	r24
    3bbe:	70 95       	com	r23
    3bc0:	61 95       	neg	r22
    3bc2:	7f 4f       	sbci	r23, 0xFF	; 255
    3bc4:	8f 4f       	sbci	r24, 0xFF	; 255
    3bc6:	9f 4f       	sbci	r25, 0xFF	; 255
    3bc8:	99 23       	and	r25, r25
    3bca:	a9 f0       	breq	.+42     	; 0x3bf6 <__floatsisf+0x40>
    3bcc:	f9 2f       	mov	r31, r25
    3bce:	96 e9       	ldi	r25, 0x96	; 150
    3bd0:	bb 27       	eor	r27, r27
    3bd2:	93 95       	inc	r25
    3bd4:	f6 95       	lsr	r31
    3bd6:	87 95       	ror	r24
    3bd8:	77 95       	ror	r23
    3bda:	67 95       	ror	r22
    3bdc:	b7 95       	ror	r27
    3bde:	f1 11       	cpse	r31, r1
    3be0:	f8 cf       	rjmp	.-16     	; 0x3bd2 <__floatsisf+0x1c>
    3be2:	fa f4       	brpl	.+62     	; 0x3c22 <__floatsisf+0x6c>
    3be4:	bb 0f       	add	r27, r27
    3be6:	11 f4       	brne	.+4      	; 0x3bec <__floatsisf+0x36>
    3be8:	60 ff       	sbrs	r22, 0
    3bea:	1b c0       	rjmp	.+54     	; 0x3c22 <__floatsisf+0x6c>
    3bec:	6f 5f       	subi	r22, 0xFF	; 255
    3bee:	7f 4f       	sbci	r23, 0xFF	; 255
    3bf0:	8f 4f       	sbci	r24, 0xFF	; 255
    3bf2:	9f 4f       	sbci	r25, 0xFF	; 255
    3bf4:	16 c0       	rjmp	.+44     	; 0x3c22 <__floatsisf+0x6c>
    3bf6:	88 23       	and	r24, r24
    3bf8:	11 f0       	breq	.+4      	; 0x3bfe <__floatsisf+0x48>
    3bfa:	96 e9       	ldi	r25, 0x96	; 150
    3bfc:	11 c0       	rjmp	.+34     	; 0x3c20 <__floatsisf+0x6a>
    3bfe:	77 23       	and	r23, r23
    3c00:	21 f0       	breq	.+8      	; 0x3c0a <__floatsisf+0x54>
    3c02:	9e e8       	ldi	r25, 0x8E	; 142
    3c04:	87 2f       	mov	r24, r23
    3c06:	76 2f       	mov	r23, r22
    3c08:	05 c0       	rjmp	.+10     	; 0x3c14 <__floatsisf+0x5e>
    3c0a:	66 23       	and	r22, r22
    3c0c:	71 f0       	breq	.+28     	; 0x3c2a <__floatsisf+0x74>
    3c0e:	96 e8       	ldi	r25, 0x86	; 134
    3c10:	86 2f       	mov	r24, r22
    3c12:	70 e0       	ldi	r23, 0x00	; 0
    3c14:	60 e0       	ldi	r22, 0x00	; 0
    3c16:	2a f0       	brmi	.+10     	; 0x3c22 <__floatsisf+0x6c>
    3c18:	9a 95       	dec	r25
    3c1a:	66 0f       	add	r22, r22
    3c1c:	77 1f       	adc	r23, r23
    3c1e:	88 1f       	adc	r24, r24
    3c20:	da f7       	brpl	.-10     	; 0x3c18 <__floatsisf+0x62>
    3c22:	88 0f       	add	r24, r24
    3c24:	96 95       	lsr	r25
    3c26:	87 95       	ror	r24
    3c28:	97 f9       	bld	r25, 7
    3c2a:	08 95       	ret
    3c2c:	ad d0       	rcall	.+346    	; 0x3d88 <__fp_pscA>
    3c2e:	18 f0       	brcs	.+6      	; 0x3c36 <__floatsisf+0x80>
    3c30:	11 f0       	breq	.+4      	; 0x3c36 <__floatsisf+0x80>
    3c32:	b1 d0       	rcall	.+354    	; 0x3d96 <__fp_pscB>
    3c34:	38 f4       	brcc	.+14     	; 0x3c44 <fmod+0xa>
    3c36:	80 c0       	rjmp	.+256    	; 0x3d38 <__fp_nan>
    3c38:	22 c1       	rjmp	.+580    	; 0x3e7e <__fp_szero>

00003c3a <fmod>:
    3c3a:	e9 2f       	mov	r30, r25
    3c3c:	fd d0       	rcall	.+506    	; 0x3e38 <__fp_split3>
    3c3e:	b0 f3       	brcs	.-20     	; 0x3c2c <__floatsisf+0x76>
    3c40:	55 23       	and	r21, r21
    3c42:	c9 f3       	breq	.-14     	; 0x3c36 <__floatsisf+0x80>
    3c44:	e7 fb       	bst	r30, 7
    3c46:	62 17       	cp	r22, r18
    3c48:	73 07       	cpc	r23, r19
    3c4a:	84 07       	cpc	r24, r20
    3c4c:	95 07       	cpc	r25, r21
    3c4e:	a8 f1       	brcs	.+106    	; 0x3cba <fmod+0x80>
    3c50:	99 f3       	breq	.-26     	; 0x3c38 <__floatsisf+0x82>
    3c52:	e9 2f       	mov	r30, r25
    3c54:	ff 27       	eor	r31, r31
    3c56:	88 23       	and	r24, r24
    3c58:	2a f0       	brmi	.+10     	; 0x3c64 <fmod+0x2a>
    3c5a:	31 97       	sbiw	r30, 0x01	; 1
    3c5c:	66 0f       	add	r22, r22
    3c5e:	77 1f       	adc	r23, r23
    3c60:	88 1f       	adc	r24, r24
    3c62:	da f7       	brpl	.-10     	; 0x3c5a <fmod+0x20>
    3c64:	95 2f       	mov	r25, r21
    3c66:	55 27       	eor	r21, r21
    3c68:	44 23       	and	r20, r20
    3c6a:	32 f0       	brmi	.+12     	; 0x3c78 <fmod+0x3e>
    3c6c:	91 50       	subi	r25, 0x01	; 1
    3c6e:	50 40       	sbci	r21, 0x00	; 0
    3c70:	22 0f       	add	r18, r18
    3c72:	33 1f       	adc	r19, r19
    3c74:	44 1f       	adc	r20, r20
    3c76:	d2 f7       	brpl	.-12     	; 0x3c6c <fmod+0x32>
    3c78:	bb 27       	eor	r27, r27
    3c7a:	e9 1b       	sub	r30, r25
    3c7c:	f5 0b       	sbc	r31, r21
    3c7e:	62 1b       	sub	r22, r18
    3c80:	73 0b       	sbc	r23, r19
    3c82:	84 0b       	sbc	r24, r20
    3c84:	b1 09       	sbc	r27, r1
    3c86:	c1 f2       	breq	.-80     	; 0x3c38 <__floatsisf+0x82>
    3c88:	22 f4       	brpl	.+8      	; 0x3c92 <fmod+0x58>
    3c8a:	62 0f       	add	r22, r18
    3c8c:	73 1f       	adc	r23, r19
    3c8e:	84 1f       	adc	r24, r20
    3c90:	b1 1d       	adc	r27, r1
    3c92:	31 97       	sbiw	r30, 0x01	; 1
    3c94:	2a f0       	brmi	.+10     	; 0x3ca0 <fmod+0x66>
    3c96:	66 0f       	add	r22, r22
    3c98:	77 1f       	adc	r23, r23
    3c9a:	88 1f       	adc	r24, r24
    3c9c:	bb 1f       	adc	r27, r27
    3c9e:	ef cf       	rjmp	.-34     	; 0x3c7e <fmod+0x44>
    3ca0:	91 50       	subi	r25, 0x01	; 1
    3ca2:	50 40       	sbci	r21, 0x00	; 0
    3ca4:	5a f0       	brmi	.+22     	; 0x3cbc <fmod+0x82>
    3ca6:	41 f0       	breq	.+16     	; 0x3cb8 <fmod+0x7e>
    3ca8:	88 23       	and	r24, r24
    3caa:	32 f0       	brmi	.+12     	; 0x3cb8 <fmod+0x7e>
    3cac:	66 0f       	add	r22, r22
    3cae:	77 1f       	adc	r23, r23
    3cb0:	88 1f       	adc	r24, r24
    3cb2:	91 50       	subi	r25, 0x01	; 1
    3cb4:	50 40       	sbci	r21, 0x00	; 0
    3cb6:	c1 f7       	brne	.-16     	; 0x3ca8 <fmod+0x6e>
    3cb8:	93 95       	inc	r25
    3cba:	30 c0       	rjmp	.+96     	; 0x3d1c <__fp_mpack>
    3cbc:	86 95       	lsr	r24
    3cbe:	77 95       	ror	r23
    3cc0:	67 95       	ror	r22
    3cc2:	9f 5f       	subi	r25, 0xFF	; 255
    3cc4:	d9 f7       	brne	.-10     	; 0x3cbc <fmod+0x82>
    3cc6:	f8 cf       	rjmp	.-16     	; 0x3cb8 <fmod+0x7e>

00003cc8 <__fp_cmp>:
    3cc8:	99 0f       	add	r25, r25
    3cca:	00 08       	sbc	r0, r0
    3ccc:	55 0f       	add	r21, r21
    3cce:	aa 0b       	sbc	r26, r26
    3cd0:	e0 e8       	ldi	r30, 0x80	; 128
    3cd2:	fe ef       	ldi	r31, 0xFE	; 254
    3cd4:	16 16       	cp	r1, r22
    3cd6:	17 06       	cpc	r1, r23
    3cd8:	e8 07       	cpc	r30, r24
    3cda:	f9 07       	cpc	r31, r25
    3cdc:	c0 f0       	brcs	.+48     	; 0x3d0e <__fp_cmp+0x46>
    3cde:	12 16       	cp	r1, r18
    3ce0:	13 06       	cpc	r1, r19
    3ce2:	e4 07       	cpc	r30, r20
    3ce4:	f5 07       	cpc	r31, r21
    3ce6:	98 f0       	brcs	.+38     	; 0x3d0e <__fp_cmp+0x46>
    3ce8:	62 1b       	sub	r22, r18
    3cea:	73 0b       	sbc	r23, r19
    3cec:	84 0b       	sbc	r24, r20
    3cee:	95 0b       	sbc	r25, r21
    3cf0:	39 f4       	brne	.+14     	; 0x3d00 <__fp_cmp+0x38>
    3cf2:	0a 26       	eor	r0, r26
    3cf4:	61 f0       	breq	.+24     	; 0x3d0e <__fp_cmp+0x46>
    3cf6:	23 2b       	or	r18, r19
    3cf8:	24 2b       	or	r18, r20
    3cfa:	25 2b       	or	r18, r21
    3cfc:	21 f4       	brne	.+8      	; 0x3d06 <__fp_cmp+0x3e>
    3cfe:	08 95       	ret
    3d00:	0a 26       	eor	r0, r26
    3d02:	09 f4       	brne	.+2      	; 0x3d06 <__fp_cmp+0x3e>
    3d04:	a1 40       	sbci	r26, 0x01	; 1
    3d06:	a6 95       	lsr	r26
    3d08:	8f ef       	ldi	r24, 0xFF	; 255
    3d0a:	81 1d       	adc	r24, r1
    3d0c:	81 1d       	adc	r24, r1
    3d0e:	08 95       	ret

00003d10 <__fp_inf>:
    3d10:	97 f9       	bld	r25, 7
    3d12:	9f 67       	ori	r25, 0x7F	; 127
    3d14:	80 e8       	ldi	r24, 0x80	; 128
    3d16:	70 e0       	ldi	r23, 0x00	; 0
    3d18:	60 e0       	ldi	r22, 0x00	; 0
    3d1a:	08 95       	ret

00003d1c <__fp_mpack>:
    3d1c:	9f 3f       	cpi	r25, 0xFF	; 255
    3d1e:	31 f0       	breq	.+12     	; 0x3d2c <__fp_mpack_finite+0xc>

00003d20 <__fp_mpack_finite>:
    3d20:	91 50       	subi	r25, 0x01	; 1
    3d22:	20 f4       	brcc	.+8      	; 0x3d2c <__fp_mpack_finite+0xc>
    3d24:	87 95       	ror	r24
    3d26:	77 95       	ror	r23
    3d28:	67 95       	ror	r22
    3d2a:	b7 95       	ror	r27
    3d2c:	88 0f       	add	r24, r24
    3d2e:	91 1d       	adc	r25, r1
    3d30:	96 95       	lsr	r25
    3d32:	87 95       	ror	r24
    3d34:	97 f9       	bld	r25, 7
    3d36:	08 95       	ret

00003d38 <__fp_nan>:
    3d38:	9f ef       	ldi	r25, 0xFF	; 255
    3d3a:	80 ec       	ldi	r24, 0xC0	; 192
    3d3c:	08 95       	ret

00003d3e <__fp_powser>:
    3d3e:	df 93       	push	r29
    3d40:	cf 93       	push	r28
    3d42:	1f 93       	push	r17
    3d44:	0f 93       	push	r16
    3d46:	ff 92       	push	r15
    3d48:	ef 92       	push	r14
    3d4a:	df 92       	push	r13
    3d4c:	7b 01       	movw	r14, r22
    3d4e:	8c 01       	movw	r16, r24
    3d50:	68 94       	set
    3d52:	05 c0       	rjmp	.+10     	; 0x3d5e <__fp_powser+0x20>
    3d54:	da 2e       	mov	r13, r26
    3d56:	ef 01       	movw	r28, r30
    3d58:	af d0       	rcall	.+350    	; 0x3eb8 <__mulsf3x>
    3d5a:	fe 01       	movw	r30, r28
    3d5c:	e8 94       	clt
    3d5e:	a5 91       	lpm	r26, Z+
    3d60:	25 91       	lpm	r18, Z+
    3d62:	35 91       	lpm	r19, Z+
    3d64:	45 91       	lpm	r20, Z+
    3d66:	55 91       	lpm	r21, Z+
    3d68:	ae f3       	brts	.-22     	; 0x3d54 <__fp_powser+0x16>
    3d6a:	ef 01       	movw	r28, r30
    3d6c:	cd dd       	rcall	.-1126   	; 0x3908 <__addsf3x>
    3d6e:	fe 01       	movw	r30, r28
    3d70:	97 01       	movw	r18, r14
    3d72:	a8 01       	movw	r20, r16
    3d74:	da 94       	dec	r13
    3d76:	79 f7       	brne	.-34     	; 0x3d56 <__fp_powser+0x18>
    3d78:	df 90       	pop	r13
    3d7a:	ef 90       	pop	r14
    3d7c:	ff 90       	pop	r15
    3d7e:	0f 91       	pop	r16
    3d80:	1f 91       	pop	r17
    3d82:	cf 91       	pop	r28
    3d84:	df 91       	pop	r29
    3d86:	08 95       	ret

00003d88 <__fp_pscA>:
    3d88:	00 24       	eor	r0, r0
    3d8a:	0a 94       	dec	r0
    3d8c:	16 16       	cp	r1, r22
    3d8e:	17 06       	cpc	r1, r23
    3d90:	18 06       	cpc	r1, r24
    3d92:	09 06       	cpc	r0, r25
    3d94:	08 95       	ret

00003d96 <__fp_pscB>:
    3d96:	00 24       	eor	r0, r0
    3d98:	0a 94       	dec	r0
    3d9a:	12 16       	cp	r1, r18
    3d9c:	13 06       	cpc	r1, r19
    3d9e:	14 06       	cpc	r1, r20
    3da0:	05 06       	cpc	r0, r21
    3da2:	08 95       	ret
    3da4:	c9 cf       	rjmp	.-110    	; 0x3d38 <__fp_nan>

00003da6 <__fp_rempio2>:
    3da6:	50 d0       	rcall	.+160    	; 0x3e48 <__fp_splitA>
    3da8:	e8 f3       	brcs	.-6      	; 0x3da4 <__fp_pscB+0xe>
    3daa:	e8 94       	clt
    3dac:	e0 e0       	ldi	r30, 0x00	; 0
    3dae:	bb 27       	eor	r27, r27
    3db0:	9f 57       	subi	r25, 0x7F	; 127
    3db2:	f0 f0       	brcs	.+60     	; 0x3df0 <__fp_rempio2+0x4a>
    3db4:	2a ed       	ldi	r18, 0xDA	; 218
    3db6:	3f e0       	ldi	r19, 0x0F	; 15
    3db8:	49 ec       	ldi	r20, 0xC9	; 201
    3dba:	06 c0       	rjmp	.+12     	; 0x3dc8 <__fp_rempio2+0x22>
    3dbc:	ee 0f       	add	r30, r30
    3dbe:	bb 0f       	add	r27, r27
    3dc0:	66 1f       	adc	r22, r22
    3dc2:	77 1f       	adc	r23, r23
    3dc4:	88 1f       	adc	r24, r24
    3dc6:	28 f0       	brcs	.+10     	; 0x3dd2 <__fp_rempio2+0x2c>
    3dc8:	b2 3a       	cpi	r27, 0xA2	; 162
    3dca:	62 07       	cpc	r22, r18
    3dcc:	73 07       	cpc	r23, r19
    3dce:	84 07       	cpc	r24, r20
    3dd0:	28 f0       	brcs	.+10     	; 0x3ddc <__fp_rempio2+0x36>
    3dd2:	b2 5a       	subi	r27, 0xA2	; 162
    3dd4:	62 0b       	sbc	r22, r18
    3dd6:	73 0b       	sbc	r23, r19
    3dd8:	84 0b       	sbc	r24, r20
    3dda:	e3 95       	inc	r30
    3ddc:	9a 95       	dec	r25
    3dde:	72 f7       	brpl	.-36     	; 0x3dbc <__fp_rempio2+0x16>
    3de0:	80 38       	cpi	r24, 0x80	; 128
    3de2:	30 f4       	brcc	.+12     	; 0x3df0 <__fp_rempio2+0x4a>
    3de4:	9a 95       	dec	r25
    3de6:	bb 0f       	add	r27, r27
    3de8:	66 1f       	adc	r22, r22
    3dea:	77 1f       	adc	r23, r23
    3dec:	88 1f       	adc	r24, r24
    3dee:	d2 f7       	brpl	.-12     	; 0x3de4 <__fp_rempio2+0x3e>
    3df0:	90 48       	sbci	r25, 0x80	; 128
    3df2:	96 cf       	rjmp	.-212    	; 0x3d20 <__fp_mpack_finite>

00003df4 <__fp_round>:
    3df4:	09 2e       	mov	r0, r25
    3df6:	03 94       	inc	r0
    3df8:	00 0c       	add	r0, r0
    3dfa:	11 f4       	brne	.+4      	; 0x3e00 <__fp_round+0xc>
    3dfc:	88 23       	and	r24, r24
    3dfe:	52 f0       	brmi	.+20     	; 0x3e14 <__fp_round+0x20>
    3e00:	bb 0f       	add	r27, r27
    3e02:	40 f4       	brcc	.+16     	; 0x3e14 <__fp_round+0x20>
    3e04:	bf 2b       	or	r27, r31
    3e06:	11 f4       	brne	.+4      	; 0x3e0c <__fp_round+0x18>
    3e08:	60 ff       	sbrs	r22, 0
    3e0a:	04 c0       	rjmp	.+8      	; 0x3e14 <__fp_round+0x20>
    3e0c:	6f 5f       	subi	r22, 0xFF	; 255
    3e0e:	7f 4f       	sbci	r23, 0xFF	; 255
    3e10:	8f 4f       	sbci	r24, 0xFF	; 255
    3e12:	9f 4f       	sbci	r25, 0xFF	; 255
    3e14:	08 95       	ret

00003e16 <__fp_sinus>:
    3e16:	ef 93       	push	r30
    3e18:	e0 ff       	sbrs	r30, 0
    3e1a:	06 c0       	rjmp	.+12     	; 0x3e28 <__fp_sinus+0x12>
    3e1c:	a2 ea       	ldi	r26, 0xA2	; 162
    3e1e:	2a ed       	ldi	r18, 0xDA	; 218
    3e20:	3f e0       	ldi	r19, 0x0F	; 15
    3e22:	49 ec       	ldi	r20, 0xC9	; 201
    3e24:	5f eb       	ldi	r21, 0xBF	; 191
    3e26:	70 dd       	rcall	.-1312   	; 0x3908 <__addsf3x>
    3e28:	e5 df       	rcall	.-54     	; 0x3df4 <__fp_round>
    3e2a:	0f 90       	pop	r0
    3e2c:	03 94       	inc	r0
    3e2e:	01 fc       	sbrc	r0, 1
    3e30:	90 58       	subi	r25, 0x80	; 128
    3e32:	e1 e1       	ldi	r30, 0x11	; 17
    3e34:	f1 e0       	ldi	r31, 0x01	; 1
    3e36:	e9 c0       	rjmp	.+466    	; 0x400a <__fp_powsodd>

00003e38 <__fp_split3>:
    3e38:	57 fd       	sbrc	r21, 7
    3e3a:	90 58       	subi	r25, 0x80	; 128
    3e3c:	44 0f       	add	r20, r20
    3e3e:	55 1f       	adc	r21, r21
    3e40:	59 f0       	breq	.+22     	; 0x3e58 <__fp_splitA+0x10>
    3e42:	5f 3f       	cpi	r21, 0xFF	; 255
    3e44:	71 f0       	breq	.+28     	; 0x3e62 <__fp_splitA+0x1a>
    3e46:	47 95       	ror	r20

00003e48 <__fp_splitA>:
    3e48:	88 0f       	add	r24, r24
    3e4a:	97 fb       	bst	r25, 7
    3e4c:	99 1f       	adc	r25, r25
    3e4e:	61 f0       	breq	.+24     	; 0x3e68 <__fp_splitA+0x20>
    3e50:	9f 3f       	cpi	r25, 0xFF	; 255
    3e52:	79 f0       	breq	.+30     	; 0x3e72 <__fp_splitA+0x2a>
    3e54:	87 95       	ror	r24
    3e56:	08 95       	ret
    3e58:	12 16       	cp	r1, r18
    3e5a:	13 06       	cpc	r1, r19
    3e5c:	14 06       	cpc	r1, r20
    3e5e:	55 1f       	adc	r21, r21
    3e60:	f2 cf       	rjmp	.-28     	; 0x3e46 <__fp_split3+0xe>
    3e62:	46 95       	lsr	r20
    3e64:	f1 df       	rcall	.-30     	; 0x3e48 <__fp_splitA>
    3e66:	08 c0       	rjmp	.+16     	; 0x3e78 <__fp_splitA+0x30>
    3e68:	16 16       	cp	r1, r22
    3e6a:	17 06       	cpc	r1, r23
    3e6c:	18 06       	cpc	r1, r24
    3e6e:	99 1f       	adc	r25, r25
    3e70:	f1 cf       	rjmp	.-30     	; 0x3e54 <__fp_splitA+0xc>
    3e72:	86 95       	lsr	r24
    3e74:	71 05       	cpc	r23, r1
    3e76:	61 05       	cpc	r22, r1
    3e78:	08 94       	sec
    3e7a:	08 95       	ret

00003e7c <__fp_zero>:
    3e7c:	e8 94       	clt

00003e7e <__fp_szero>:
    3e7e:	bb 27       	eor	r27, r27
    3e80:	66 27       	eor	r22, r22
    3e82:	77 27       	eor	r23, r23
    3e84:	cb 01       	movw	r24, r22
    3e86:	97 f9       	bld	r25, 7
    3e88:	08 95       	ret

00003e8a <__gesf2>:
    3e8a:	1e df       	rcall	.-452    	; 0x3cc8 <__fp_cmp>
    3e8c:	08 f4       	brcc	.+2      	; 0x3e90 <__gesf2+0x6>
    3e8e:	8f ef       	ldi	r24, 0xFF	; 255
    3e90:	08 95       	ret

00003e92 <inverse>:
    3e92:	9b 01       	movw	r18, r22
    3e94:	ac 01       	movw	r20, r24
    3e96:	60 e0       	ldi	r22, 0x00	; 0
    3e98:	70 e0       	ldi	r23, 0x00	; 0
    3e9a:	80 e8       	ldi	r24, 0x80	; 128
    3e9c:	9f e3       	ldi	r25, 0x3F	; 63
    3e9e:	f0 cd       	rjmp	.-1056   	; 0x3a80 <__divsf3>

00003ea0 <__mulsf3>:
    3ea0:	0b d0       	rcall	.+22     	; 0x3eb8 <__mulsf3x>
    3ea2:	a8 cf       	rjmp	.-176    	; 0x3df4 <__fp_round>
    3ea4:	71 df       	rcall	.-286    	; 0x3d88 <__fp_pscA>
    3ea6:	28 f0       	brcs	.+10     	; 0x3eb2 <__mulsf3+0x12>
    3ea8:	76 df       	rcall	.-276    	; 0x3d96 <__fp_pscB>
    3eaa:	18 f0       	brcs	.+6      	; 0x3eb2 <__mulsf3+0x12>
    3eac:	95 23       	and	r25, r21
    3eae:	09 f0       	breq	.+2      	; 0x3eb2 <__mulsf3+0x12>
    3eb0:	2f cf       	rjmp	.-418    	; 0x3d10 <__fp_inf>
    3eb2:	42 cf       	rjmp	.-380    	; 0x3d38 <__fp_nan>
    3eb4:	11 24       	eor	r1, r1
    3eb6:	e3 cf       	rjmp	.-58     	; 0x3e7e <__fp_szero>

00003eb8 <__mulsf3x>:
    3eb8:	bf df       	rcall	.-130    	; 0x3e38 <__fp_split3>
    3eba:	a0 f3       	brcs	.-24     	; 0x3ea4 <__mulsf3+0x4>

00003ebc <__mulsf3_pse>:
    3ebc:	95 9f       	mul	r25, r21
    3ebe:	d1 f3       	breq	.-12     	; 0x3eb4 <__mulsf3+0x14>
    3ec0:	95 0f       	add	r25, r21
    3ec2:	50 e0       	ldi	r21, 0x00	; 0
    3ec4:	55 1f       	adc	r21, r21
    3ec6:	62 9f       	mul	r22, r18
    3ec8:	f0 01       	movw	r30, r0
    3eca:	72 9f       	mul	r23, r18
    3ecc:	bb 27       	eor	r27, r27
    3ece:	f0 0d       	add	r31, r0
    3ed0:	b1 1d       	adc	r27, r1
    3ed2:	63 9f       	mul	r22, r19
    3ed4:	aa 27       	eor	r26, r26
    3ed6:	f0 0d       	add	r31, r0
    3ed8:	b1 1d       	adc	r27, r1
    3eda:	aa 1f       	adc	r26, r26
    3edc:	64 9f       	mul	r22, r20
    3ede:	66 27       	eor	r22, r22
    3ee0:	b0 0d       	add	r27, r0
    3ee2:	a1 1d       	adc	r26, r1
    3ee4:	66 1f       	adc	r22, r22
    3ee6:	82 9f       	mul	r24, r18
    3ee8:	22 27       	eor	r18, r18
    3eea:	b0 0d       	add	r27, r0
    3eec:	a1 1d       	adc	r26, r1
    3eee:	62 1f       	adc	r22, r18
    3ef0:	73 9f       	mul	r23, r19
    3ef2:	b0 0d       	add	r27, r0
    3ef4:	a1 1d       	adc	r26, r1
    3ef6:	62 1f       	adc	r22, r18
    3ef8:	83 9f       	mul	r24, r19
    3efa:	a0 0d       	add	r26, r0
    3efc:	61 1d       	adc	r22, r1
    3efe:	22 1f       	adc	r18, r18
    3f00:	74 9f       	mul	r23, r20
    3f02:	33 27       	eor	r19, r19
    3f04:	a0 0d       	add	r26, r0
    3f06:	61 1d       	adc	r22, r1
    3f08:	23 1f       	adc	r18, r19
    3f0a:	84 9f       	mul	r24, r20
    3f0c:	60 0d       	add	r22, r0
    3f0e:	21 1d       	adc	r18, r1
    3f10:	82 2f       	mov	r24, r18
    3f12:	76 2f       	mov	r23, r22
    3f14:	6a 2f       	mov	r22, r26
    3f16:	11 24       	eor	r1, r1
    3f18:	9f 57       	subi	r25, 0x7F	; 127
    3f1a:	50 40       	sbci	r21, 0x00	; 0
    3f1c:	8a f0       	brmi	.+34     	; 0x3f40 <__mulsf3_pse+0x84>
    3f1e:	e1 f0       	breq	.+56     	; 0x3f58 <__mulsf3_pse+0x9c>
    3f20:	88 23       	and	r24, r24
    3f22:	4a f0       	brmi	.+18     	; 0x3f36 <__mulsf3_pse+0x7a>
    3f24:	ee 0f       	add	r30, r30
    3f26:	ff 1f       	adc	r31, r31
    3f28:	bb 1f       	adc	r27, r27
    3f2a:	66 1f       	adc	r22, r22
    3f2c:	77 1f       	adc	r23, r23
    3f2e:	88 1f       	adc	r24, r24
    3f30:	91 50       	subi	r25, 0x01	; 1
    3f32:	50 40       	sbci	r21, 0x00	; 0
    3f34:	a9 f7       	brne	.-22     	; 0x3f20 <__mulsf3_pse+0x64>
    3f36:	9e 3f       	cpi	r25, 0xFE	; 254
    3f38:	51 05       	cpc	r21, r1
    3f3a:	70 f0       	brcs	.+28     	; 0x3f58 <__mulsf3_pse+0x9c>
    3f3c:	e9 ce       	rjmp	.-558    	; 0x3d10 <__fp_inf>
    3f3e:	9f cf       	rjmp	.-194    	; 0x3e7e <__fp_szero>
    3f40:	5f 3f       	cpi	r21, 0xFF	; 255
    3f42:	ec f3       	brlt	.-6      	; 0x3f3e <__mulsf3_pse+0x82>
    3f44:	98 3e       	cpi	r25, 0xE8	; 232
    3f46:	dc f3       	brlt	.-10     	; 0x3f3e <__mulsf3_pse+0x82>
    3f48:	86 95       	lsr	r24
    3f4a:	77 95       	ror	r23
    3f4c:	67 95       	ror	r22
    3f4e:	b7 95       	ror	r27
    3f50:	f7 95       	ror	r31
    3f52:	e7 95       	ror	r30
    3f54:	9f 5f       	subi	r25, 0xFF	; 255
    3f56:	c1 f7       	brne	.-16     	; 0x3f48 <__mulsf3_pse+0x8c>
    3f58:	fe 2b       	or	r31, r30
    3f5a:	88 0f       	add	r24, r24
    3f5c:	91 1d       	adc	r25, r1
    3f5e:	96 95       	lsr	r25
    3f60:	87 95       	ror	r24
    3f62:	97 f9       	bld	r25, 7
    3f64:	08 95       	ret

00003f66 <sin>:
    3f66:	9f 93       	push	r25
    3f68:	1e df       	rcall	.-452    	; 0x3da6 <__fp_rempio2>
    3f6a:	0f 90       	pop	r0
    3f6c:	07 fc       	sbrc	r0, 7
    3f6e:	ee 5f       	subi	r30, 0xFE	; 254
    3f70:	52 cf       	rjmp	.-348    	; 0x3e16 <__fp_sinus>
    3f72:	11 f4       	brne	.+4      	; 0x3f78 <sin+0x12>
    3f74:	0e f4       	brtc	.+2      	; 0x3f78 <sin+0x12>
    3f76:	e0 ce       	rjmp	.-576    	; 0x3d38 <__fp_nan>
    3f78:	d1 ce       	rjmp	.-606    	; 0x3d1c <__fp_mpack>

00003f7a <sqrt>:
    3f7a:	66 df       	rcall	.-308    	; 0x3e48 <__fp_splitA>
    3f7c:	d0 f3       	brcs	.-12     	; 0x3f72 <sin+0xc>
    3f7e:	99 23       	and	r25, r25
    3f80:	d9 f3       	breq	.-10     	; 0x3f78 <sin+0x12>
    3f82:	ce f3       	brts	.-14     	; 0x3f76 <sin+0x10>
    3f84:	9f 57       	subi	r25, 0x7F	; 127
    3f86:	55 0b       	sbc	r21, r21
    3f88:	87 ff       	sbrs	r24, 7
    3f8a:	38 d0       	rcall	.+112    	; 0x3ffc <__fp_norm2>
    3f8c:	00 24       	eor	r0, r0
    3f8e:	a0 e6       	ldi	r26, 0x60	; 96
    3f90:	40 ea       	ldi	r20, 0xA0	; 160
    3f92:	90 01       	movw	r18, r0
    3f94:	80 58       	subi	r24, 0x80	; 128
    3f96:	56 95       	lsr	r21
    3f98:	97 95       	ror	r25
    3f9a:	28 f4       	brcc	.+10     	; 0x3fa6 <sqrt+0x2c>
    3f9c:	80 5c       	subi	r24, 0xC0	; 192
    3f9e:	66 0f       	add	r22, r22
    3fa0:	77 1f       	adc	r23, r23
    3fa2:	88 1f       	adc	r24, r24
    3fa4:	20 f0       	brcs	.+8      	; 0x3fae <sqrt+0x34>
    3fa6:	26 17       	cp	r18, r22
    3fa8:	37 07       	cpc	r19, r23
    3faa:	48 07       	cpc	r20, r24
    3fac:	30 f4       	brcc	.+12     	; 0x3fba <sqrt+0x40>
    3fae:	62 1b       	sub	r22, r18
    3fb0:	73 0b       	sbc	r23, r19
    3fb2:	84 0b       	sbc	r24, r20
    3fb4:	20 29       	or	r18, r0
    3fb6:	31 29       	or	r19, r1
    3fb8:	4a 2b       	or	r20, r26
    3fba:	a6 95       	lsr	r26
    3fbc:	17 94       	ror	r1
    3fbe:	07 94       	ror	r0
    3fc0:	20 25       	eor	r18, r0
    3fc2:	31 25       	eor	r19, r1
    3fc4:	4a 27       	eor	r20, r26
    3fc6:	58 f7       	brcc	.-42     	; 0x3f9e <sqrt+0x24>
    3fc8:	66 0f       	add	r22, r22
    3fca:	77 1f       	adc	r23, r23
    3fcc:	88 1f       	adc	r24, r24
    3fce:	20 f0       	brcs	.+8      	; 0x3fd8 <sqrt+0x5e>
    3fd0:	26 17       	cp	r18, r22
    3fd2:	37 07       	cpc	r19, r23
    3fd4:	48 07       	cpc	r20, r24
    3fd6:	30 f4       	brcc	.+12     	; 0x3fe4 <sqrt+0x6a>
    3fd8:	62 0b       	sbc	r22, r18
    3fda:	73 0b       	sbc	r23, r19
    3fdc:	84 0b       	sbc	r24, r20
    3fde:	20 0d       	add	r18, r0
    3fe0:	31 1d       	adc	r19, r1
    3fe2:	41 1d       	adc	r20, r1
    3fe4:	a0 95       	com	r26
    3fe6:	81 f7       	brne	.-32     	; 0x3fc8 <sqrt+0x4e>
    3fe8:	b9 01       	movw	r22, r18
    3fea:	84 2f       	mov	r24, r20
    3fec:	91 58       	subi	r25, 0x81	; 129
    3fee:	88 0f       	add	r24, r24
    3ff0:	96 95       	lsr	r25
    3ff2:	87 95       	ror	r24
    3ff4:	08 95       	ret

00003ff6 <square>:
    3ff6:	9b 01       	movw	r18, r22
    3ff8:	ac 01       	movw	r20, r24
    3ffa:	52 cf       	rjmp	.-348    	; 0x3ea0 <__mulsf3>

00003ffc <__fp_norm2>:
    3ffc:	91 50       	subi	r25, 0x01	; 1
    3ffe:	50 40       	sbci	r21, 0x00	; 0
    4000:	66 0f       	add	r22, r22
    4002:	77 1f       	adc	r23, r23
    4004:	88 1f       	adc	r24, r24
    4006:	d2 f7       	brpl	.-12     	; 0x3ffc <__fp_norm2>
    4008:	08 95       	ret

0000400a <__fp_powsodd>:
    400a:	9f 93       	push	r25
    400c:	8f 93       	push	r24
    400e:	7f 93       	push	r23
    4010:	6f 93       	push	r22
    4012:	ff 93       	push	r31
    4014:	ef 93       	push	r30
    4016:	9b 01       	movw	r18, r22
    4018:	ac 01       	movw	r20, r24
    401a:	42 df       	rcall	.-380    	; 0x3ea0 <__mulsf3>
    401c:	ef 91       	pop	r30
    401e:	ff 91       	pop	r31
    4020:	8e de       	rcall	.-740    	; 0x3d3e <__fp_powser>
    4022:	2f 91       	pop	r18
    4024:	3f 91       	pop	r19
    4026:	4f 91       	pop	r20
    4028:	5f 91       	pop	r21
    402a:	3a cf       	rjmp	.-396    	; 0x3ea0 <__mulsf3>

0000402c <_ZN14HardwareSerial9availableEv>:
  return 1;
}

HardwareSerial::operator bool() {
	return true;
}
    402c:	fc 01       	movw	r30, r24
    402e:	24 85       	ldd	r18, Z+12	; 0x0c
    4030:	35 85       	ldd	r19, Z+13	; 0x0d
    4032:	f9 01       	movw	r30, r18
    4034:	e0 5c       	subi	r30, 0xC0	; 192
    4036:	ff 4f       	sbci	r31, 0xFF	; 255
    4038:	80 81       	ld	r24, Z
    403a:	91 81       	ldd	r25, Z+1	; 0x01
    403c:	32 96       	adiw	r30, 0x02	; 2
    403e:	20 81       	ld	r18, Z
    4040:	31 81       	ldd	r19, Z+1	; 0x01
    4042:	82 1b       	sub	r24, r18
    4044:	93 0b       	sbc	r25, r19
    4046:	8f 73       	andi	r24, 0x3F	; 63
    4048:	99 27       	eor	r25, r25
    404a:	08 95       	ret

0000404c <_ZN14HardwareSerial4peekEv>:
    404c:	fc 01       	movw	r30, r24
    404e:	84 85       	ldd	r24, Z+12	; 0x0c
    4050:	95 85       	ldd	r25, Z+13	; 0x0d
    4052:	fc 01       	movw	r30, r24
    4054:	e0 5c       	subi	r30, 0xC0	; 192
    4056:	ff 4f       	sbci	r31, 0xFF	; 255
    4058:	40 81       	ld	r20, Z
    405a:	51 81       	ldd	r21, Z+1	; 0x01
    405c:	32 96       	adiw	r30, 0x02	; 2
    405e:	20 81       	ld	r18, Z
    4060:	31 81       	ldd	r19, Z+1	; 0x01
    4062:	42 17       	cp	r20, r18
    4064:	53 07       	cpc	r21, r19
    4066:	41 f0       	breq	.+16     	; 0x4078 <_ZN14HardwareSerial4peekEv+0x2c>
    4068:	20 81       	ld	r18, Z
    406a:	31 81       	ldd	r19, Z+1	; 0x01
    406c:	fc 01       	movw	r30, r24
    406e:	e2 0f       	add	r30, r18
    4070:	f3 1f       	adc	r31, r19
    4072:	80 81       	ld	r24, Z
    4074:	90 e0       	ldi	r25, 0x00	; 0
    4076:	08 95       	ret
    4078:	8f ef       	ldi	r24, 0xFF	; 255
    407a:	9f ef       	ldi	r25, 0xFF	; 255
    407c:	08 95       	ret

0000407e <_ZN14HardwareSerial4readEv>:
    407e:	fc 01       	movw	r30, r24
    4080:	84 85       	ldd	r24, Z+12	; 0x0c
    4082:	95 85       	ldd	r25, Z+13	; 0x0d
    4084:	fc 01       	movw	r30, r24
    4086:	e0 5c       	subi	r30, 0xC0	; 192
    4088:	ff 4f       	sbci	r31, 0xFF	; 255
    408a:	40 81       	ld	r20, Z
    408c:	51 81       	ldd	r21, Z+1	; 0x01
    408e:	32 96       	adiw	r30, 0x02	; 2
    4090:	20 81       	ld	r18, Z
    4092:	31 81       	ldd	r19, Z+1	; 0x01
    4094:	42 17       	cp	r20, r18
    4096:	53 07       	cpc	r21, r19
    4098:	81 f0       	breq	.+32     	; 0x40ba <_ZN14HardwareSerial4readEv+0x3c>
    409a:	20 81       	ld	r18, Z
    409c:	31 81       	ldd	r19, Z+1	; 0x01
    409e:	dc 01       	movw	r26, r24
    40a0:	a2 0f       	add	r26, r18
    40a2:	b3 1f       	adc	r27, r19
    40a4:	8c 91       	ld	r24, X
    40a6:	20 81       	ld	r18, Z
    40a8:	31 81       	ldd	r19, Z+1	; 0x01
    40aa:	2f 5f       	subi	r18, 0xFF	; 255
    40ac:	3f 4f       	sbci	r19, 0xFF	; 255
    40ae:	2f 73       	andi	r18, 0x3F	; 63
    40b0:	33 27       	eor	r19, r19
    40b2:	31 83       	std	Z+1, r19	; 0x01
    40b4:	20 83       	st	Z, r18
    40b6:	90 e0       	ldi	r25, 0x00	; 0
    40b8:	08 95       	ret
    40ba:	8f ef       	ldi	r24, 0xFF	; 255
    40bc:	9f ef       	ldi	r25, 0xFF	; 255
    40be:	08 95       	ret

000040c0 <_ZN14HardwareSerial5flushEv>:
    40c0:	fc 01       	movw	r30, r24
    40c2:	81 a1       	ldd	r24, Z+33	; 0x21
    40c4:	88 23       	and	r24, r24
    40c6:	29 f0       	breq	.+10     	; 0x40d2 <_ZN14HardwareSerial5flushEv+0x12>
    40c8:	a4 89       	ldd	r26, Z+20	; 0x14
    40ca:	b5 89       	ldd	r27, Z+21	; 0x15
    40cc:	8c 91       	ld	r24, X
    40ce:	86 ff       	sbrs	r24, 6
    40d0:	fb cf       	rjmp	.-10     	; 0x40c8 <_ZN14HardwareSerial5flushEv+0x8>
    40d2:	11 a2       	std	Z+33, r1	; 0x21
    40d4:	08 95       	ret

000040d6 <_ZN14HardwareSerial5writeEh>:
    40d6:	1f 93       	push	r17
    40d8:	cf 93       	push	r28
    40da:	df 93       	push	r29
    40dc:	ec 01       	movw	r28, r24
    40de:	8e 85       	ldd	r24, Y+14	; 0x0e
    40e0:	9f 85       	ldd	r25, Y+15	; 0x0f
    40e2:	fc 01       	movw	r30, r24
    40e4:	e0 5c       	subi	r30, 0xC0	; 192
    40e6:	ff 4f       	sbci	r31, 0xFF	; 255
    40e8:	01 90       	ld	r0, Z+
    40ea:	f0 81       	ld	r31, Z
    40ec:	e0 2d       	mov	r30, r0
    40ee:	31 96       	adiw	r30, 0x01	; 1
    40f0:	ef 73       	andi	r30, 0x3F	; 63
    40f2:	ff 27       	eor	r31, r31
    40f4:	1e 2f       	mov	r17, r30
    40f6:	7f 2f       	mov	r23, r31
    40f8:	dc 01       	movw	r26, r24
    40fa:	ae 5b       	subi	r26, 0xBE	; 190
    40fc:	bf 4f       	sbci	r27, 0xFF	; 255
    40fe:	21 2f       	mov	r18, r17
    4100:	37 2f       	mov	r19, r23
    4102:	4d 91       	ld	r20, X+
    4104:	5c 91       	ld	r21, X
    4106:	11 97       	sbiw	r26, 0x01	; 1
    4108:	e4 17       	cp	r30, r20
    410a:	f5 07       	cpc	r31, r21
    410c:	c1 f3       	breq	.-16     	; 0x40fe <_ZN14HardwareSerial5writeEh+0x28>
    410e:	fc 01       	movw	r30, r24
    4110:	e0 5c       	subi	r30, 0xC0	; 192
    4112:	ff 4f       	sbci	r31, 0xFF	; 255
    4114:	40 81       	ld	r20, Z
    4116:	51 81       	ldd	r21, Z+1	; 0x01
    4118:	fc 01       	movw	r30, r24
    411a:	e4 0f       	add	r30, r20
    411c:	f5 1f       	adc	r31, r21
    411e:	60 83       	st	Z, r22
    4120:	ee 85       	ldd	r30, Y+14	; 0x0e
    4122:	ff 85       	ldd	r31, Y+15	; 0x0f
    4124:	e0 5c       	subi	r30, 0xC0	; 192
    4126:	ff 4f       	sbci	r31, 0xFF	; 255
    4128:	31 83       	std	Z+1, r19	; 0x01
    412a:	20 83       	st	Z, r18
    412c:	ee 89       	ldd	r30, Y+22	; 0x16
    412e:	ff 89       	ldd	r31, Y+23	; 0x17
    4130:	40 81       	ld	r20, Z
    4132:	21 e0       	ldi	r18, 0x01	; 1
    4134:	30 e0       	ldi	r19, 0x00	; 0
    4136:	c9 01       	movw	r24, r18
    4138:	0f 8c       	ldd	r0, Y+31	; 0x1f
    413a:	02 c0       	rjmp	.+4      	; 0x4140 <_ZN14HardwareSerial5writeEh+0x6a>
    413c:	88 0f       	add	r24, r24
    413e:	99 1f       	adc	r25, r25
    4140:	0a 94       	dec	r0
    4142:	e2 f7       	brpl	.-8      	; 0x413c <_ZN14HardwareSerial5writeEh+0x66>
    4144:	84 2b       	or	r24, r20
    4146:	80 83       	st	Z, r24
    4148:	81 e0       	ldi	r24, 0x01	; 1
    414a:	89 a3       	std	Y+33, r24	; 0x21
    414c:	ec 89       	ldd	r30, Y+20	; 0x14
    414e:	fd 89       	ldd	r31, Y+21	; 0x15
    4150:	80 81       	ld	r24, Z
    4152:	80 64       	ori	r24, 0x40	; 64
    4154:	80 83       	st	Z, r24
    4156:	81 e0       	ldi	r24, 0x01	; 1
    4158:	90 e0       	ldi	r25, 0x00	; 0
    415a:	df 91       	pop	r29
    415c:	cf 91       	pop	r28
    415e:	1f 91       	pop	r17
    4160:	08 95       	ret

00004162 <__vector_25>:
    4162:	1f 92       	push	r1
    4164:	0f 92       	push	r0
    4166:	0f b6       	in	r0, 0x3f	; 63
    4168:	0f 92       	push	r0
    416a:	11 24       	eor	r1, r1
    416c:	0b b6       	in	r0, 0x3b	; 59
    416e:	0f 92       	push	r0
    4170:	2f 93       	push	r18
    4172:	3f 93       	push	r19
    4174:	4f 93       	push	r20
    4176:	8f 93       	push	r24
    4178:	9f 93       	push	r25
    417a:	af 93       	push	r26
    417c:	bf 93       	push	r27
    417e:	ef 93       	push	r30
    4180:	ff 93       	push	r31
    4182:	80 91 c0 00 	lds	r24, 0x00C0
    4186:	82 fd       	sbrc	r24, 2
    4188:	1a c0       	rjmp	.+52     	; 0x41be <__vector_25+0x5c>
    418a:	40 91 c6 00 	lds	r20, 0x00C6
    418e:	80 91 74 1c 	lds	r24, 0x1C74
    4192:	90 91 75 1c 	lds	r25, 0x1C75
    4196:	01 96       	adiw	r24, 0x01	; 1
    4198:	8f 73       	andi	r24, 0x3F	; 63
    419a:	99 27       	eor	r25, r25
    419c:	20 91 76 1c 	lds	r18, 0x1C76
    41a0:	30 91 77 1c 	lds	r19, 0x1C77
    41a4:	82 17       	cp	r24, r18
    41a6:	93 07       	cpc	r25, r19
    41a8:	61 f0       	breq	.+24     	; 0x41c2 <__vector_25+0x60>
    41aa:	e4 e7       	ldi	r30, 0x74	; 116
    41ac:	fc e1       	ldi	r31, 0x1C	; 28
    41ae:	a0 81       	ld	r26, Z
    41b0:	b1 81       	ldd	r27, Z+1	; 0x01
    41b2:	ac 5c       	subi	r26, 0xCC	; 204
    41b4:	b3 4e       	sbci	r27, 0xE3	; 227
    41b6:	4c 93       	st	X, r20
    41b8:	91 83       	std	Z+1, r25	; 0x01
    41ba:	80 83       	st	Z, r24
    41bc:	02 c0       	rjmp	.+4      	; 0x41c2 <__vector_25+0x60>
    41be:	80 91 c6 00 	lds	r24, 0x00C6
    41c2:	ff 91       	pop	r31
    41c4:	ef 91       	pop	r30
    41c6:	bf 91       	pop	r27
    41c8:	af 91       	pop	r26
    41ca:	9f 91       	pop	r25
    41cc:	8f 91       	pop	r24
    41ce:	4f 91       	pop	r20
    41d0:	3f 91       	pop	r19
    41d2:	2f 91       	pop	r18
    41d4:	0f 90       	pop	r0
    41d6:	0b be       	out	0x3b, r0	; 59
    41d8:	0f 90       	pop	r0
    41da:	0f be       	out	0x3f, r0	; 63
    41dc:	0f 90       	pop	r0
    41de:	1f 90       	pop	r1
    41e0:	18 95       	reti

000041e2 <__vector_36>:
    41e2:	1f 92       	push	r1
    41e4:	0f 92       	push	r0
    41e6:	0f b6       	in	r0, 0x3f	; 63
    41e8:	0f 92       	push	r0
    41ea:	11 24       	eor	r1, r1
    41ec:	0b b6       	in	r0, 0x3b	; 59
    41ee:	0f 92       	push	r0
    41f0:	2f 93       	push	r18
    41f2:	3f 93       	push	r19
    41f4:	4f 93       	push	r20
    41f6:	8f 93       	push	r24
    41f8:	9f 93       	push	r25
    41fa:	af 93       	push	r26
    41fc:	bf 93       	push	r27
    41fe:	ef 93       	push	r30
    4200:	ff 93       	push	r31
    4202:	80 91 c8 00 	lds	r24, 0x00C8
    4206:	82 fd       	sbrc	r24, 2
    4208:	1a c0       	rjmp	.+52     	; 0x423e <__vector_36+0x5c>
    420a:	40 91 ce 00 	lds	r20, 0x00CE
    420e:	80 91 ec 1b 	lds	r24, 0x1BEC
    4212:	90 91 ed 1b 	lds	r25, 0x1BED
    4216:	01 96       	adiw	r24, 0x01	; 1
    4218:	8f 73       	andi	r24, 0x3F	; 63
    421a:	99 27       	eor	r25, r25
    421c:	20 91 ee 1b 	lds	r18, 0x1BEE
    4220:	30 91 ef 1b 	lds	r19, 0x1BEF
    4224:	82 17       	cp	r24, r18
    4226:	93 07       	cpc	r25, r19
    4228:	61 f0       	breq	.+24     	; 0x4242 <__vector_36+0x60>
    422a:	ec ee       	ldi	r30, 0xEC	; 236
    422c:	fb e1       	ldi	r31, 0x1B	; 27
    422e:	a0 81       	ld	r26, Z
    4230:	b1 81       	ldd	r27, Z+1	; 0x01
    4232:	a4 55       	subi	r26, 0x54	; 84
    4234:	b4 4e       	sbci	r27, 0xE4	; 228
    4236:	4c 93       	st	X, r20
    4238:	91 83       	std	Z+1, r25	; 0x01
    423a:	80 83       	st	Z, r24
    423c:	02 c0       	rjmp	.+4      	; 0x4242 <__vector_36+0x60>
    423e:	80 91 ce 00 	lds	r24, 0x00CE
    4242:	ff 91       	pop	r31
    4244:	ef 91       	pop	r30
    4246:	bf 91       	pop	r27
    4248:	af 91       	pop	r26
    424a:	9f 91       	pop	r25
    424c:	8f 91       	pop	r24
    424e:	4f 91       	pop	r20
    4250:	3f 91       	pop	r19
    4252:	2f 91       	pop	r18
    4254:	0f 90       	pop	r0
    4256:	0b be       	out	0x3b, r0	; 59
    4258:	0f 90       	pop	r0
    425a:	0f be       	out	0x3f, r0	; 63
    425c:	0f 90       	pop	r0
    425e:	1f 90       	pop	r1
    4260:	18 95       	reti

00004262 <__vector_51>:
    4262:	1f 92       	push	r1
    4264:	0f 92       	push	r0
    4266:	0f b6       	in	r0, 0x3f	; 63
    4268:	0f 92       	push	r0
    426a:	11 24       	eor	r1, r1
    426c:	0b b6       	in	r0, 0x3b	; 59
    426e:	0f 92       	push	r0
    4270:	2f 93       	push	r18
    4272:	3f 93       	push	r19
    4274:	4f 93       	push	r20
    4276:	8f 93       	push	r24
    4278:	9f 93       	push	r25
    427a:	af 93       	push	r26
    427c:	bf 93       	push	r27
    427e:	ef 93       	push	r30
    4280:	ff 93       	push	r31
    4282:	80 91 d0 00 	lds	r24, 0x00D0
    4286:	82 fd       	sbrc	r24, 2
    4288:	1a c0       	rjmp	.+52     	; 0x42be <__vector_51+0x5c>
    428a:	40 91 d6 00 	lds	r20, 0x00D6
    428e:	80 91 64 1b 	lds	r24, 0x1B64
    4292:	90 91 65 1b 	lds	r25, 0x1B65
    4296:	01 96       	adiw	r24, 0x01	; 1
    4298:	8f 73       	andi	r24, 0x3F	; 63
    429a:	99 27       	eor	r25, r25
    429c:	20 91 66 1b 	lds	r18, 0x1B66
    42a0:	30 91 67 1b 	lds	r19, 0x1B67
    42a4:	82 17       	cp	r24, r18
    42a6:	93 07       	cpc	r25, r19
    42a8:	61 f0       	breq	.+24     	; 0x42c2 <__vector_51+0x60>
    42aa:	e4 e6       	ldi	r30, 0x64	; 100
    42ac:	fb e1       	ldi	r31, 0x1B	; 27
    42ae:	a0 81       	ld	r26, Z
    42b0:	b1 81       	ldd	r27, Z+1	; 0x01
    42b2:	ac 5d       	subi	r26, 0xDC	; 220
    42b4:	b4 4e       	sbci	r27, 0xE4	; 228
    42b6:	4c 93       	st	X, r20
    42b8:	91 83       	std	Z+1, r25	; 0x01
    42ba:	80 83       	st	Z, r24
    42bc:	02 c0       	rjmp	.+4      	; 0x42c2 <__vector_51+0x60>
    42be:	80 91 d6 00 	lds	r24, 0x00D6
    42c2:	ff 91       	pop	r31
    42c4:	ef 91       	pop	r30
    42c6:	bf 91       	pop	r27
    42c8:	af 91       	pop	r26
    42ca:	9f 91       	pop	r25
    42cc:	8f 91       	pop	r24
    42ce:	4f 91       	pop	r20
    42d0:	3f 91       	pop	r19
    42d2:	2f 91       	pop	r18
    42d4:	0f 90       	pop	r0
    42d6:	0b be       	out	0x3b, r0	; 59
    42d8:	0f 90       	pop	r0
    42da:	0f be       	out	0x3f, r0	; 63
    42dc:	0f 90       	pop	r0
    42de:	1f 90       	pop	r1
    42e0:	18 95       	reti

000042e2 <__vector_54>:
    42e2:	1f 92       	push	r1
    42e4:	0f 92       	push	r0
    42e6:	0f b6       	in	r0, 0x3f	; 63
    42e8:	0f 92       	push	r0
    42ea:	11 24       	eor	r1, r1
    42ec:	0b b6       	in	r0, 0x3b	; 59
    42ee:	0f 92       	push	r0
    42f0:	2f 93       	push	r18
    42f2:	3f 93       	push	r19
    42f4:	4f 93       	push	r20
    42f6:	8f 93       	push	r24
    42f8:	9f 93       	push	r25
    42fa:	af 93       	push	r26
    42fc:	bf 93       	push	r27
    42fe:	ef 93       	push	r30
    4300:	ff 93       	push	r31
    4302:	80 91 30 01 	lds	r24, 0x0130
    4306:	82 fd       	sbrc	r24, 2
    4308:	1a c0       	rjmp	.+52     	; 0x433e <__vector_54+0x5c>
    430a:	40 91 36 01 	lds	r20, 0x0136
    430e:	80 91 dc 1a 	lds	r24, 0x1ADC
    4312:	90 91 dd 1a 	lds	r25, 0x1ADD
    4316:	01 96       	adiw	r24, 0x01	; 1
    4318:	8f 73       	andi	r24, 0x3F	; 63
    431a:	99 27       	eor	r25, r25
    431c:	20 91 de 1a 	lds	r18, 0x1ADE
    4320:	30 91 df 1a 	lds	r19, 0x1ADF
    4324:	82 17       	cp	r24, r18
    4326:	93 07       	cpc	r25, r19
    4328:	61 f0       	breq	.+24     	; 0x4342 <__vector_54+0x60>
    432a:	ec ed       	ldi	r30, 0xDC	; 220
    432c:	fa e1       	ldi	r31, 0x1A	; 26
    432e:	a0 81       	ld	r26, Z
    4330:	b1 81       	ldd	r27, Z+1	; 0x01
    4332:	a4 56       	subi	r26, 0x64	; 100
    4334:	b5 4e       	sbci	r27, 0xE5	; 229
    4336:	4c 93       	st	X, r20
    4338:	91 83       	std	Z+1, r25	; 0x01
    433a:	80 83       	st	Z, r24
    433c:	02 c0       	rjmp	.+4      	; 0x4342 <__vector_54+0x60>
    433e:	80 91 36 01 	lds	r24, 0x0136
    4342:	ff 91       	pop	r31
    4344:	ef 91       	pop	r30
    4346:	bf 91       	pop	r27
    4348:	af 91       	pop	r26
    434a:	9f 91       	pop	r25
    434c:	8f 91       	pop	r24
    434e:	4f 91       	pop	r20
    4350:	3f 91       	pop	r19
    4352:	2f 91       	pop	r18
    4354:	0f 90       	pop	r0
    4356:	0b be       	out	0x3b, r0	; 59
    4358:	0f 90       	pop	r0
    435a:	0f be       	out	0x3f, r0	; 63
    435c:	0f 90       	pop	r0
    435e:	1f 90       	pop	r1
    4360:	18 95       	reti

00004362 <__vector_26>:
    4362:	1f 92       	push	r1
    4364:	0f 92       	push	r0
    4366:	0f b6       	in	r0, 0x3f	; 63
    4368:	0f 92       	push	r0
    436a:	11 24       	eor	r1, r1
    436c:	0b b6       	in	r0, 0x3b	; 59
    436e:	0f 92       	push	r0
    4370:	2f 93       	push	r18
    4372:	3f 93       	push	r19
    4374:	8f 93       	push	r24
    4376:	9f 93       	push	r25
    4378:	af 93       	push	r26
    437a:	bf 93       	push	r27
    437c:	ef 93       	push	r30
    437e:	ff 93       	push	r31
    4380:	20 91 30 1c 	lds	r18, 0x1C30
    4384:	30 91 31 1c 	lds	r19, 0x1C31
    4388:	80 91 32 1c 	lds	r24, 0x1C32
    438c:	90 91 33 1c 	lds	r25, 0x1C33
    4390:	28 17       	cp	r18, r24
    4392:	39 07       	cpc	r19, r25
    4394:	31 f4       	brne	.+12     	; 0x43a2 <__vector_26+0x40>
    4396:	e1 ec       	ldi	r30, 0xC1	; 193
    4398:	f0 e0       	ldi	r31, 0x00	; 0
    439a:	80 81       	ld	r24, Z
    439c:	8f 7d       	andi	r24, 0xDF	; 223
    439e:	80 83       	st	Z, r24
    43a0:	10 c0       	rjmp	.+32     	; 0x43c2 <__vector_26+0x60>
    43a2:	e2 e3       	ldi	r30, 0x32	; 50
    43a4:	fc e1       	ldi	r31, 0x1C	; 28
    43a6:	a0 81       	ld	r26, Z
    43a8:	b1 81       	ldd	r27, Z+1	; 0x01
    43aa:	a0 51       	subi	r26, 0x10	; 16
    43ac:	b4 4e       	sbci	r27, 0xE4	; 228
    43ae:	2c 91       	ld	r18, X
    43b0:	80 81       	ld	r24, Z
    43b2:	91 81       	ldd	r25, Z+1	; 0x01
    43b4:	01 96       	adiw	r24, 0x01	; 1
    43b6:	8f 73       	andi	r24, 0x3F	; 63
    43b8:	99 27       	eor	r25, r25
    43ba:	91 83       	std	Z+1, r25	; 0x01
    43bc:	80 83       	st	Z, r24
    43be:	20 93 c6 00 	sts	0x00C6, r18
    43c2:	ff 91       	pop	r31
    43c4:	ef 91       	pop	r30
    43c6:	bf 91       	pop	r27
    43c8:	af 91       	pop	r26
    43ca:	9f 91       	pop	r25
    43cc:	8f 91       	pop	r24
    43ce:	3f 91       	pop	r19
    43d0:	2f 91       	pop	r18
    43d2:	0f 90       	pop	r0
    43d4:	0b be       	out	0x3b, r0	; 59
    43d6:	0f 90       	pop	r0
    43d8:	0f be       	out	0x3f, r0	; 63
    43da:	0f 90       	pop	r0
    43dc:	1f 90       	pop	r1
    43de:	18 95       	reti

000043e0 <__vector_37>:
    43e0:	1f 92       	push	r1
    43e2:	0f 92       	push	r0
    43e4:	0f b6       	in	r0, 0x3f	; 63
    43e6:	0f 92       	push	r0
    43e8:	11 24       	eor	r1, r1
    43ea:	0b b6       	in	r0, 0x3b	; 59
    43ec:	0f 92       	push	r0
    43ee:	2f 93       	push	r18
    43f0:	3f 93       	push	r19
    43f2:	8f 93       	push	r24
    43f4:	9f 93       	push	r25
    43f6:	af 93       	push	r26
    43f8:	bf 93       	push	r27
    43fa:	ef 93       	push	r30
    43fc:	ff 93       	push	r31
    43fe:	20 91 a8 1b 	lds	r18, 0x1BA8
    4402:	30 91 a9 1b 	lds	r19, 0x1BA9
    4406:	80 91 aa 1b 	lds	r24, 0x1BAA
    440a:	90 91 ab 1b 	lds	r25, 0x1BAB
    440e:	28 17       	cp	r18, r24
    4410:	39 07       	cpc	r19, r25
    4412:	31 f4       	brne	.+12     	; 0x4420 <__vector_37+0x40>
    4414:	e9 ec       	ldi	r30, 0xC9	; 201
    4416:	f0 e0       	ldi	r31, 0x00	; 0
    4418:	80 81       	ld	r24, Z
    441a:	8f 7d       	andi	r24, 0xDF	; 223
    441c:	80 83       	st	Z, r24
    441e:	10 c0       	rjmp	.+32     	; 0x4440 <__vector_37+0x60>
    4420:	ea ea       	ldi	r30, 0xAA	; 170
    4422:	fb e1       	ldi	r31, 0x1B	; 27
    4424:	a0 81       	ld	r26, Z
    4426:	b1 81       	ldd	r27, Z+1	; 0x01
    4428:	a8 59       	subi	r26, 0x98	; 152
    442a:	b4 4e       	sbci	r27, 0xE4	; 228
    442c:	2c 91       	ld	r18, X
    442e:	80 81       	ld	r24, Z
    4430:	91 81       	ldd	r25, Z+1	; 0x01
    4432:	01 96       	adiw	r24, 0x01	; 1
    4434:	8f 73       	andi	r24, 0x3F	; 63
    4436:	99 27       	eor	r25, r25
    4438:	91 83       	std	Z+1, r25	; 0x01
    443a:	80 83       	st	Z, r24
    443c:	20 93 ce 00 	sts	0x00CE, r18
    4440:	ff 91       	pop	r31
    4442:	ef 91       	pop	r30
    4444:	bf 91       	pop	r27
    4446:	af 91       	pop	r26
    4448:	9f 91       	pop	r25
    444a:	8f 91       	pop	r24
    444c:	3f 91       	pop	r19
    444e:	2f 91       	pop	r18
    4450:	0f 90       	pop	r0
    4452:	0b be       	out	0x3b, r0	; 59
    4454:	0f 90       	pop	r0
    4456:	0f be       	out	0x3f, r0	; 63
    4458:	0f 90       	pop	r0
    445a:	1f 90       	pop	r1
    445c:	18 95       	reti

0000445e <__vector_52>:
    445e:	1f 92       	push	r1
    4460:	0f 92       	push	r0
    4462:	0f b6       	in	r0, 0x3f	; 63
    4464:	0f 92       	push	r0
    4466:	11 24       	eor	r1, r1
    4468:	0b b6       	in	r0, 0x3b	; 59
    446a:	0f 92       	push	r0
    446c:	2f 93       	push	r18
    446e:	3f 93       	push	r19
    4470:	8f 93       	push	r24
    4472:	9f 93       	push	r25
    4474:	af 93       	push	r26
    4476:	bf 93       	push	r27
    4478:	ef 93       	push	r30
    447a:	ff 93       	push	r31
    447c:	20 91 20 1b 	lds	r18, 0x1B20
    4480:	30 91 21 1b 	lds	r19, 0x1B21
    4484:	80 91 22 1b 	lds	r24, 0x1B22
    4488:	90 91 23 1b 	lds	r25, 0x1B23
    448c:	28 17       	cp	r18, r24
    448e:	39 07       	cpc	r19, r25
    4490:	31 f4       	brne	.+12     	; 0x449e <__vector_52+0x40>
    4492:	e1 ed       	ldi	r30, 0xD1	; 209
    4494:	f0 e0       	ldi	r31, 0x00	; 0
    4496:	80 81       	ld	r24, Z
    4498:	8f 7d       	andi	r24, 0xDF	; 223
    449a:	80 83       	st	Z, r24
    449c:	10 c0       	rjmp	.+32     	; 0x44be <__vector_52+0x60>
    449e:	e2 e2       	ldi	r30, 0x22	; 34
    44a0:	fb e1       	ldi	r31, 0x1B	; 27
    44a2:	a0 81       	ld	r26, Z
    44a4:	b1 81       	ldd	r27, Z+1	; 0x01
    44a6:	a0 52       	subi	r26, 0x20	; 32
    44a8:	b5 4e       	sbci	r27, 0xE5	; 229
    44aa:	2c 91       	ld	r18, X
    44ac:	80 81       	ld	r24, Z
    44ae:	91 81       	ldd	r25, Z+1	; 0x01
    44b0:	01 96       	adiw	r24, 0x01	; 1
    44b2:	8f 73       	andi	r24, 0x3F	; 63
    44b4:	99 27       	eor	r25, r25
    44b6:	91 83       	std	Z+1, r25	; 0x01
    44b8:	80 83       	st	Z, r24
    44ba:	20 93 d6 00 	sts	0x00D6, r18
    44be:	ff 91       	pop	r31
    44c0:	ef 91       	pop	r30
    44c2:	bf 91       	pop	r27
    44c4:	af 91       	pop	r26
    44c6:	9f 91       	pop	r25
    44c8:	8f 91       	pop	r24
    44ca:	3f 91       	pop	r19
    44cc:	2f 91       	pop	r18
    44ce:	0f 90       	pop	r0
    44d0:	0b be       	out	0x3b, r0	; 59
    44d2:	0f 90       	pop	r0
    44d4:	0f be       	out	0x3f, r0	; 63
    44d6:	0f 90       	pop	r0
    44d8:	1f 90       	pop	r1
    44da:	18 95       	reti

000044dc <__vector_55>:
    44dc:	1f 92       	push	r1
    44de:	0f 92       	push	r0
    44e0:	0f b6       	in	r0, 0x3f	; 63
    44e2:	0f 92       	push	r0
    44e4:	11 24       	eor	r1, r1
    44e6:	0b b6       	in	r0, 0x3b	; 59
    44e8:	0f 92       	push	r0
    44ea:	2f 93       	push	r18
    44ec:	3f 93       	push	r19
    44ee:	8f 93       	push	r24
    44f0:	9f 93       	push	r25
    44f2:	af 93       	push	r26
    44f4:	bf 93       	push	r27
    44f6:	ef 93       	push	r30
    44f8:	ff 93       	push	r31
    44fa:	20 91 98 1a 	lds	r18, 0x1A98
    44fe:	30 91 99 1a 	lds	r19, 0x1A99
    4502:	80 91 9a 1a 	lds	r24, 0x1A9A
    4506:	90 91 9b 1a 	lds	r25, 0x1A9B
    450a:	28 17       	cp	r18, r24
    450c:	39 07       	cpc	r19, r25
    450e:	31 f4       	brne	.+12     	; 0x451c <__vector_55+0x40>
    4510:	e1 e3       	ldi	r30, 0x31	; 49
    4512:	f1 e0       	ldi	r31, 0x01	; 1
    4514:	80 81       	ld	r24, Z
    4516:	8f 7d       	andi	r24, 0xDF	; 223
    4518:	80 83       	st	Z, r24
    451a:	10 c0       	rjmp	.+32     	; 0x453c <__vector_55+0x60>
    451c:	ea e9       	ldi	r30, 0x9A	; 154
    451e:	fa e1       	ldi	r31, 0x1A	; 26
    4520:	a0 81       	ld	r26, Z
    4522:	b1 81       	ldd	r27, Z+1	; 0x01
    4524:	a8 5a       	subi	r26, 0xA8	; 168
    4526:	b5 4e       	sbci	r27, 0xE5	; 229
    4528:	2c 91       	ld	r18, X
    452a:	80 81       	ld	r24, Z
    452c:	91 81       	ldd	r25, Z+1	; 0x01
    452e:	01 96       	adiw	r24, 0x01	; 1
    4530:	8f 73       	andi	r24, 0x3F	; 63
    4532:	99 27       	eor	r25, r25
    4534:	91 83       	std	Z+1, r25	; 0x01
    4536:	80 83       	st	Z, r24
    4538:	20 93 36 01 	sts	0x0136, r18
    453c:	ff 91       	pop	r31
    453e:	ef 91       	pop	r30
    4540:	bf 91       	pop	r27
    4542:	af 91       	pop	r26
    4544:	9f 91       	pop	r25
    4546:	8f 91       	pop	r24
    4548:	3f 91       	pop	r19
    454a:	2f 91       	pop	r18
    454c:	0f 90       	pop	r0
    454e:	0b be       	out	0x3b, r0	; 59
    4550:	0f 90       	pop	r0
    4552:	0f be       	out	0x3f, r0	; 63
    4554:	0f 90       	pop	r0
    4556:	1f 90       	pop	r1
    4558:	18 95       	reti

0000455a <_ZN14HardwareSerialC1EP11ring_bufferS1_PVhS3_S3_S3_S3_S3_hhhhh>:
    455a:	8f 92       	push	r8
    455c:	9f 92       	push	r9
    455e:	af 92       	push	r10
    4560:	bf 92       	push	r11
    4562:	cf 92       	push	r12
    4564:	df 92       	push	r13
    4566:	ef 92       	push	r14
    4568:	ff 92       	push	r15
    456a:	0f 93       	push	r16
    456c:	1f 93       	push	r17
    456e:	cf 93       	push	r28
    4570:	df 93       	push	r29
    4572:	cd b7       	in	r28, 0x3d	; 61
    4574:	de b7       	in	r29, 0x3e	; 62
    4576:	fc 01       	movw	r30, r24
    4578:	13 82       	std	Z+3, r1	; 0x03
    457a:	12 82       	std	Z+2, r1	; 0x02
    457c:	88 ee       	ldi	r24, 0xE8	; 232
    457e:	93 e0       	ldi	r25, 0x03	; 3
    4580:	a0 e0       	ldi	r26, 0x00	; 0
    4582:	b0 e0       	ldi	r27, 0x00	; 0
    4584:	84 83       	std	Z+4, r24	; 0x04
    4586:	95 83       	std	Z+5, r25	; 0x05
    4588:	a6 83       	std	Z+6, r26	; 0x06
    458a:	b7 83       	std	Z+7, r27	; 0x07
    458c:	8b e1       	ldi	r24, 0x1B	; 27
    458e:	93 e0       	ldi	r25, 0x03	; 3
    4590:	91 83       	std	Z+1, r25	; 0x01
    4592:	80 83       	st	Z, r24
    4594:	75 87       	std	Z+13, r23	; 0x0d
    4596:	64 87       	std	Z+12, r22	; 0x0c
    4598:	57 87       	std	Z+15, r21	; 0x0f
    459a:	46 87       	std	Z+14, r20	; 0x0e
    459c:	31 8b       	std	Z+17, r19	; 0x11
    459e:	20 8b       	std	Z+16, r18	; 0x10
    45a0:	13 8b       	std	Z+19, r17	; 0x13
    45a2:	02 8b       	std	Z+18, r16	; 0x12
    45a4:	f5 8a       	std	Z+21, r15	; 0x15
    45a6:	e4 8a       	std	Z+20, r14	; 0x14
    45a8:	d7 8a       	std	Z+23, r13	; 0x17
    45aa:	c6 8a       	std	Z+22, r12	; 0x16
    45ac:	b1 8e       	std	Z+25, r11	; 0x19
    45ae:	a0 8e       	std	Z+24, r10	; 0x18
    45b0:	93 8e       	std	Z+27, r9	; 0x1b
    45b2:	82 8e       	std	Z+26, r8	; 0x1a
    45b4:	88 89       	ldd	r24, Y+16	; 0x10
    45b6:	84 8f       	std	Z+28, r24	; 0x1c
    45b8:	89 89       	ldd	r24, Y+17	; 0x11
    45ba:	85 8f       	std	Z+29, r24	; 0x1d
    45bc:	8a 89       	ldd	r24, Y+18	; 0x12
    45be:	86 8f       	std	Z+30, r24	; 0x1e
    45c0:	8b 89       	ldd	r24, Y+19	; 0x13
    45c2:	87 8f       	std	Z+31, r24	; 0x1f
    45c4:	8c 89       	ldd	r24, Y+20	; 0x14
    45c6:	80 a3       	std	Z+32, r24	; 0x20
    45c8:	df 91       	pop	r29
    45ca:	cf 91       	pop	r28
    45cc:	1f 91       	pop	r17
    45ce:	0f 91       	pop	r16
    45d0:	ff 90       	pop	r15
    45d2:	ef 90       	pop	r14
    45d4:	df 90       	pop	r13
    45d6:	cf 90       	pop	r12
    45d8:	bf 90       	pop	r11
    45da:	af 90       	pop	r10
    45dc:	9f 90       	pop	r9
    45de:	8f 90       	pop	r8
    45e0:	08 95       	ret

000045e2 <_ZN14HardwareSerial5beginEm>:
    45e2:	cf 92       	push	r12
    45e4:	df 92       	push	r13
    45e6:	ef 92       	push	r14
    45e8:	ff 92       	push	r15
    45ea:	cf 93       	push	r28
    45ec:	df 93       	push	r29
    45ee:	ec 01       	movw	r28, r24
    45f0:	6a 01       	movw	r12, r20
    45f2:	7b 01       	movw	r14, r22
    45f4:	41 15       	cp	r20, r1
    45f6:	81 ee       	ldi	r24, 0xE1	; 225
    45f8:	58 07       	cpc	r21, r24
    45fa:	61 05       	cpc	r22, r1
    45fc:	71 05       	cpc	r23, r1
    45fe:	01 f1       	breq	.+64     	; 0x4640 <_ZN14HardwareSerial5beginEm+0x5e>
    4600:	ec 89       	ldd	r30, Y+20	; 0x14
    4602:	fd 89       	ldd	r31, Y+21	; 0x15
    4604:	81 e0       	ldi	r24, 0x01	; 1
    4606:	90 e0       	ldi	r25, 0x00	; 0
    4608:	08 a0       	ldd	r0, Y+32	; 0x20
    460a:	02 c0       	rjmp	.+4      	; 0x4610 <_ZN14HardwareSerial5beginEm+0x2e>
    460c:	88 0f       	add	r24, r24
    460e:	99 1f       	adc	r25, r25
    4610:	0a 94       	dec	r0
    4612:	e2 f7       	brpl	.-8      	; 0x460c <_ZN14HardwareSerial5beginEm+0x2a>
    4614:	80 83       	st	Z, r24
    4616:	60 e0       	ldi	r22, 0x00	; 0
    4618:	79 e0       	ldi	r23, 0x09	; 9
    461a:	8d e3       	ldi	r24, 0x3D	; 61
    461c:	90 e0       	ldi	r25, 0x00	; 0
    461e:	a7 01       	movw	r20, r14
    4620:	96 01       	movw	r18, r12
    4622:	6f d4       	rcall	.+2270   	; 0x4f02 <__udivmodsi4>
    4624:	ba 01       	movw	r22, r20
    4626:	a9 01       	movw	r20, r18
    4628:	41 50       	subi	r20, 0x01	; 1
    462a:	51 09       	sbc	r21, r1
    462c:	61 09       	sbc	r22, r1
    462e:	71 09       	sbc	r23, r1
    4630:	76 95       	lsr	r23
    4632:	67 95       	ror	r22
    4634:	57 95       	ror	r21
    4636:	47 95       	ror	r20
    4638:	41 15       	cp	r20, r1
    463a:	80 e1       	ldi	r24, 0x10	; 16
    463c:	58 07       	cpc	r21, r24
    463e:	a0 f0       	brcs	.+40     	; 0x4668 <_ZN14HardwareSerial5beginEm+0x86>
    4640:	ec 89       	ldd	r30, Y+20	; 0x14
    4642:	fd 89       	ldd	r31, Y+21	; 0x15
    4644:	10 82       	st	Z, r1
    4646:	60 e8       	ldi	r22, 0x80	; 128
    4648:	74 e8       	ldi	r23, 0x84	; 132
    464a:	8e e1       	ldi	r24, 0x1E	; 30
    464c:	90 e0       	ldi	r25, 0x00	; 0
    464e:	a7 01       	movw	r20, r14
    4650:	96 01       	movw	r18, r12
    4652:	57 d4       	rcall	.+2222   	; 0x4f02 <__udivmodsi4>
    4654:	ba 01       	movw	r22, r20
    4656:	a9 01       	movw	r20, r18
    4658:	41 50       	subi	r20, 0x01	; 1
    465a:	51 09       	sbc	r21, r1
    465c:	61 09       	sbc	r22, r1
    465e:	71 09       	sbc	r23, r1
    4660:	76 95       	lsr	r23
    4662:	67 95       	ror	r22
    4664:	57 95       	ror	r21
    4666:	47 95       	ror	r20
    4668:	e8 89       	ldd	r30, Y+16	; 0x10
    466a:	f9 89       	ldd	r31, Y+17	; 0x11
    466c:	50 83       	st	Z, r21
    466e:	ea 89       	ldd	r30, Y+18	; 0x12
    4670:	fb 89       	ldd	r31, Y+19	; 0x13
    4672:	40 83       	st	Z, r20
    4674:	19 a2       	std	Y+33, r1	; 0x21
    4676:	ee 89       	ldd	r30, Y+22	; 0x16
    4678:	ff 89       	ldd	r31, Y+23	; 0x17
    467a:	40 81       	ld	r20, Z
    467c:	81 e0       	ldi	r24, 0x01	; 1
    467e:	90 e0       	ldi	r25, 0x00	; 0
    4680:	9c 01       	movw	r18, r24
    4682:	0c 8c       	ldd	r0, Y+28	; 0x1c
    4684:	02 c0       	rjmp	.+4      	; 0x468a <_ZN14HardwareSerial5beginEm+0xa8>
    4686:	22 0f       	add	r18, r18
    4688:	33 1f       	adc	r19, r19
    468a:	0a 94       	dec	r0
    468c:	e2 f7       	brpl	.-8      	; 0x4686 <_ZN14HardwareSerial5beginEm+0xa4>
    468e:	24 2b       	or	r18, r20
    4690:	20 83       	st	Z, r18
    4692:	ee 89       	ldd	r30, Y+22	; 0x16
    4694:	ff 89       	ldd	r31, Y+23	; 0x17
    4696:	40 81       	ld	r20, Z
    4698:	9c 01       	movw	r18, r24
    469a:	0d 8c       	ldd	r0, Y+29	; 0x1d
    469c:	02 c0       	rjmp	.+4      	; 0x46a2 <_ZN14HardwareSerial5beginEm+0xc0>
    469e:	22 0f       	add	r18, r18
    46a0:	33 1f       	adc	r19, r19
    46a2:	0a 94       	dec	r0
    46a4:	e2 f7       	brpl	.-8      	; 0x469e <_ZN14HardwareSerial5beginEm+0xbc>
    46a6:	24 2b       	or	r18, r20
    46a8:	20 83       	st	Z, r18
    46aa:	ee 89       	ldd	r30, Y+22	; 0x16
    46ac:	ff 89       	ldd	r31, Y+23	; 0x17
    46ae:	40 81       	ld	r20, Z
    46b0:	9c 01       	movw	r18, r24
    46b2:	0e 8c       	ldd	r0, Y+30	; 0x1e
    46b4:	02 c0       	rjmp	.+4      	; 0x46ba <_ZN14HardwareSerial5beginEm+0xd8>
    46b6:	22 0f       	add	r18, r18
    46b8:	33 1f       	adc	r19, r19
    46ba:	0a 94       	dec	r0
    46bc:	e2 f7       	brpl	.-8      	; 0x46b6 <_ZN14HardwareSerial5beginEm+0xd4>
    46be:	24 2b       	or	r18, r20
    46c0:	20 83       	st	Z, r18
    46c2:	ee 89       	ldd	r30, Y+22	; 0x16
    46c4:	ff 89       	ldd	r31, Y+23	; 0x17
    46c6:	20 81       	ld	r18, Z
    46c8:	0f 8c       	ldd	r0, Y+31	; 0x1f
    46ca:	02 c0       	rjmp	.+4      	; 0x46d0 <_ZN14HardwareSerial5beginEm+0xee>
    46cc:	88 0f       	add	r24, r24
    46ce:	99 1f       	adc	r25, r25
    46d0:	0a 94       	dec	r0
    46d2:	e2 f7       	brpl	.-8      	; 0x46cc <_ZN14HardwareSerial5beginEm+0xea>
    46d4:	80 95       	com	r24
    46d6:	82 23       	and	r24, r18
    46d8:	80 83       	st	Z, r24
    46da:	df 91       	pop	r29
    46dc:	cf 91       	pop	r28
    46de:	ff 90       	pop	r15
    46e0:	ef 90       	pop	r14
    46e2:	df 90       	pop	r13
    46e4:	cf 90       	pop	r12
    46e6:	08 95       	ret

000046e8 <_GLOBAL__sub_I_rx_buffer>:
#endif
#if defined(UBRR2H)
  HardwareSerial Serial2(&rx_buffer2, &tx_buffer2, &UBRR2H, &UBRR2L, &UCSR2A, &UCSR2B, &UCSR2C, &UDR2, RXEN2, TXEN2, RXCIE2, UDRIE2, U2X2);
#endif
#if defined(UBRR3H)
  HardwareSerial Serial3(&rx_buffer3, &tx_buffer3, &UBRR3H, &UBRR3L, &UCSR3A, &UCSR3B, &UCSR3C, &UDR3, RXEN3, TXEN3, RXCIE3, UDRIE3, U2X3);
    46e8:	5f 92       	push	r5
    46ea:	6f 92       	push	r6
    46ec:	7f 92       	push	r7
    46ee:	8f 92       	push	r8
    46f0:	9f 92       	push	r9
    46f2:	af 92       	push	r10
    46f4:	bf 92       	push	r11
    46f6:	cf 92       	push	r12
    46f8:	df 92       	push	r13
    46fa:	ef 92       	push	r14
    46fc:	ff 92       	push	r15
    46fe:	0f 93       	push	r16
    4700:	1f 93       	push	r17
    4702:	cf 93       	push	r28
    4704:	df 93       	push	r29
// Preinstantiate Objects //////////////////////////////////////////////////////

#if defined(UBRRH) && defined(UBRRL)
  HardwareSerial Serial(&rx_buffer, &tx_buffer, &UBRRH, &UBRRL, &UCSRA, &UCSRB, &UCSRC, &UDR, RXEN, TXEN, RXCIE, UDRIE, U2X);
#elif defined(UBRR0H) && defined(UBRR0L)
  HardwareSerial Serial(&rx_buffer, &tx_buffer, &UBRR0H, &UBRR0L, &UCSR0A, &UCSR0B, &UCSR0C, &UDR0, RXEN0, TXEN0, RXCIE0, UDRIE0, U2X0);
    4706:	55 24       	eor	r5, r5
    4708:	53 94       	inc	r5
    470a:	5f 92       	push	r5
    470c:	0f 2e       	mov	r0, r31
    470e:	f5 e0       	ldi	r31, 0x05	; 5
    4710:	6f 2e       	mov	r6, r31
    4712:	f0 2d       	mov	r31, r0
    4714:	6f 92       	push	r6
    4716:	0f 2e       	mov	r0, r31
    4718:	f7 e0       	ldi	r31, 0x07	; 7
    471a:	7f 2e       	mov	r7, r31
    471c:	f0 2d       	mov	r31, r0
    471e:	7f 92       	push	r7
    4720:	d3 e0       	ldi	r29, 0x03	; 3
    4722:	df 93       	push	r29
    4724:	c4 e0       	ldi	r28, 0x04	; 4
    4726:	cf 93       	push	r28
    4728:	0f 2e       	mov	r0, r31
    472a:	f6 ec       	ldi	r31, 0xC6	; 198
    472c:	8f 2e       	mov	r8, r31
    472e:	91 2c       	mov	r9, r1
    4730:	f0 2d       	mov	r31, r0
    4732:	0f 2e       	mov	r0, r31
    4734:	f2 ec       	ldi	r31, 0xC2	; 194
    4736:	af 2e       	mov	r10, r31
    4738:	b1 2c       	mov	r11, r1
    473a:	f0 2d       	mov	r31, r0
    473c:	0f 2e       	mov	r0, r31
    473e:	f1 ec       	ldi	r31, 0xC1	; 193
    4740:	cf 2e       	mov	r12, r31
    4742:	d1 2c       	mov	r13, r1
    4744:	f0 2d       	mov	r31, r0
    4746:	0f 2e       	mov	r0, r31
    4748:	f0 ec       	ldi	r31, 0xC0	; 192
    474a:	ef 2e       	mov	r14, r31
    474c:	f1 2c       	mov	r15, r1
    474e:	f0 2d       	mov	r31, r0
    4750:	04 ec       	ldi	r16, 0xC4	; 196
    4752:	10 e0       	ldi	r17, 0x00	; 0
    4754:	25 ec       	ldi	r18, 0xC5	; 197
    4756:	30 e0       	ldi	r19, 0x00	; 0
    4758:	40 ef       	ldi	r20, 0xF0	; 240
    475a:	5b e1       	ldi	r21, 0x1B	; 27
    475c:	64 e3       	ldi	r22, 0x34	; 52
    475e:	7c e1       	ldi	r23, 0x1C	; 28
    4760:	86 e3       	ldi	r24, 0x36	; 54
    4762:	9a e1       	ldi	r25, 0x1A	; 26
    4764:	fa de       	rcall	.-524    	; 0x455a <_ZN14HardwareSerialC1EP11ring_bufferS1_PVhS3_S3_S3_S3_S3_hhhhh>
#else
  #error no serial port defined  (port 0)
#endif

#if defined(UBRR1H)
  HardwareSerial Serial1(&rx_buffer1, &tx_buffer1, &UBRR1H, &UBRR1L, &UCSR1A, &UCSR1B, &UCSR1C, &UDR1, RXEN1, TXEN1, RXCIE1, UDRIE1, U2X1);
    4766:	5f 92       	push	r5
    4768:	6f 92       	push	r6
    476a:	7f 92       	push	r7
    476c:	df 93       	push	r29
    476e:	cf 93       	push	r28
    4770:	0f 2e       	mov	r0, r31
    4772:	fe ec       	ldi	r31, 0xCE	; 206
    4774:	8f 2e       	mov	r8, r31
    4776:	91 2c       	mov	r9, r1
    4778:	f0 2d       	mov	r31, r0
    477a:	0f 2e       	mov	r0, r31
    477c:	fa ec       	ldi	r31, 0xCA	; 202
    477e:	af 2e       	mov	r10, r31
    4780:	b1 2c       	mov	r11, r1
    4782:	f0 2d       	mov	r31, r0
    4784:	0f 2e       	mov	r0, r31
    4786:	f9 ec       	ldi	r31, 0xC9	; 201
    4788:	cf 2e       	mov	r12, r31
    478a:	d1 2c       	mov	r13, r1
    478c:	f0 2d       	mov	r31, r0
    478e:	0f 2e       	mov	r0, r31
    4790:	f8 ec       	ldi	r31, 0xC8	; 200
    4792:	ef 2e       	mov	r14, r31
    4794:	f1 2c       	mov	r15, r1
    4796:	f0 2d       	mov	r31, r0
    4798:	0c ec       	ldi	r16, 0xCC	; 204
    479a:	10 e0       	ldi	r17, 0x00	; 0
    479c:	2d ec       	ldi	r18, 0xCD	; 205
    479e:	30 e0       	ldi	r19, 0x00	; 0
    47a0:	48 e6       	ldi	r20, 0x68	; 104
    47a2:	5b e1       	ldi	r21, 0x1B	; 27
    47a4:	6c ea       	ldi	r22, 0xAC	; 172
    47a6:	7b e1       	ldi	r23, 0x1B	; 27
    47a8:	84 e1       	ldi	r24, 0x14	; 20
    47aa:	9a e1       	ldi	r25, 0x1A	; 26
    47ac:	d6 de       	rcall	.-596    	; 0x455a <_ZN14HardwareSerialC1EP11ring_bufferS1_PVhS3_S3_S3_S3_S3_hhhhh>
#endif
#if defined(UBRR2H)
  HardwareSerial Serial2(&rx_buffer2, &tx_buffer2, &UBRR2H, &UBRR2L, &UCSR2A, &UCSR2B, &UCSR2C, &UDR2, RXEN2, TXEN2, RXCIE2, UDRIE2, U2X2);
    47ae:	5f 92       	push	r5
    47b0:	6f 92       	push	r6
    47b2:	7f 92       	push	r7
    47b4:	df 93       	push	r29
    47b6:	cf 93       	push	r28
    47b8:	0f 2e       	mov	r0, r31
    47ba:	f6 ed       	ldi	r31, 0xD6	; 214
    47bc:	8f 2e       	mov	r8, r31
    47be:	91 2c       	mov	r9, r1
    47c0:	f0 2d       	mov	r31, r0
    47c2:	0f 2e       	mov	r0, r31
    47c4:	f2 ed       	ldi	r31, 0xD2	; 210
    47c6:	af 2e       	mov	r10, r31
    47c8:	b1 2c       	mov	r11, r1
    47ca:	f0 2d       	mov	r31, r0
    47cc:	0f 2e       	mov	r0, r31
    47ce:	f1 ed       	ldi	r31, 0xD1	; 209
    47d0:	cf 2e       	mov	r12, r31
    47d2:	d1 2c       	mov	r13, r1
    47d4:	f0 2d       	mov	r31, r0
    47d6:	0f 2e       	mov	r0, r31
    47d8:	f0 ed       	ldi	r31, 0xD0	; 208
    47da:	ef 2e       	mov	r14, r31
    47dc:	f1 2c       	mov	r15, r1
    47de:	f0 2d       	mov	r31, r0
    47e0:	04 ed       	ldi	r16, 0xD4	; 212
    47e2:	10 e0       	ldi	r17, 0x00	; 0
    47e4:	25 ed       	ldi	r18, 0xD5	; 213
    47e6:	30 e0       	ldi	r19, 0x00	; 0
    47e8:	40 ee       	ldi	r20, 0xE0	; 224
    47ea:	5a e1       	ldi	r21, 0x1A	; 26
    47ec:	64 e2       	ldi	r22, 0x24	; 36
    47ee:	7b e1       	ldi	r23, 0x1B	; 27
    47f0:	82 ef       	ldi	r24, 0xF2	; 242
    47f2:	99 e1       	ldi	r25, 0x19	; 25
    47f4:	b2 de       	rcall	.-668    	; 0x455a <_ZN14HardwareSerialC1EP11ring_bufferS1_PVhS3_S3_S3_S3_S3_hhhhh>
#endif
#if defined(UBRR3H)
  HardwareSerial Serial3(&rx_buffer3, &tx_buffer3, &UBRR3H, &UBRR3L, &UCSR3A, &UCSR3B, &UCSR3C, &UDR3, RXEN3, TXEN3, RXCIE3, UDRIE3, U2X3);
    47f6:	5f 92       	push	r5
    47f8:	6f 92       	push	r6
    47fa:	7f 92       	push	r7
    47fc:	df 93       	push	r29
    47fe:	cf 93       	push	r28
    4800:	0f 2e       	mov	r0, r31
    4802:	f6 e3       	ldi	r31, 0x36	; 54
    4804:	8f 2e       	mov	r8, r31
    4806:	99 24       	eor	r9, r9
    4808:	93 94       	inc	r9
    480a:	f0 2d       	mov	r31, r0
    480c:	0f 2e       	mov	r0, r31
    480e:	f2 e3       	ldi	r31, 0x32	; 50
    4810:	af 2e       	mov	r10, r31
    4812:	bb 24       	eor	r11, r11
    4814:	b3 94       	inc	r11
    4816:	f0 2d       	mov	r31, r0
    4818:	0f 2e       	mov	r0, r31
    481a:	f1 e3       	ldi	r31, 0x31	; 49
    481c:	cf 2e       	mov	r12, r31
    481e:	dd 24       	eor	r13, r13
    4820:	d3 94       	inc	r13
    4822:	f0 2d       	mov	r31, r0
    4824:	0f 2e       	mov	r0, r31
    4826:	f0 e3       	ldi	r31, 0x30	; 48
    4828:	ef 2e       	mov	r14, r31
    482a:	ff 24       	eor	r15, r15
    482c:	f3 94       	inc	r15
    482e:	f0 2d       	mov	r31, r0
    4830:	04 e3       	ldi	r16, 0x34	; 52
    4832:	11 e0       	ldi	r17, 0x01	; 1
    4834:	25 e3       	ldi	r18, 0x35	; 53
    4836:	31 e0       	ldi	r19, 0x01	; 1
    4838:	48 e5       	ldi	r20, 0x58	; 88
    483a:	5a e1       	ldi	r21, 0x1A	; 26
    483c:	6c e9       	ldi	r22, 0x9C	; 156
    483e:	7a e1       	ldi	r23, 0x1A	; 26
    4840:	80 ed       	ldi	r24, 0xD0	; 208
    4842:	99 e1       	ldi	r25, 0x19	; 25
    4844:	8a de       	rcall	.-748    	; 0x455a <_ZN14HardwareSerialC1EP11ring_bufferS1_PVhS3_S3_S3_S3_S3_hhhhh>
    4846:	8d b7       	in	r24, 0x3d	; 61
    4848:	9e b7       	in	r25, 0x3e	; 62
    484a:	44 96       	adiw	r24, 0x14	; 20
    484c:	0f b6       	in	r0, 0x3f	; 63
    484e:	f8 94       	cli
    4850:	9e bf       	out	0x3e, r25	; 62
    4852:	0f be       	out	0x3f, r0	; 63
    4854:	8d bf       	out	0x3d, r24	; 61
    4856:	df 91       	pop	r29
    4858:	cf 91       	pop	r28
    485a:	1f 91       	pop	r17
    485c:	0f 91       	pop	r16
    485e:	ff 90       	pop	r15
    4860:	ef 90       	pop	r14
    4862:	df 90       	pop	r13
    4864:	cf 90       	pop	r12
    4866:	bf 90       	pop	r11
    4868:	af 90       	pop	r10
    486a:	9f 90       	pop	r9
    486c:	8f 90       	pop	r8
    486e:	7f 90       	pop	r7
    4870:	6f 90       	pop	r6
    4872:	5f 90       	pop	r5
    4874:	08 95       	ret

00004876 <_ZN5Print5writeEPKhj>:
size_t Print::println(unsigned int num, int base)
{
  size_t n = print(num, base);
  n += println();
  return n;
}
    4876:	cf 92       	push	r12
    4878:	df 92       	push	r13
    487a:	ef 92       	push	r14
    487c:	ff 92       	push	r15
    487e:	0f 93       	push	r16
    4880:	1f 93       	push	r17
    4882:	cf 93       	push	r28
    4884:	df 93       	push	r29
    4886:	6c 01       	movw	r12, r24
    4888:	41 15       	cp	r20, r1
    488a:	51 05       	cpc	r21, r1
    488c:	b1 f0       	breq	.+44     	; 0x48ba <_ZN5Print5writeEPKhj+0x44>
    488e:	06 2f       	mov	r16, r22
    4890:	17 2f       	mov	r17, r23
    4892:	ea 01       	movw	r28, r20
    4894:	e1 2c       	mov	r14, r1
    4896:	f1 2c       	mov	r15, r1
    4898:	d8 01       	movw	r26, r16
    489a:	6d 91       	ld	r22, X+
    489c:	8d 01       	movw	r16, r26
    489e:	d6 01       	movw	r26, r12
    48a0:	ed 91       	ld	r30, X+
    48a2:	fc 91       	ld	r31, X
    48a4:	01 90       	ld	r0, Z+
    48a6:	f0 81       	ld	r31, Z
    48a8:	e0 2d       	mov	r30, r0
    48aa:	c6 01       	movw	r24, r12
    48ac:	19 95       	eicall
    48ae:	e8 0e       	add	r14, r24
    48b0:	f9 1e       	adc	r15, r25
    48b2:	21 97       	sbiw	r28, 0x01	; 1
    48b4:	20 97       	sbiw	r28, 0x00	; 0
    48b6:	81 f7       	brne	.-32     	; 0x4898 <_ZN5Print5writeEPKhj+0x22>
    48b8:	02 c0       	rjmp	.+4      	; 0x48be <_ZN5Print5writeEPKhj+0x48>
    48ba:	e1 2c       	mov	r14, r1
    48bc:	f1 2c       	mov	r15, r1
    48be:	c7 01       	movw	r24, r14
    48c0:	df 91       	pop	r29
    48c2:	cf 91       	pop	r28
    48c4:	1f 91       	pop	r17
    48c6:	0f 91       	pop	r16
    48c8:	ff 90       	pop	r15
    48ca:	ef 90       	pop	r14
    48cc:	df 90       	pop	r13
    48ce:	cf 90       	pop	r12
    48d0:	08 95       	ret

000048d2 <_ZN5Print5printEPK19__FlashStringHelper>:
    48d2:	ef 92       	push	r14
    48d4:	ff 92       	push	r15
    48d6:	0f 93       	push	r16
    48d8:	1f 93       	push	r17
    48da:	cf 93       	push	r28
    48dc:	df 93       	push	r29
    48de:	7c 01       	movw	r14, r24
    48e0:	eb 01       	movw	r28, r22
    48e2:	21 96       	adiw	r28, 0x01	; 1
    48e4:	fb 01       	movw	r30, r22
    48e6:	64 91       	lpm	r22, Z
    48e8:	66 23       	and	r22, r22
    48ea:	89 f0       	breq	.+34     	; 0x490e <_ZN5Print5printEPK19__FlashStringHelper+0x3c>
    48ec:	00 e0       	ldi	r16, 0x00	; 0
    48ee:	10 e0       	ldi	r17, 0x00	; 0
    48f0:	f7 01       	movw	r30, r14
    48f2:	a0 81       	ld	r26, Z
    48f4:	b1 81       	ldd	r27, Z+1	; 0x01
    48f6:	ed 91       	ld	r30, X+
    48f8:	fc 91       	ld	r31, X
    48fa:	c7 01       	movw	r24, r14
    48fc:	19 95       	eicall
    48fe:	08 0f       	add	r16, r24
    4900:	19 1f       	adc	r17, r25
    4902:	fe 01       	movw	r30, r28
    4904:	64 91       	lpm	r22, Z
    4906:	21 96       	adiw	r28, 0x01	; 1
    4908:	66 23       	and	r22, r22
    490a:	19 f0       	breq	.+6      	; 0x4912 <_ZN5Print5printEPK19__FlashStringHelper+0x40>
    490c:	f1 cf       	rjmp	.-30     	; 0x48f0 <_ZN5Print5printEPK19__FlashStringHelper+0x1e>
    490e:	00 e0       	ldi	r16, 0x00	; 0
    4910:	10 e0       	ldi	r17, 0x00	; 0
    4912:	c8 01       	movw	r24, r16
    4914:	df 91       	pop	r29
    4916:	cf 91       	pop	r28
    4918:	1f 91       	pop	r17
    491a:	0f 91       	pop	r16
    491c:	ff 90       	pop	r15
    491e:	ef 90       	pop	r14
    4920:	08 95       	ret

00004922 <_ZN5Print5printEPKc>:
    4922:	61 15       	cp	r22, r1
    4924:	71 05       	cpc	r23, r1
    4926:	81 f0       	breq	.+32     	; 0x4948 <_ZN5Print5printEPKc+0x26>
    4928:	fb 01       	movw	r30, r22
    492a:	01 90       	ld	r0, Z+
    492c:	00 20       	and	r0, r0
    492e:	e9 f7       	brne	.-6      	; 0x492a <_ZN5Print5printEPKc+0x8>
    4930:	31 97       	sbiw	r30, 0x01	; 1
    4932:	af 01       	movw	r20, r30
    4934:	46 1b       	sub	r20, r22
    4936:	57 0b       	sbc	r21, r23
    4938:	dc 01       	movw	r26, r24
    493a:	ed 91       	ld	r30, X+
    493c:	fc 91       	ld	r31, X
    493e:	02 80       	ldd	r0, Z+2	; 0x02
    4940:	f3 81       	ldd	r31, Z+3	; 0x03
    4942:	e0 2d       	mov	r30, r0
    4944:	19 95       	eicall
    4946:	08 95       	ret
    4948:	80 e0       	ldi	r24, 0x00	; 0
    494a:	90 e0       	ldi	r25, 0x00	; 0
    494c:	08 95       	ret

0000494e <_ZN5Print5printEc>:
    494e:	dc 01       	movw	r26, r24
    4950:	ed 91       	ld	r30, X+
    4952:	fc 91       	ld	r31, X
    4954:	01 90       	ld	r0, Z+
    4956:	f0 81       	ld	r31, Z
    4958:	e0 2d       	mov	r30, r0
    495a:	19 95       	eicall
    495c:	08 95       	ret

0000495e <_ZN5Print7printlnEv>:
    495e:	0f 93       	push	r16
    4960:	1f 93       	push	r17
    4962:	cf 93       	push	r28
    4964:	df 93       	push	r29
    4966:	ec 01       	movw	r28, r24
    4968:	6d e0       	ldi	r22, 0x0D	; 13
    496a:	f1 df       	rcall	.-30     	; 0x494e <_ZN5Print5printEc>
    496c:	8c 01       	movw	r16, r24
    496e:	6a e0       	ldi	r22, 0x0A	; 10
    4970:	ce 01       	movw	r24, r28
    4972:	ed df       	rcall	.-38     	; 0x494e <_ZN5Print5printEc>
    4974:	80 0f       	add	r24, r16
    4976:	91 1f       	adc	r25, r17
    4978:	df 91       	pop	r29
    497a:	cf 91       	pop	r28
    497c:	1f 91       	pop	r17
    497e:	0f 91       	pop	r16
    4980:	08 95       	ret

00004982 <_ZN5Print7printlnEPK19__FlashStringHelper>:
    4982:	0f 93       	push	r16
    4984:	1f 93       	push	r17
    4986:	cf 93       	push	r28
    4988:	df 93       	push	r29
    498a:	ec 01       	movw	r28, r24
    498c:	a2 df       	rcall	.-188    	; 0x48d2 <_ZN5Print5printEPK19__FlashStringHelper>
    498e:	8c 01       	movw	r16, r24
    4990:	ce 01       	movw	r24, r28
    4992:	e5 df       	rcall	.-54     	; 0x495e <_ZN5Print7printlnEv>
    4994:	80 0f       	add	r24, r16
    4996:	91 1f       	adc	r25, r17
    4998:	df 91       	pop	r29
    499a:	cf 91       	pop	r28
    499c:	1f 91       	pop	r17
    499e:	0f 91       	pop	r16
    49a0:	08 95       	ret

000049a2 <_ZN5Print7printlnEPKc>:
    49a2:	0f 93       	push	r16
    49a4:	1f 93       	push	r17
    49a6:	cf 93       	push	r28
    49a8:	df 93       	push	r29
    49aa:	ec 01       	movw	r28, r24
    49ac:	ba df       	rcall	.-140    	; 0x4922 <_ZN5Print5printEPKc>
    49ae:	8c 01       	movw	r16, r24
    49b0:	ce 01       	movw	r24, r28
    49b2:	d5 df       	rcall	.-86     	; 0x495e <_ZN5Print7printlnEv>
    49b4:	80 0f       	add	r24, r16
    49b6:	91 1f       	adc	r25, r17
    49b8:	df 91       	pop	r29
    49ba:	cf 91       	pop	r28
    49bc:	1f 91       	pop	r17
    49be:	0f 91       	pop	r16
    49c0:	08 95       	ret

000049c2 <_ZN5Print7printlnEc>:
    49c2:	0f 93       	push	r16
    49c4:	1f 93       	push	r17
    49c6:	cf 93       	push	r28
    49c8:	df 93       	push	r29
    49ca:	ec 01       	movw	r28, r24
    49cc:	c0 df       	rcall	.-128    	; 0x494e <_ZN5Print5printEc>
    49ce:	8c 01       	movw	r16, r24
    49d0:	ce 01       	movw	r24, r28
    49d2:	c5 df       	rcall	.-118    	; 0x495e <_ZN5Print7printlnEv>
    49d4:	80 0f       	add	r24, r16
    49d6:	91 1f       	adc	r25, r17
    49d8:	df 91       	pop	r29
    49da:	cf 91       	pop	r28
    49dc:	1f 91       	pop	r17
    49de:	0f 91       	pop	r16
    49e0:	08 95       	ret

000049e2 <_ZN5Print11printNumberEmh>:
    49e2:	6f 92       	push	r6
    49e4:	7f 92       	push	r7
    49e6:	8f 92       	push	r8
    49e8:	9f 92       	push	r9
    49ea:	af 92       	push	r10
    49ec:	bf 92       	push	r11
    49ee:	cf 92       	push	r12
    49f0:	df 92       	push	r13
    49f2:	ef 92       	push	r14
    49f4:	ff 92       	push	r15
    49f6:	0f 93       	push	r16
    49f8:	1f 93       	push	r17
    49fa:	cf 93       	push	r28
    49fc:	df 93       	push	r29
    49fe:	cd b7       	in	r28, 0x3d	; 61
    4a00:	de b7       	in	r29, 0x3e	; 62
    4a02:	a1 97       	sbiw	r28, 0x21	; 33
    4a04:	0f b6       	in	r0, 0x3f	; 63
    4a06:	f8 94       	cli
    4a08:	de bf       	out	0x3e, r29	; 62
    4a0a:	0f be       	out	0x3f, r0	; 63
    4a0c:	cd bf       	out	0x3d, r28	; 61
    4a0e:	6c 01       	movw	r12, r24
    4a10:	74 2e       	mov	r7, r20
    4a12:	35 2f       	mov	r19, r21
    4a14:	86 2f       	mov	r24, r22
    4a16:	97 2f       	mov	r25, r23
    4a18:	62 2e       	mov	r6, r18
    4a1a:	19 a2       	std	Y+33, r1	; 0x21
    4a1c:	21 e0       	ldi	r18, 0x01	; 1
    4a1e:	26 15       	cp	r18, r6
    4a20:	20 f0       	brcs	.+8      	; 0x4a2a <_ZN5Print11printNumberEmh+0x48>
    4a22:	0f 2e       	mov	r0, r31
    4a24:	fa e0       	ldi	r31, 0x0A	; 10
    4a26:	6f 2e       	mov	r6, r31
    4a28:	f0 2d       	mov	r31, r0
    4a2a:	7e 01       	movw	r14, r28
    4a2c:	a1 e2       	ldi	r26, 0x21	; 33
    4a2e:	ea 0e       	add	r14, r26
    4a30:	f1 1c       	adc	r15, r1
    4a32:	86 2c       	mov	r8, r6
    4a34:	91 2c       	mov	r9, r1
    4a36:	a1 2c       	mov	r10, r1
    4a38:	b1 2c       	mov	r11, r1
    4a3a:	67 2d       	mov	r22, r7
    4a3c:	73 2f       	mov	r23, r19
    4a3e:	a5 01       	movw	r20, r10
    4a40:	94 01       	movw	r18, r8
    4a42:	5f d2       	rcall	.+1214   	; 0x4f02 <__udivmodsi4>
    4a44:	e2 2f       	mov	r30, r18
    4a46:	73 2f       	mov	r23, r19
    4a48:	02 2f       	mov	r16, r18
    4a4a:	13 2f       	mov	r17, r19
    4a4c:	24 2f       	mov	r18, r20
    4a4e:	35 2f       	mov	r19, r21
    4a50:	f7 2d       	mov	r31, r7
    4a52:	6e 9e       	mul	r6, r30
    4a54:	f0 19       	sub	r31, r0
    4a56:	11 24       	eor	r1, r1
    4a58:	b1 e0       	ldi	r27, 0x01	; 1
    4a5a:	eb 1a       	sub	r14, r27
    4a5c:	f1 08       	sbc	r15, r1
    4a5e:	fa 30       	cpi	r31, 0x0A	; 10
    4a60:	10 f4       	brcc	.+4      	; 0x4a66 <_ZN5Print11printNumberEmh+0x84>
    4a62:	f0 5d       	subi	r31, 0xD0	; 208
    4a64:	01 c0       	rjmp	.+2      	; 0x4a68 <_ZN5Print11printNumberEmh+0x86>
    4a66:	f9 5c       	subi	r31, 0xC9	; 201
    4a68:	d7 01       	movw	r26, r14
    4a6a:	fc 93       	st	X, r31
    4a6c:	01 2b       	or	r16, r17
    4a6e:	02 2b       	or	r16, r18
    4a70:	03 2b       	or	r16, r19
    4a72:	29 f0       	breq	.+10     	; 0x4a7e <_ZN5Print11printNumberEmh+0x9c>
    4a74:	7e 2e       	mov	r7, r30
    4a76:	37 2f       	mov	r19, r23
    4a78:	84 2f       	mov	r24, r20
    4a7a:	95 2f       	mov	r25, r21
    4a7c:	de cf       	rjmp	.-68     	; 0x4a3a <_ZN5Print11printNumberEmh+0x58>
    4a7e:	e1 14       	cp	r14, r1
    4a80:	f1 04       	cpc	r15, r1
    4a82:	91 f0       	breq	.+36     	; 0x4aa8 <_ZN5Print11printNumberEmh+0xc6>
    4a84:	f7 01       	movw	r30, r14
    4a86:	01 90       	ld	r0, Z+
    4a88:	00 20       	and	r0, r0
    4a8a:	e9 f7       	brne	.-6      	; 0x4a86 <_ZN5Print11printNumberEmh+0xa4>
    4a8c:	31 97       	sbiw	r30, 0x01	; 1
    4a8e:	af 01       	movw	r20, r30
    4a90:	4e 19       	sub	r20, r14
    4a92:	5f 09       	sbc	r21, r15
    4a94:	d6 01       	movw	r26, r12
    4a96:	ed 91       	ld	r30, X+
    4a98:	fc 91       	ld	r31, X
    4a9a:	02 80       	ldd	r0, Z+2	; 0x02
    4a9c:	f3 81       	ldd	r31, Z+3	; 0x03
    4a9e:	e0 2d       	mov	r30, r0
    4aa0:	b7 01       	movw	r22, r14
    4aa2:	c6 01       	movw	r24, r12
    4aa4:	19 95       	eicall
    4aa6:	02 c0       	rjmp	.+4      	; 0x4aac <_ZN5Print11printNumberEmh+0xca>
    4aa8:	80 e0       	ldi	r24, 0x00	; 0
    4aaa:	90 e0       	ldi	r25, 0x00	; 0
    4aac:	a1 96       	adiw	r28, 0x21	; 33
    4aae:	0f b6       	in	r0, 0x3f	; 63
    4ab0:	f8 94       	cli
    4ab2:	de bf       	out	0x3e, r29	; 62
    4ab4:	0f be       	out	0x3f, r0	; 63
    4ab6:	cd bf       	out	0x3d, r28	; 61
    4ab8:	df 91       	pop	r29
    4aba:	cf 91       	pop	r28
    4abc:	1f 91       	pop	r17
    4abe:	0f 91       	pop	r16
    4ac0:	ff 90       	pop	r15
    4ac2:	ef 90       	pop	r14
    4ac4:	df 90       	pop	r13
    4ac6:	cf 90       	pop	r12
    4ac8:	bf 90       	pop	r11
    4aca:	af 90       	pop	r10
    4acc:	9f 90       	pop	r9
    4ace:	8f 90       	pop	r8
    4ad0:	7f 90       	pop	r7
    4ad2:	6f 90       	pop	r6
    4ad4:	08 95       	ret

00004ad6 <_ZN5Print5printEmi>:
    4ad6:	21 15       	cp	r18, r1
    4ad8:	31 05       	cpc	r19, r1
    4ada:	49 f4       	brne	.+18     	; 0x4aee <_ZN5Print5printEmi+0x18>
    4adc:	dc 01       	movw	r26, r24
    4ade:	ed 91       	ld	r30, X+
    4ae0:	fc 91       	ld	r31, X
    4ae2:	01 90       	ld	r0, Z+
    4ae4:	f0 81       	ld	r31, Z
    4ae6:	e0 2d       	mov	r30, r0
    4ae8:	64 2f       	mov	r22, r20
    4aea:	19 95       	eicall
    4aec:	08 95       	ret
    4aee:	79 cf       	rjmp	.-270    	; 0x49e2 <_ZN5Print11printNumberEmh>
    4af0:	08 95       	ret

00004af2 <_ZN5Print7printlnEhi>:
  n += println();
  return n;
}

size_t Print::println(unsigned char b, int base)
{
    4af2:	0f 93       	push	r16
    4af4:	1f 93       	push	r17
    4af6:	cf 93       	push	r28
    4af8:	df 93       	push	r29
    4afa:	ec 01       	movw	r28, r24
    4afc:	9a 01       	movw	r18, r20
  return write(c);
}

size_t Print::print(unsigned char b, int base)
{
  return print((unsigned long) b, base);
    4afe:	46 2f       	mov	r20, r22
    4b00:	50 e0       	ldi	r21, 0x00	; 0
    4b02:	60 e0       	ldi	r22, 0x00	; 0
    4b04:	70 e0       	ldi	r23, 0x00	; 0
    4b06:	e7 df       	rcall	.-50     	; 0x4ad6 <_ZN5Print5printEmi>
    4b08:	8c 01       	movw	r16, r24
}

size_t Print::println(unsigned char b, int base)
{
  size_t n = print(b, base);
  n += println();
    4b0a:	ce 01       	movw	r24, r28
    4b0c:	28 df       	rcall	.-432    	; 0x495e <_ZN5Print7printlnEv>
  return n;
}
    4b0e:	80 0f       	add	r24, r16
    4b10:	91 1f       	adc	r25, r17
    4b12:	df 91       	pop	r29
    4b14:	cf 91       	pop	r28
    4b16:	1f 91       	pop	r17
    4b18:	0f 91       	pop	r16
    4b1a:	08 95       	ret

00004b1c <__vector_23>:
#if defined(__AVR_ATtiny24__) || defined(__AVR_ATtiny44__) || defined(__AVR_ATtiny84__)
ISR(TIM0_OVF_vect)
#else
ISR(TIMER0_OVF_vect)
#endif
{
    4b1c:	1f 92       	push	r1
    4b1e:	0f 92       	push	r0
    4b20:	0f b6       	in	r0, 0x3f	; 63
    4b22:	0f 92       	push	r0
    4b24:	11 24       	eor	r1, r1
    4b26:	2f 93       	push	r18
    4b28:	3f 93       	push	r19
    4b2a:	8f 93       	push	r24
    4b2c:	9f 93       	push	r25
    4b2e:	af 93       	push	r26
    4b30:	bf 93       	push	r27
	// copy these to local variables so they can be stored in registers
	// (volatile variables must be read from memory on every access)
	unsigned long m = timer0_millis;
    4b32:	80 91 79 1c 	lds	r24, 0x1C79
    4b36:	90 91 7a 1c 	lds	r25, 0x1C7A
    4b3a:	a0 91 7b 1c 	lds	r26, 0x1C7B
    4b3e:	b0 91 7c 1c 	lds	r27, 0x1C7C
	unsigned char f = timer0_fract;
    4b42:	30 91 78 1c 	lds	r19, 0x1C78

	m += MILLIS_INC;
	f += FRACT_INC;
    4b46:	23 e0       	ldi	r18, 0x03	; 3
    4b48:	23 0f       	add	r18, r19
	if (f >= FRACT_MAX) {
    4b4a:	2d 37       	cpi	r18, 0x7D	; 125
    4b4c:	20 f4       	brcc	.+8      	; 0x4b56 <__vector_23+0x3a>
	// copy these to local variables so they can be stored in registers
	// (volatile variables must be read from memory on every access)
	unsigned long m = timer0_millis;
	unsigned char f = timer0_fract;

	m += MILLIS_INC;
    4b4e:	01 96       	adiw	r24, 0x01	; 1
    4b50:	a1 1d       	adc	r26, r1
    4b52:	b1 1d       	adc	r27, r1
    4b54:	05 c0       	rjmp	.+10     	; 0x4b60 <__vector_23+0x44>
	f += FRACT_INC;
	if (f >= FRACT_MAX) {
		f -= FRACT_MAX;
    4b56:	26 e8       	ldi	r18, 0x86	; 134
    4b58:	23 0f       	add	r18, r19
		m += 1;
    4b5a:	02 96       	adiw	r24, 0x02	; 2
    4b5c:	a1 1d       	adc	r26, r1
    4b5e:	b1 1d       	adc	r27, r1
	}

	timer0_fract = f;
    4b60:	20 93 78 1c 	sts	0x1C78, r18
	timer0_millis = m;
    4b64:	80 93 79 1c 	sts	0x1C79, r24
    4b68:	90 93 7a 1c 	sts	0x1C7A, r25
    4b6c:	a0 93 7b 1c 	sts	0x1C7B, r26
    4b70:	b0 93 7c 1c 	sts	0x1C7C, r27
	timer0_overflow_count++;
    4b74:	80 91 7d 1c 	lds	r24, 0x1C7D
    4b78:	90 91 7e 1c 	lds	r25, 0x1C7E
    4b7c:	a0 91 7f 1c 	lds	r26, 0x1C7F
    4b80:	b0 91 80 1c 	lds	r27, 0x1C80
    4b84:	01 96       	adiw	r24, 0x01	; 1
    4b86:	a1 1d       	adc	r26, r1
    4b88:	b1 1d       	adc	r27, r1
    4b8a:	80 93 7d 1c 	sts	0x1C7D, r24
    4b8e:	90 93 7e 1c 	sts	0x1C7E, r25
    4b92:	a0 93 7f 1c 	sts	0x1C7F, r26
    4b96:	b0 93 80 1c 	sts	0x1C80, r27
}
    4b9a:	bf 91       	pop	r27
    4b9c:	af 91       	pop	r26
    4b9e:	9f 91       	pop	r25
    4ba0:	8f 91       	pop	r24
    4ba2:	3f 91       	pop	r19
    4ba4:	2f 91       	pop	r18
    4ba6:	0f 90       	pop	r0
    4ba8:	0f be       	out	0x3f, r0	; 63
    4baa:	0f 90       	pop	r0
    4bac:	1f 90       	pop	r1
    4bae:	18 95       	reti

00004bb0 <millis>:

unsigned long millis()
{
	unsigned long m;
	uint8_t oldSREG = SREG;
    4bb0:	2f b7       	in	r18, 0x3f	; 63

	// disable interrupts while we read timer0_millis or we might get an
	// inconsistent value (e.g. in the middle of a write to timer0_millis)
	cli();
    4bb2:	f8 94       	cli
	m = timer0_millis;
    4bb4:	60 91 79 1c 	lds	r22, 0x1C79
    4bb8:	70 91 7a 1c 	lds	r23, 0x1C7A
    4bbc:	80 91 7b 1c 	lds	r24, 0x1C7B
    4bc0:	90 91 7c 1c 	lds	r25, 0x1C7C
	SREG = oldSREG;
    4bc4:	2f bf       	out	0x3f, r18	; 63

	return m;
}
    4bc6:	08 95       	ret

00004bc8 <micros>:

unsigned long micros() {
	unsigned long m;
	uint8_t oldSREG = SREG, t;
    4bc8:	3f b7       	in	r19, 0x3f	; 63
	
	cli();
    4bca:	f8 94       	cli
	m = timer0_overflow_count;
    4bcc:	80 91 7d 1c 	lds	r24, 0x1C7D
    4bd0:	90 91 7e 1c 	lds	r25, 0x1C7E
    4bd4:	a0 91 7f 1c 	lds	r26, 0x1C7F
    4bd8:	b0 91 80 1c 	lds	r27, 0x1C80
#if defined(TCNT0)
	t = TCNT0;
    4bdc:	26 b5       	in	r18, 0x26	; 38
	#error TIMER 0 not defined
#endif

  
#ifdef TIFR0
	if ((TIFR0 & _BV(TOV0)) && (t < 255))
    4bde:	a8 9b       	sbis	0x15, 0	; 21
    4be0:	05 c0       	rjmp	.+10     	; 0x4bec <micros+0x24>
    4be2:	2f 3f       	cpi	r18, 0xFF	; 255
    4be4:	19 f0       	breq	.+6      	; 0x4bec <micros+0x24>
		m++;
    4be6:	01 96       	adiw	r24, 0x01	; 1
    4be8:	a1 1d       	adc	r26, r1
    4bea:	b1 1d       	adc	r27, r1
#else
	if ((TIFR & _BV(TOV0)) && (t < 255))
		m++;
#endif

	SREG = oldSREG;
    4bec:	3f bf       	out	0x3f, r19	; 63
	
	return ((m << 8) + t) * (64 / clockCyclesPerMicrosecond());
    4bee:	ba 2f       	mov	r27, r26
    4bf0:	a9 2f       	mov	r26, r25
    4bf2:	98 2f       	mov	r25, r24
    4bf4:	88 27       	eor	r24, r24
    4bf6:	82 0f       	add	r24, r18
    4bf8:	91 1d       	adc	r25, r1
    4bfa:	a1 1d       	adc	r26, r1
    4bfc:	b1 1d       	adc	r27, r1
    4bfe:	bc 01       	movw	r22, r24
    4c00:	cd 01       	movw	r24, r26
    4c02:	66 0f       	add	r22, r22
    4c04:	77 1f       	adc	r23, r23
    4c06:	88 1f       	adc	r24, r24
    4c08:	99 1f       	adc	r25, r25
    4c0a:	66 0f       	add	r22, r22
    4c0c:	77 1f       	adc	r23, r23
    4c0e:	88 1f       	adc	r24, r24
    4c10:	99 1f       	adc	r25, r25
}
    4c12:	08 95       	ret

00004c14 <delay>:

void delay(unsigned long ms)
{
    4c14:	cf 92       	push	r12
    4c16:	df 92       	push	r13
    4c18:	ef 92       	push	r14
    4c1a:	ff 92       	push	r15
    4c1c:	cf 93       	push	r28
    4c1e:	df 93       	push	r29
    4c20:	6b 01       	movw	r12, r22
    4c22:	7c 01       	movw	r14, r24
	uint16_t start = (uint16_t)micros();
    4c24:	d1 df       	rcall	.-94     	; 0x4bc8 <micros>
    4c26:	eb 01       	movw	r28, r22

	while (ms > 0) {
    4c28:	c1 14       	cp	r12, r1
    4c2a:	d1 04       	cpc	r13, r1
    4c2c:	e1 04       	cpc	r14, r1
    4c2e:	f1 04       	cpc	r15, r1
    4c30:	91 f0       	breq	.+36     	; 0x4c56 <delay+0x42>
		if (((uint16_t)micros() - start) >= 1000) {
    4c32:	ca df       	rcall	.-108    	; 0x4bc8 <micros>
    4c34:	6c 1b       	sub	r22, r28
    4c36:	7d 0b       	sbc	r23, r29
    4c38:	68 3e       	cpi	r22, 0xE8	; 232
    4c3a:	73 40       	sbci	r23, 0x03	; 3
    4c3c:	38 f0       	brcs	.+14     	; 0x4c4c <delay+0x38>
			ms--;
    4c3e:	81 e0       	ldi	r24, 0x01	; 1
    4c40:	c8 1a       	sub	r12, r24
    4c42:	d1 08       	sbc	r13, r1
    4c44:	e1 08       	sbc	r14, r1
    4c46:	f1 08       	sbc	r15, r1
			start += 1000;
    4c48:	c8 51       	subi	r28, 0x18	; 24
    4c4a:	dc 4f       	sbci	r29, 0xFC	; 252

void delay(unsigned long ms)
{
	uint16_t start = (uint16_t)micros();

	while (ms > 0) {
    4c4c:	c1 14       	cp	r12, r1
    4c4e:	d1 04       	cpc	r13, r1
    4c50:	e1 04       	cpc	r14, r1
    4c52:	f1 04       	cpc	r15, r1
    4c54:	71 f7       	brne	.-36     	; 0x4c32 <delay+0x1e>
		if (((uint16_t)micros() - start) >= 1000) {
			ms--;
			start += 1000;
		}
	}
}
    4c56:	df 91       	pop	r29
    4c58:	cf 91       	pop	r28
    4c5a:	ff 90       	pop	r15
    4c5c:	ef 90       	pop	r14
    4c5e:	df 90       	pop	r13
    4c60:	cf 90       	pop	r12
    4c62:	08 95       	ret

00004c64 <delayMicroseconds>:
#elif F_CPU >= 16000000L
	// for the 16 MHz clock on most Arduino boards

	// for a one-microsecond delay, simply return.  the overhead
	// of the function call yields a delay of approximately 1 1/8 us.
	if (--us == 0)
    4c64:	01 97       	sbiw	r24, 0x01	; 1
    4c66:	00 97       	sbiw	r24, 0x00	; 0
    4c68:	39 f0       	breq	.+14     	; 0x4c78 <delayMicroseconds+0x14>
		return;

	// the following loop takes a quarter of a microsecond (4 cycles)
	// per iteration, so execute it four times for each microsecond of
	// delay requested.
	us <<= 2;
    4c6a:	88 0f       	add	r24, r24
    4c6c:	99 1f       	adc	r25, r25
    4c6e:	88 0f       	add	r24, r24
    4c70:	99 1f       	adc	r25, r25

	// account for the time taken in the preceeding commands.
	us -= 2;
    4c72:	02 97       	sbiw	r24, 0x02	; 2
	// we can't subtract any more than this or we'd overflow w/ small delays.
	us--;
#endif

	// busy wait
	__asm__ __volatile__ (
    4c74:	01 97       	sbiw	r24, 0x01	; 1
    4c76:	f1 f7       	brne	.-4      	; 0x4c74 <delayMicroseconds+0x10>
    4c78:	08 95       	ret

00004c7a <init>:

void init()
{
	// this needs to be called before setup() or some functions won't
	// work there
	sei();
    4c7a:	78 94       	sei
	
	// on the ATmega168, timer 0 is also used for fast hardware pwm
	// (using phase-correct PWM would mean that timer 0 overflowed half as often
	// resulting in different millis() behavior on the ATmega8 and ATmega168)
#if defined(TCCR0A) && defined(WGM01)
	sbi(TCCR0A, WGM01);
    4c7c:	84 b5       	in	r24, 0x24	; 36
    4c7e:	82 60       	ori	r24, 0x02	; 2
    4c80:	84 bd       	out	0x24, r24	; 36
	sbi(TCCR0A, WGM00);
    4c82:	84 b5       	in	r24, 0x24	; 36
    4c84:	81 60       	ori	r24, 0x01	; 1
    4c86:	84 bd       	out	0x24, r24	; 36
	// this combination is for the standard atmega8
	sbi(TCCR0, CS01);
	sbi(TCCR0, CS00);
#elif defined(TCCR0B) && defined(CS01) && defined(CS00)
	// this combination is for the standard 168/328/1280/2560
	sbi(TCCR0B, CS01);
    4c88:	85 b5       	in	r24, 0x25	; 37
    4c8a:	82 60       	ori	r24, 0x02	; 2
    4c8c:	85 bd       	out	0x25, r24	; 37
	sbi(TCCR0B, CS00);
    4c8e:	85 b5       	in	r24, 0x25	; 37
    4c90:	81 60       	ori	r24, 0x01	; 1
    4c92:	85 bd       	out	0x25, r24	; 37

	// enable timer 0 overflow interrupt
#if defined(TIMSK) && defined(TOIE0)
	sbi(TIMSK, TOIE0);
#elif defined(TIMSK0) && defined(TOIE0)
	sbi(TIMSK0, TOIE0);
    4c94:	ee e6       	ldi	r30, 0x6E	; 110
    4c96:	f0 e0       	ldi	r31, 0x00	; 0
    4c98:	80 81       	ld	r24, Z
    4c9a:	81 60       	ori	r24, 0x01	; 1
    4c9c:	80 83       	st	Z, r24
	// this is better for motors as it ensures an even waveform
	// note, however, that fast pwm mode can achieve a frequency of up
	// 8 MHz (with a 16 MHz clock) at 50% duty cycle

#if defined(TCCR1B) && defined(CS11) && defined(CS10)
	TCCR1B = 0;
    4c9e:	e1 e8       	ldi	r30, 0x81	; 129
    4ca0:	f0 e0       	ldi	r31, 0x00	; 0
    4ca2:	10 82       	st	Z, r1

	// set timer 1 prescale factor to 64
	sbi(TCCR1B, CS11);
    4ca4:	80 81       	ld	r24, Z
    4ca6:	82 60       	ori	r24, 0x02	; 2
    4ca8:	80 83       	st	Z, r24
#if F_CPU >= 8000000L
	sbi(TCCR1B, CS10);
    4caa:	80 81       	ld	r24, Z
    4cac:	81 60       	ori	r24, 0x01	; 1
    4cae:	80 83       	st	Z, r24
	sbi(TCCR1, CS10);
#endif
#endif
	// put timer 1 in 8-bit phase correct pwm mode
#if defined(TCCR1A) && defined(WGM10)
	sbi(TCCR1A, WGM10);
    4cb0:	e0 e8       	ldi	r30, 0x80	; 128
    4cb2:	f0 e0       	ldi	r31, 0x00	; 0
    4cb4:	80 81       	ld	r24, Z
    4cb6:	81 60       	ori	r24, 0x01	; 1
    4cb8:	80 83       	st	Z, r24

	// set timer 2 prescale factor to 64
#if defined(TCCR2) && defined(CS22)
	sbi(TCCR2, CS22);
#elif defined(TCCR2B) && defined(CS22)
	sbi(TCCR2B, CS22);
    4cba:	e1 eb       	ldi	r30, 0xB1	; 177
    4cbc:	f0 e0       	ldi	r31, 0x00	; 0
    4cbe:	80 81       	ld	r24, Z
    4cc0:	84 60       	ori	r24, 0x04	; 4
    4cc2:	80 83       	st	Z, r24

	// configure timer 2 for phase correct pwm (8-bit)
#if defined(TCCR2) && defined(WGM20)
	sbi(TCCR2, WGM20);
#elif defined(TCCR2A) && defined(WGM20)
	sbi(TCCR2A, WGM20);
    4cc4:	e0 eb       	ldi	r30, 0xB0	; 176
    4cc6:	f0 e0       	ldi	r31, 0x00	; 0
    4cc8:	80 81       	ld	r24, Z
    4cca:	81 60       	ori	r24, 0x01	; 1
    4ccc:	80 83       	st	Z, r24
	#warning Timer 2 not finished (may not be present on this CPU)
#endif


#if defined(TCCR3B) && defined(CS31) && defined(WGM30)
	sbi(TCCR3B, CS31);		// set timer 3 prescale factor to 64
    4cce:	e1 e9       	ldi	r30, 0x91	; 145
    4cd0:	f0 e0       	ldi	r31, 0x00	; 0
    4cd2:	80 81       	ld	r24, Z
    4cd4:	82 60       	ori	r24, 0x02	; 2
    4cd6:	80 83       	st	Z, r24
	sbi(TCCR3B, CS30);
    4cd8:	80 81       	ld	r24, Z
    4cda:	81 60       	ori	r24, 0x01	; 1
    4cdc:	80 83       	st	Z, r24
	sbi(TCCR3A, WGM30);		// put timer 3 in 8-bit phase correct pwm mode
    4cde:	e0 e9       	ldi	r30, 0x90	; 144
    4ce0:	f0 e0       	ldi	r31, 0x00	; 0
    4ce2:	80 81       	ld	r24, Z
    4ce4:	81 60       	ori	r24, 0x01	; 1
    4ce6:	80 83       	st	Z, r24
	sbi(TCCR4D, WGM40);		// put timer 4 in phase- and frequency-correct PWM mode	
	sbi(TCCR4A, PWM4A);		// enable PWM mode for comparator OCR4A
	sbi(TCCR4C, PWM4D);		// enable PWM mode for comparator OCR4D
#else /* beginning of timer4 block for ATMEGA1280 and ATMEGA2560 */
#if defined(TCCR4B) && defined(CS41) && defined(WGM40)
	sbi(TCCR4B, CS41);		// set timer 4 prescale factor to 64
    4ce8:	e1 ea       	ldi	r30, 0xA1	; 161
    4cea:	f0 e0       	ldi	r31, 0x00	; 0
    4cec:	80 81       	ld	r24, Z
    4cee:	82 60       	ori	r24, 0x02	; 2
    4cf0:	80 83       	st	Z, r24
	sbi(TCCR4B, CS40);
    4cf2:	80 81       	ld	r24, Z
    4cf4:	81 60       	ori	r24, 0x01	; 1
    4cf6:	80 83       	st	Z, r24
	sbi(TCCR4A, WGM40);		// put timer 4 in 8-bit phase correct pwm mode
    4cf8:	e0 ea       	ldi	r30, 0xA0	; 160
    4cfa:	f0 e0       	ldi	r31, 0x00	; 0
    4cfc:	80 81       	ld	r24, Z
    4cfe:	81 60       	ori	r24, 0x01	; 1
    4d00:	80 83       	st	Z, r24
#endif
#endif /* end timer4 block for ATMEGA1280/2560 and similar */	

#if defined(TCCR5B) && defined(CS51) && defined(WGM50)
	sbi(TCCR5B, CS51);		// set timer 5 prescale factor to 64
    4d02:	e1 e2       	ldi	r30, 0x21	; 33
    4d04:	f1 e0       	ldi	r31, 0x01	; 1
    4d06:	80 81       	ld	r24, Z
    4d08:	82 60       	ori	r24, 0x02	; 2
    4d0a:	80 83       	st	Z, r24
	sbi(TCCR5B, CS50);
    4d0c:	80 81       	ld	r24, Z
    4d0e:	81 60       	ori	r24, 0x01	; 1
    4d10:	80 83       	st	Z, r24
	sbi(TCCR5A, WGM50);		// put timer 5 in 8-bit phase correct pwm mode
    4d12:	e0 e2       	ldi	r30, 0x20	; 32
    4d14:	f1 e0       	ldi	r31, 0x01	; 1
    4d16:	80 81       	ld	r24, Z
    4d18:	81 60       	ori	r24, 0x01	; 1
    4d1a:	80 83       	st	Z, r24
#if defined(ADCSRA)
	// set a2d prescale factor to 128
	// 16 MHz / 128 = 125 KHz, inside the desired 50-200 KHz range.
	// XXX: this will not work properly for other clock speeds, and
	// this code should use F_CPU to determine the prescale factor.
	sbi(ADCSRA, ADPS2);
    4d1c:	ea e7       	ldi	r30, 0x7A	; 122
    4d1e:	f0 e0       	ldi	r31, 0x00	; 0
    4d20:	80 81       	ld	r24, Z
    4d22:	84 60       	ori	r24, 0x04	; 4
    4d24:	80 83       	st	Z, r24
	sbi(ADCSRA, ADPS1);
    4d26:	80 81       	ld	r24, Z
    4d28:	82 60       	ori	r24, 0x02	; 2
    4d2a:	80 83       	st	Z, r24
	sbi(ADCSRA, ADPS0);
    4d2c:	80 81       	ld	r24, Z
    4d2e:	81 60       	ori	r24, 0x01	; 1
    4d30:	80 83       	st	Z, r24

	// enable a2d conversions
	sbi(ADCSRA, ADEN);
    4d32:	80 81       	ld	r24, Z
    4d34:	80 68       	ori	r24, 0x80	; 128
    4d36:	80 83       	st	Z, r24
	// here so they can be used as normal digital i/o; they will be
	// reconnected in Serial.begin()
#if defined(UCSRB)
	UCSRB = 0;
#elif defined(UCSR0B)
	UCSR0B = 0;
    4d38:	10 92 c1 00 	sts	0x00C1, r1
    4d3c:	08 95       	ret

00004d3e <turnOffPWM>:
//
//static inline void turnOffPWM(uint8_t timer) __attribute__ ((always_inline));
//static inline void turnOffPWM(uint8_t timer)
static void turnOffPWM(uint8_t timer)
{
	switch (timer)
    4d3e:	90 e0       	ldi	r25, 0x00	; 0
    4d40:	fc 01       	movw	r30, r24
    4d42:	31 97       	sbiw	r30, 0x01	; 1
    4d44:	e1 31       	cpi	r30, 0x11	; 17
    4d46:	f1 05       	cpc	r31, r1
    4d48:	08 f0       	brcs	.+2      	; 0x4d4c <turnOffPWM+0xe>
    4d4a:	58 c0       	rjmp	.+176    	; 0x4dfc <turnOffPWM+0xbe>
    4d4c:	e8 56       	subi	r30, 0x68	; 104
    4d4e:	ff 4f       	sbci	r31, 0xFF	; 255
    4d50:	fa c0       	rjmp	.+500    	; 0x4f46 <__tablejump2__>
	{
		#if defined(TCCR1A) && defined(COM1A1)
		case TIMER1A:   cbi(TCCR1A, COM1A1);    break;
    4d52:	e0 e8       	ldi	r30, 0x80	; 128
    4d54:	f0 e0       	ldi	r31, 0x00	; 0
    4d56:	80 81       	ld	r24, Z
    4d58:	8f 77       	andi	r24, 0x7F	; 127
    4d5a:	80 83       	st	Z, r24
    4d5c:	08 95       	ret
		#endif
		#if defined(TCCR1A) && defined(COM1B1)
		case TIMER1B:   cbi(TCCR1A, COM1B1);    break;
    4d5e:	e0 e8       	ldi	r30, 0x80	; 128
    4d60:	f0 e0       	ldi	r31, 0x00	; 0
    4d62:	80 81       	ld	r24, Z
    4d64:	8f 7d       	andi	r24, 0xDF	; 223
    4d66:	80 83       	st	Z, r24
    4d68:	08 95       	ret
		#if defined(TCCR2) && defined(COM21)
		case  TIMER2:   cbi(TCCR2, COM21);      break;
		#endif
		
		#if defined(TCCR0A) && defined(COM0A1)
		case  TIMER0A:  cbi(TCCR0A, COM0A1);    break;
    4d6a:	84 b5       	in	r24, 0x24	; 36
    4d6c:	8f 77       	andi	r24, 0x7F	; 127
    4d6e:	84 bd       	out	0x24, r24	; 36
    4d70:	08 95       	ret
		#endif
		
		#if defined(TIMER0B) && defined(COM0B1)
		case  TIMER0B:  cbi(TCCR0A, COM0B1);    break;
    4d72:	84 b5       	in	r24, 0x24	; 36
    4d74:	8f 7d       	andi	r24, 0xDF	; 223
    4d76:	84 bd       	out	0x24, r24	; 36
    4d78:	08 95       	ret
		#endif
		#if defined(TCCR2A) && defined(COM2A1)
		case  TIMER2A:  cbi(TCCR2A, COM2A1);    break;
    4d7a:	e0 eb       	ldi	r30, 0xB0	; 176
    4d7c:	f0 e0       	ldi	r31, 0x00	; 0
    4d7e:	80 81       	ld	r24, Z
    4d80:	8f 77       	andi	r24, 0x7F	; 127
    4d82:	80 83       	st	Z, r24
    4d84:	08 95       	ret
		#endif
		#if defined(TCCR2A) && defined(COM2B1)
		case  TIMER2B:  cbi(TCCR2A, COM2B1);    break;
    4d86:	e0 eb       	ldi	r30, 0xB0	; 176
    4d88:	f0 e0       	ldi	r31, 0x00	; 0
    4d8a:	80 81       	ld	r24, Z
    4d8c:	8f 7d       	andi	r24, 0xDF	; 223
    4d8e:	80 83       	st	Z, r24
    4d90:	08 95       	ret
		#endif
		
		#if defined(TCCR3A) && defined(COM3A1)
		case  TIMER3A:  cbi(TCCR3A, COM3A1);    break;
    4d92:	e0 e9       	ldi	r30, 0x90	; 144
    4d94:	f0 e0       	ldi	r31, 0x00	; 0
    4d96:	80 81       	ld	r24, Z
    4d98:	8f 77       	andi	r24, 0x7F	; 127
    4d9a:	80 83       	st	Z, r24
    4d9c:	08 95       	ret
		#endif
		#if defined(TCCR3A) && defined(COM3B1)
		case  TIMER3B:  cbi(TCCR3A, COM3B1);    break;
    4d9e:	e0 e9       	ldi	r30, 0x90	; 144
    4da0:	f0 e0       	ldi	r31, 0x00	; 0
    4da2:	80 81       	ld	r24, Z
    4da4:	8f 7d       	andi	r24, 0xDF	; 223
    4da6:	80 83       	st	Z, r24
    4da8:	08 95       	ret
		#endif
		#if defined(TCCR3A) && defined(COM3C1)
		case  TIMER3C:  cbi(TCCR3A, COM3C1);    break;
    4daa:	e0 e9       	ldi	r30, 0x90	; 144
    4dac:	f0 e0       	ldi	r31, 0x00	; 0
    4dae:	80 81       	ld	r24, Z
    4db0:	87 7f       	andi	r24, 0xF7	; 247
    4db2:	80 83       	st	Z, r24
    4db4:	08 95       	ret
		#endif

		#if defined(TCCR4A) && defined(COM4A1)
		case  TIMER4A:  cbi(TCCR4A, COM4A1);    break;
    4db6:	e0 ea       	ldi	r30, 0xA0	; 160
    4db8:	f0 e0       	ldi	r31, 0x00	; 0
    4dba:	80 81       	ld	r24, Z
    4dbc:	8f 77       	andi	r24, 0x7F	; 127
    4dbe:	80 83       	st	Z, r24
    4dc0:	08 95       	ret
		#endif					
		#if defined(TCCR4A) && defined(COM4B1)
		case  TIMER4B:  cbi(TCCR4A, COM4B1);    break;
    4dc2:	e0 ea       	ldi	r30, 0xA0	; 160
    4dc4:	f0 e0       	ldi	r31, 0x00	; 0
    4dc6:	80 81       	ld	r24, Z
    4dc8:	8f 7d       	andi	r24, 0xDF	; 223
    4dca:	80 83       	st	Z, r24
    4dcc:	08 95       	ret
		#endif
		#if defined(TCCR4A) && defined(COM4C1)
		case  TIMER4C:  cbi(TCCR4A, COM4C1);    break;
    4dce:	e0 ea       	ldi	r30, 0xA0	; 160
    4dd0:	f0 e0       	ldi	r31, 0x00	; 0
    4dd2:	80 81       	ld	r24, Z
    4dd4:	87 7f       	andi	r24, 0xF7	; 247
    4dd6:	80 83       	st	Z, r24
    4dd8:	08 95       	ret
		#if defined(TCCR4C) && defined(COM4D1)
		case TIMER4D:	cbi(TCCR4C, COM4D1);	break;
		#endif			
			
		#if defined(TCCR5A)
		case  TIMER5A:  cbi(TCCR5A, COM5A1);    break;
    4dda:	e0 e2       	ldi	r30, 0x20	; 32
    4ddc:	f1 e0       	ldi	r31, 0x01	; 1
    4dde:	80 81       	ld	r24, Z
    4de0:	8f 77       	andi	r24, 0x7F	; 127
    4de2:	80 83       	st	Z, r24
    4de4:	08 95       	ret
		case  TIMER5B:  cbi(TCCR5A, COM5B1);    break;
    4de6:	e0 e2       	ldi	r30, 0x20	; 32
    4de8:	f1 e0       	ldi	r31, 0x01	; 1
    4dea:	80 81       	ld	r24, Z
    4dec:	8f 7d       	andi	r24, 0xDF	; 223
    4dee:	80 83       	st	Z, r24
    4df0:	08 95       	ret
		case  TIMER5C:  cbi(TCCR5A, COM5C1);    break;
    4df2:	e0 e2       	ldi	r30, 0x20	; 32
    4df4:	f1 e0       	ldi	r31, 0x01	; 1
    4df6:	80 81       	ld	r24, Z
    4df8:	87 7f       	andi	r24, 0xF7	; 247
    4dfa:	80 83       	st	Z, r24
    4dfc:	08 95       	ret

00004dfe <pinMode>:
#define ARDUINO_MAIN
#include "wiring_private.h"
#include "pins_arduino.h"

void pinMode(uint8_t pin, uint8_t mode)
{
    4dfe:	cf 93       	push	r28
    4e00:	df 93       	push	r29
	uint8_t bit = digitalPinToBitMask(pin);
    4e02:	90 e0       	ldi	r25, 0x00	; 0
    4e04:	fc 01       	movw	r30, r24
    4e06:	e0 52       	subi	r30, 0x20	; 32
    4e08:	fe 4f       	sbci	r31, 0xFE	; 254
    4e0a:	24 91       	lpm	r18, Z
	uint8_t port = digitalPinToPort(pin);
    4e0c:	fc 01       	movw	r30, r24
    4e0e:	ea 5d       	subi	r30, 0xDA	; 218
    4e10:	fd 4f       	sbci	r31, 0xFD	; 253
    4e12:	84 91       	lpm	r24, Z
	volatile uint8_t *reg, *out;

	if (port == NOT_A_PIN) return;
    4e14:	88 23       	and	r24, r24
    4e16:	71 f1       	breq	.+92     	; 0x4e74 <pinMode+0x76>

	// JWS: can I let the optimizer do this?
	reg = portModeRegister(port);
    4e18:	90 e0       	ldi	r25, 0x00	; 0
    4e1a:	88 0f       	add	r24, r24
    4e1c:	99 1f       	adc	r25, r25
    4e1e:	fc 01       	movw	r30, r24
    4e20:	e0 56       	subi	r30, 0x60	; 96
    4e22:	fd 4f       	sbci	r31, 0xFD	; 253
    4e24:	a5 91       	lpm	r26, Z+
    4e26:	b4 91       	lpm	r27, Z
	out = portOutputRegister(port);
    4e28:	8a 57       	subi	r24, 0x7A	; 122
    4e2a:	9d 4f       	sbci	r25, 0xFD	; 253
    4e2c:	fc 01       	movw	r30, r24
    4e2e:	c5 91       	lpm	r28, Z+
    4e30:	d4 91       	lpm	r29, Z

	if (mode == INPUT) { 
    4e32:	61 11       	cpse	r22, r1
    4e34:	0b c0       	rjmp	.+22     	; 0x4e4c <pinMode+0x4e>
		uint8_t oldSREG = SREG;
    4e36:	8f b7       	in	r24, 0x3f	; 63
                cli();
    4e38:	f8 94       	cli
		*reg &= ~bit;
    4e3a:	9c 91       	ld	r25, X
    4e3c:	20 95       	com	r18
    4e3e:	92 23       	and	r25, r18
    4e40:	9c 93       	st	X, r25
		*out &= ~bit;
    4e42:	e8 81       	ld	r30, Y
    4e44:	2e 23       	and	r18, r30
    4e46:	28 83       	st	Y, r18
		SREG = oldSREG;
    4e48:	8f bf       	out	0x3f, r24	; 63
    4e4a:	14 c0       	rjmp	.+40     	; 0x4e74 <pinMode+0x76>
	} else if (mode == INPUT_PULLUP) {
    4e4c:	62 30       	cpi	r22, 0x02	; 2
    4e4e:	61 f4       	brne	.+24     	; 0x4e68 <pinMode+0x6a>
		uint8_t oldSREG = SREG;
    4e50:	8f b7       	in	r24, 0x3f	; 63
                cli();
    4e52:	f8 94       	cli
		*reg &= ~bit;
    4e54:	3c 91       	ld	r19, X
    4e56:	92 2f       	mov	r25, r18
    4e58:	90 95       	com	r25
    4e5a:	93 23       	and	r25, r19
    4e5c:	9c 93       	st	X, r25
		*out |= bit;
    4e5e:	e8 81       	ld	r30, Y
    4e60:	2e 2b       	or	r18, r30
    4e62:	28 83       	st	Y, r18
		SREG = oldSREG;
    4e64:	8f bf       	out	0x3f, r24	; 63
    4e66:	06 c0       	rjmp	.+12     	; 0x4e74 <pinMode+0x76>
	} else {
		uint8_t oldSREG = SREG;
    4e68:	8f b7       	in	r24, 0x3f	; 63
                cli();
    4e6a:	f8 94       	cli
		*reg |= bit;
    4e6c:	ec 91       	ld	r30, X
    4e6e:	2e 2b       	or	r18, r30
    4e70:	2c 93       	st	X, r18
		SREG = oldSREG;
    4e72:	8f bf       	out	0x3f, r24	; 63
	}
}
    4e74:	df 91       	pop	r29
    4e76:	cf 91       	pop	r28
    4e78:	08 95       	ret

00004e7a <digitalWrite>:
		#endif
	}
}

void digitalWrite(uint8_t pin, uint8_t val)
{
    4e7a:	1f 93       	push	r17
    4e7c:	cf 93       	push	r28
    4e7e:	df 93       	push	r29
    4e80:	c6 2f       	mov	r28, r22
	uint8_t timer = digitalPinToTimer(pin);
    4e82:	28 2f       	mov	r18, r24
    4e84:	30 e0       	ldi	r19, 0x00	; 0
    4e86:	f9 01       	movw	r30, r18
    4e88:	e6 56       	subi	r30, 0x66	; 102
    4e8a:	fe 4f       	sbci	r31, 0xFE	; 254
    4e8c:	84 91       	lpm	r24, Z
	uint8_t bit = digitalPinToBitMask(pin);
    4e8e:	f9 01       	movw	r30, r18
    4e90:	e0 52       	subi	r30, 0x20	; 32
    4e92:	fe 4f       	sbci	r31, 0xFE	; 254
    4e94:	14 91       	lpm	r17, Z
	uint8_t port = digitalPinToPort(pin);
    4e96:	f9 01       	movw	r30, r18
    4e98:	ea 5d       	subi	r30, 0xDA	; 218
    4e9a:	fd 4f       	sbci	r31, 0xFD	; 253
    4e9c:	d4 91       	lpm	r29, Z
	volatile uint8_t *out;

	if (port == NOT_A_PIN) return;
    4e9e:	dd 23       	and	r29, r29
    4ea0:	c1 f0       	breq	.+48     	; 0x4ed2 <digitalWrite+0x58>

	// If the pin that support PWM output, we need to turn it off
	// before doing a digital write.
	if (timer != NOT_ON_TIMER) turnOffPWM(timer);
    4ea2:	81 11       	cpse	r24, r1
    4ea4:	4c df       	rcall	.-360    	; 0x4d3e <turnOffPWM>

	out = portOutputRegister(port);
    4ea6:	2d 2f       	mov	r18, r29
    4ea8:	30 e0       	ldi	r19, 0x00	; 0
    4eaa:	f9 01       	movw	r30, r18
    4eac:	ee 0f       	add	r30, r30
    4eae:	ff 1f       	adc	r31, r31
    4eb0:	ea 57       	subi	r30, 0x7A	; 122
    4eb2:	fd 4f       	sbci	r31, 0xFD	; 253
    4eb4:	a5 91       	lpm	r26, Z+
    4eb6:	b4 91       	lpm	r27, Z

	uint8_t oldSREG = SREG;
    4eb8:	8f b7       	in	r24, 0x3f	; 63
	cli();
    4eba:	f8 94       	cli

	if (val == LOW) {
    4ebc:	c1 11       	cpse	r28, r1
    4ebe:	05 c0       	rjmp	.+10     	; 0x4eca <digitalWrite+0x50>
		*out &= ~bit;
    4ec0:	ec 91       	ld	r30, X
    4ec2:	10 95       	com	r17
    4ec4:	1e 23       	and	r17, r30
    4ec6:	1c 93       	st	X, r17
    4ec8:	03 c0       	rjmp	.+6      	; 0x4ed0 <digitalWrite+0x56>
	} else {
		*out |= bit;
    4eca:	ec 91       	ld	r30, X
    4ecc:	1e 2b       	or	r17, r30
    4ece:	1c 93       	st	X, r17
	}

	SREG = oldSREG;
    4ed0:	8f bf       	out	0x3f, r24	; 63
}
    4ed2:	df 91       	pop	r29
    4ed4:	cf 91       	pop	r28
    4ed6:	1f 91       	pop	r17
    4ed8:	08 95       	ret

00004eda <__udivmodhi4>:
    4eda:	aa 1b       	sub	r26, r26
    4edc:	bb 1b       	sub	r27, r27
    4ede:	51 e1       	ldi	r21, 0x11	; 17
    4ee0:	07 c0       	rjmp	.+14     	; 0x4ef0 <__udivmodhi4_ep>

00004ee2 <__udivmodhi4_loop>:
    4ee2:	aa 1f       	adc	r26, r26
    4ee4:	bb 1f       	adc	r27, r27
    4ee6:	a6 17       	cp	r26, r22
    4ee8:	b7 07       	cpc	r27, r23
    4eea:	10 f0       	brcs	.+4      	; 0x4ef0 <__udivmodhi4_ep>
    4eec:	a6 1b       	sub	r26, r22
    4eee:	b7 0b       	sbc	r27, r23

00004ef0 <__udivmodhi4_ep>:
    4ef0:	88 1f       	adc	r24, r24
    4ef2:	99 1f       	adc	r25, r25
    4ef4:	5a 95       	dec	r21
    4ef6:	a9 f7       	brne	.-22     	; 0x4ee2 <__udivmodhi4_loop>
    4ef8:	80 95       	com	r24
    4efa:	90 95       	com	r25
    4efc:	bc 01       	movw	r22, r24
    4efe:	cd 01       	movw	r24, r26
    4f00:	08 95       	ret

00004f02 <__udivmodsi4>:
    4f02:	a1 e2       	ldi	r26, 0x21	; 33
    4f04:	1a 2e       	mov	r1, r26
    4f06:	aa 1b       	sub	r26, r26
    4f08:	bb 1b       	sub	r27, r27
    4f0a:	fd 01       	movw	r30, r26
    4f0c:	0d c0       	rjmp	.+26     	; 0x4f28 <__udivmodsi4_ep>

00004f0e <__udivmodsi4_loop>:
    4f0e:	aa 1f       	adc	r26, r26
    4f10:	bb 1f       	adc	r27, r27
    4f12:	ee 1f       	adc	r30, r30
    4f14:	ff 1f       	adc	r31, r31
    4f16:	a2 17       	cp	r26, r18
    4f18:	b3 07       	cpc	r27, r19
    4f1a:	e4 07       	cpc	r30, r20
    4f1c:	f5 07       	cpc	r31, r21
    4f1e:	20 f0       	brcs	.+8      	; 0x4f28 <__udivmodsi4_ep>
    4f20:	a2 1b       	sub	r26, r18
    4f22:	b3 0b       	sbc	r27, r19
    4f24:	e4 0b       	sbc	r30, r20
    4f26:	f5 0b       	sbc	r31, r21

00004f28 <__udivmodsi4_ep>:
    4f28:	66 1f       	adc	r22, r22
    4f2a:	77 1f       	adc	r23, r23
    4f2c:	88 1f       	adc	r24, r24
    4f2e:	99 1f       	adc	r25, r25
    4f30:	1a 94       	dec	r1
    4f32:	69 f7       	brne	.-38     	; 0x4f0e <__udivmodsi4_loop>
    4f34:	60 95       	com	r22
    4f36:	70 95       	com	r23
    4f38:	80 95       	com	r24
    4f3a:	90 95       	com	r25
    4f3c:	9b 01       	movw	r18, r22
    4f3e:	ac 01       	movw	r20, r24
    4f40:	bd 01       	movw	r22, r26
    4f42:	cf 01       	movw	r24, r30
    4f44:	08 95       	ret

00004f46 <__tablejump2__>:
    4f46:	ee 0f       	add	r30, r30
    4f48:	ff 1f       	adc	r31, r31

00004f4a <__tablejump__>:
    4f4a:	05 90       	lpm	r0, Z+
    4f4c:	f4 91       	lpm	r31, Z
    4f4e:	e0 2d       	mov	r30, r0
    4f50:	19 94       	eijmp

00004f52 <__tablejump_elpm__>:
    4f52:	07 90       	elpm	r0, Z+
    4f54:	f6 91       	elpm	r31, Z
    4f56:	e0 2d       	mov	r30, r0
    4f58:	19 94       	eijmp

00004f5a <dtostrf>:
    4f5a:	ef 92       	push	r14
    4f5c:	0f 93       	push	r16
    4f5e:	1f 93       	push	r17
    4f60:	cf 93       	push	r28
    4f62:	df 93       	push	r29
    4f64:	e8 01       	movw	r28, r16
    4f66:	47 ff       	sbrs	r20, 7
    4f68:	02 c0       	rjmp	.+4      	; 0x4f6e <dtostrf+0x14>
    4f6a:	34 e1       	ldi	r19, 0x14	; 20
    4f6c:	01 c0       	rjmp	.+2      	; 0x4f70 <dtostrf+0x16>
    4f6e:	34 e0       	ldi	r19, 0x04	; 4
    4f70:	e4 2f       	mov	r30, r20
    4f72:	ff 27       	eor	r31, r31
    4f74:	e7 fd       	sbrc	r30, 7
    4f76:	f0 95       	com	r31
    4f78:	f7 ff       	sbrs	r31, 7
    4f7a:	03 c0       	rjmp	.+6      	; 0x4f82 <dtostrf+0x28>
    4f7c:	f1 95       	neg	r31
    4f7e:	e1 95       	neg	r30
    4f80:	f1 09       	sbc	r31, r1
    4f82:	e3 2e       	mov	r14, r19
    4f84:	02 2f       	mov	r16, r18
    4f86:	2e 2f       	mov	r18, r30
    4f88:	ae 01       	movw	r20, r28
    4f8a:	51 d0       	rcall	.+162    	; 0x502e <dtoa_prf>
    4f8c:	ce 01       	movw	r24, r28
    4f8e:	df 91       	pop	r29
    4f90:	cf 91       	pop	r28
    4f92:	1f 91       	pop	r17
    4f94:	0f 91       	pop	r16
    4f96:	ef 90       	pop	r14
    4f98:	08 95       	ret

00004f9a <memcpy>:
    4f9a:	fb 01       	movw	r30, r22
    4f9c:	dc 01       	movw	r26, r24
    4f9e:	02 c0       	rjmp	.+4      	; 0x4fa4 <memcpy+0xa>
    4fa0:	01 90       	ld	r0, Z+
    4fa2:	0d 92       	st	X+, r0
    4fa4:	41 50       	subi	r20, 0x01	; 1
    4fa6:	50 40       	sbci	r21, 0x00	; 0
    4fa8:	d8 f7       	brcc	.-10     	; 0x4fa0 <memcpy+0x6>
    4faa:	08 95       	ret

00004fac <strcat>:
    4fac:	fb 01       	movw	r30, r22
    4fae:	dc 01       	movw	r26, r24
    4fb0:	0d 90       	ld	r0, X+
    4fb2:	00 20       	and	r0, r0
    4fb4:	e9 f7       	brne	.-6      	; 0x4fb0 <strcat+0x4>
    4fb6:	11 97       	sbiw	r26, 0x01	; 1
    4fb8:	01 90       	ld	r0, Z+
    4fba:	0d 92       	st	X+, r0
    4fbc:	00 20       	and	r0, r0
    4fbe:	e1 f7       	brne	.-8      	; 0x4fb8 <strcat+0xc>
    4fc0:	08 95       	ret

00004fc2 <strcpy>:
    4fc2:	fb 01       	movw	r30, r22
    4fc4:	dc 01       	movw	r26, r24
    4fc6:	01 90       	ld	r0, Z+
    4fc8:	0d 92       	st	X+, r0
    4fca:	00 20       	and	r0, r0
    4fcc:	e1 f7       	brne	.-8      	; 0x4fc6 <strcpy+0x4>
    4fce:	08 95       	ret

00004fd0 <__ltoa_ncheck>:
    4fd0:	bb 27       	eor	r27, r27
    4fd2:	2a 30       	cpi	r18, 0x0A	; 10
    4fd4:	51 f4       	brne	.+20     	; 0x4fea <__ltoa_ncheck+0x1a>
    4fd6:	99 23       	and	r25, r25
    4fd8:	42 f4       	brpl	.+16     	; 0x4fea <__ltoa_ncheck+0x1a>
    4fda:	bd e2       	ldi	r27, 0x2D	; 45
    4fdc:	90 95       	com	r25
    4fde:	80 95       	com	r24
    4fe0:	70 95       	com	r23
    4fe2:	61 95       	neg	r22
    4fe4:	7f 4f       	sbci	r23, 0xFF	; 255
    4fe6:	8f 4f       	sbci	r24, 0xFF	; 255
    4fe8:	9f 4f       	sbci	r25, 0xFF	; 255
    4fea:	01 c0       	rjmp	.+2      	; 0x4fee <__ultoa_common>

00004fec <__ultoa_ncheck>:
    4fec:	bb 27       	eor	r27, r27

00004fee <__ultoa_common>:
    4fee:	fa 01       	movw	r30, r20
    4ff0:	a6 2f       	mov	r26, r22
    4ff2:	62 17       	cp	r22, r18
    4ff4:	71 05       	cpc	r23, r1
    4ff6:	81 05       	cpc	r24, r1
    4ff8:	91 05       	cpc	r25, r1
    4ffa:	33 0b       	sbc	r19, r19
    4ffc:	30 fb       	bst	r19, 0
    4ffe:	66 f0       	brts	.+24     	; 0x5018 <__ultoa_common+0x2a>
    5000:	aa 27       	eor	r26, r26
    5002:	66 0f       	add	r22, r22
    5004:	77 1f       	adc	r23, r23
    5006:	88 1f       	adc	r24, r24
    5008:	99 1f       	adc	r25, r25
    500a:	aa 1f       	adc	r26, r26
    500c:	a2 17       	cp	r26, r18
    500e:	10 f0       	brcs	.+4      	; 0x5014 <__ultoa_common+0x26>
    5010:	a2 1b       	sub	r26, r18
    5012:	63 95       	inc	r22
    5014:	38 50       	subi	r19, 0x08	; 8
    5016:	a9 f7       	brne	.-22     	; 0x5002 <__ultoa_common+0x14>
    5018:	a0 5d       	subi	r26, 0xD0	; 208
    501a:	aa 33       	cpi	r26, 0x3A	; 58
    501c:	08 f0       	brcs	.+2      	; 0x5020 <__ultoa_common+0x32>
    501e:	a9 5d       	subi	r26, 0xD9	; 217
    5020:	a1 93       	st	Z+, r26
    5022:	36 f7       	brtc	.-52     	; 0x4ff0 <__ultoa_common+0x2>
    5024:	b1 11       	cpse	r27, r1
    5026:	b1 93       	st	Z+, r27
    5028:	10 82       	st	Z, r1
    502a:	ca 01       	movw	r24, r20
    502c:	55 c2       	rjmp	.+1194   	; 0x54d8 <strrev>

0000502e <dtoa_prf>:
    502e:	6f 92       	push	r6
    5030:	7f 92       	push	r7
    5032:	9f 92       	push	r9
    5034:	af 92       	push	r10
    5036:	bf 92       	push	r11
    5038:	cf 92       	push	r12
    503a:	df 92       	push	r13
    503c:	ef 92       	push	r14
    503e:	ff 92       	push	r15
    5040:	0f 93       	push	r16
    5042:	1f 93       	push	r17
    5044:	cf 93       	push	r28
    5046:	df 93       	push	r29
    5048:	cd b7       	in	r28, 0x3d	; 61
    504a:	de b7       	in	r29, 0x3e	; 62
    504c:	29 97       	sbiw	r28, 0x09	; 9
    504e:	0f b6       	in	r0, 0x3f	; 63
    5050:	f8 94       	cli
    5052:	de bf       	out	0x3e, r29	; 62
    5054:	0f be       	out	0x3f, r0	; 63
    5056:	cd bf       	out	0x3d, r28	; 61
    5058:	6a 01       	movw	r12, r20
    505a:	b2 2e       	mov	r11, r18
    505c:	10 2f       	mov	r17, r16
    505e:	0c 33       	cpi	r16, 0x3C	; 60
    5060:	20 f4       	brcc	.+8      	; 0x506a <dtoa_prf+0x3c>
    5062:	ff 24       	eor	r15, r15
    5064:	f3 94       	inc	r15
    5066:	f0 0e       	add	r15, r16
    5068:	02 c0       	rjmp	.+4      	; 0x506e <dtoa_prf+0x40>
    506a:	4c e3       	ldi	r20, 0x3C	; 60
    506c:	f4 2e       	mov	r15, r20
    506e:	0f 2d       	mov	r16, r15
    5070:	27 e0       	ldi	r18, 0x07	; 7
    5072:	ae 01       	movw	r20, r28
    5074:	4f 5f       	subi	r20, 0xFF	; 255
    5076:	5f 4f       	sbci	r21, 0xFF	; 255
    5078:	57 d1       	rcall	.+686    	; 0x5328 <__ftoa_engine>
    507a:	79 81       	ldd	r23, Y+1	; 0x01
    507c:	27 2f       	mov	r18, r23
    507e:	29 70       	andi	r18, 0x09	; 9
    5080:	21 30       	cpi	r18, 0x01	; 1
    5082:	31 f0       	breq	.+12     	; 0x5090 <dtoa_prf+0x62>
    5084:	e1 fc       	sbrc	r14, 1
    5086:	06 c0       	rjmp	.+12     	; 0x5094 <dtoa_prf+0x66>
    5088:	e0 fc       	sbrc	r14, 0
    508a:	06 c0       	rjmp	.+12     	; 0x5098 <dtoa_prf+0x6a>
    508c:	60 e0       	ldi	r22, 0x00	; 0
    508e:	05 c0       	rjmp	.+10     	; 0x509a <dtoa_prf+0x6c>
    5090:	6d e2       	ldi	r22, 0x2D	; 45
    5092:	03 c0       	rjmp	.+6      	; 0x509a <dtoa_prf+0x6c>
    5094:	6b e2       	ldi	r22, 0x2B	; 43
    5096:	01 c0       	rjmp	.+2      	; 0x509a <dtoa_prf+0x6c>
    5098:	60 e2       	ldi	r22, 0x20	; 32
    509a:	ae 2d       	mov	r26, r14
    509c:	a0 71       	andi	r26, 0x10	; 16
    509e:	73 ff       	sbrs	r23, 3
    50a0:	36 c0       	rjmp	.+108    	; 0x510e <dtoa_prf+0xe0>
    50a2:	66 23       	and	r22, r22
    50a4:	11 f0       	breq	.+4      	; 0x50aa <dtoa_prf+0x7c>
    50a6:	84 e0       	ldi	r24, 0x04	; 4
    50a8:	01 c0       	rjmp	.+2      	; 0x50ac <dtoa_prf+0x7e>
    50aa:	83 e0       	ldi	r24, 0x03	; 3
    50ac:	8b 15       	cp	r24, r11
    50ae:	10 f4       	brcc	.+4      	; 0x50b4 <dtoa_prf+0x86>
    50b0:	b8 1a       	sub	r11, r24
    50b2:	01 c0       	rjmp	.+2      	; 0x50b6 <dtoa_prf+0x88>
    50b4:	b1 2c       	mov	r11, r1
    50b6:	a1 11       	cpse	r26, r1
    50b8:	0b c0       	rjmp	.+22     	; 0x50d0 <dtoa_prf+0xa2>
    50ba:	f6 01       	movw	r30, r12
    50bc:	8b 2d       	mov	r24, r11
    50be:	90 e2       	ldi	r25, 0x20	; 32
    50c0:	88 23       	and	r24, r24
    50c2:	19 f0       	breq	.+6      	; 0x50ca <dtoa_prf+0x9c>
    50c4:	91 93       	st	Z+, r25
    50c6:	81 50       	subi	r24, 0x01	; 1
    50c8:	fb cf       	rjmp	.-10     	; 0x50c0 <dtoa_prf+0x92>
    50ca:	cb 0c       	add	r12, r11
    50cc:	d1 1c       	adc	r13, r1
    50ce:	b1 2c       	mov	r11, r1
    50d0:	66 23       	and	r22, r22
    50d2:	31 f0       	breq	.+12     	; 0x50e0 <dtoa_prf+0xb2>
    50d4:	f6 01       	movw	r30, r12
    50d6:	60 83       	st	Z, r22
    50d8:	96 01       	movw	r18, r12
    50da:	2f 5f       	subi	r18, 0xFF	; 255
    50dc:	3f 4f       	sbci	r19, 0xFF	; 255
    50de:	69 01       	movw	r12, r18
    50e0:	c6 01       	movw	r24, r12
    50e2:	03 96       	adiw	r24, 0x03	; 3
    50e4:	e2 fe       	sbrs	r14, 2
    50e6:	05 c0       	rjmp	.+10     	; 0x50f2 <dtoa_prf+0xc4>
    50e8:	2e e4       	ldi	r18, 0x4E	; 78
    50ea:	f6 01       	movw	r30, r12
    50ec:	20 83       	st	Z, r18
    50ee:	31 e4       	ldi	r19, 0x41	; 65
    50f0:	04 c0       	rjmp	.+8      	; 0x50fa <dtoa_prf+0xcc>
    50f2:	2e e6       	ldi	r18, 0x6E	; 110
    50f4:	f6 01       	movw	r30, r12
    50f6:	20 83       	st	Z, r18
    50f8:	31 e6       	ldi	r19, 0x61	; 97
    50fa:	31 83       	std	Z+1, r19	; 0x01
    50fc:	22 83       	std	Z+2, r18	; 0x02
    50fe:	fc 01       	movw	r30, r24
    5100:	2b 2d       	mov	r18, r11
    5102:	30 e2       	ldi	r19, 0x20	; 32
    5104:	22 23       	and	r18, r18
    5106:	f1 f1       	breq	.+124    	; 0x5184 <dtoa_prf+0x156>
    5108:	31 93       	st	Z+, r19
    510a:	21 50       	subi	r18, 0x01	; 1
    510c:	fb cf       	rjmp	.-10     	; 0x5104 <dtoa_prf+0xd6>
    510e:	72 ff       	sbrs	r23, 2
    5110:	40 c0       	rjmp	.+128    	; 0x5192 <dtoa_prf+0x164>
    5112:	66 23       	and	r22, r22
    5114:	11 f0       	breq	.+4      	; 0x511a <dtoa_prf+0xec>
    5116:	84 e0       	ldi	r24, 0x04	; 4
    5118:	01 c0       	rjmp	.+2      	; 0x511c <dtoa_prf+0xee>
    511a:	83 e0       	ldi	r24, 0x03	; 3
    511c:	8b 15       	cp	r24, r11
    511e:	10 f4       	brcc	.+4      	; 0x5124 <dtoa_prf+0xf6>
    5120:	b8 1a       	sub	r11, r24
    5122:	01 c0       	rjmp	.+2      	; 0x5126 <dtoa_prf+0xf8>
    5124:	b1 2c       	mov	r11, r1
    5126:	a1 11       	cpse	r26, r1
    5128:	0b c0       	rjmp	.+22     	; 0x5140 <dtoa_prf+0x112>
    512a:	f6 01       	movw	r30, r12
    512c:	8b 2d       	mov	r24, r11
    512e:	90 e2       	ldi	r25, 0x20	; 32
    5130:	88 23       	and	r24, r24
    5132:	19 f0       	breq	.+6      	; 0x513a <dtoa_prf+0x10c>
    5134:	91 93       	st	Z+, r25
    5136:	81 50       	subi	r24, 0x01	; 1
    5138:	fb cf       	rjmp	.-10     	; 0x5130 <dtoa_prf+0x102>
    513a:	cb 0c       	add	r12, r11
    513c:	d1 1c       	adc	r13, r1
    513e:	b1 2c       	mov	r11, r1
    5140:	66 23       	and	r22, r22
    5142:	31 f0       	breq	.+12     	; 0x5150 <dtoa_prf+0x122>
    5144:	f6 01       	movw	r30, r12
    5146:	60 83       	st	Z, r22
    5148:	96 01       	movw	r18, r12
    514a:	2f 5f       	subi	r18, 0xFF	; 255
    514c:	3f 4f       	sbci	r19, 0xFF	; 255
    514e:	69 01       	movw	r12, r18
    5150:	c6 01       	movw	r24, r12
    5152:	03 96       	adiw	r24, 0x03	; 3
    5154:	e2 fe       	sbrs	r14, 2
    5156:	07 c0       	rjmp	.+14     	; 0x5166 <dtoa_prf+0x138>
    5158:	29 e4       	ldi	r18, 0x49	; 73
    515a:	f6 01       	movw	r30, r12
    515c:	20 83       	st	Z, r18
    515e:	2e e4       	ldi	r18, 0x4E	; 78
    5160:	21 83       	std	Z+1, r18	; 0x01
    5162:	26 e4       	ldi	r18, 0x46	; 70
    5164:	06 c0       	rjmp	.+12     	; 0x5172 <dtoa_prf+0x144>
    5166:	29 e6       	ldi	r18, 0x69	; 105
    5168:	f6 01       	movw	r30, r12
    516a:	20 83       	st	Z, r18
    516c:	2e e6       	ldi	r18, 0x6E	; 110
    516e:	21 83       	std	Z+1, r18	; 0x01
    5170:	26 e6       	ldi	r18, 0x66	; 102
    5172:	22 83       	std	Z+2, r18	; 0x02
    5174:	fc 01       	movw	r30, r24
    5176:	2b 2d       	mov	r18, r11
    5178:	30 e2       	ldi	r19, 0x20	; 32
    517a:	22 23       	and	r18, r18
    517c:	19 f0       	breq	.+6      	; 0x5184 <dtoa_prf+0x156>
    517e:	31 93       	st	Z+, r19
    5180:	21 50       	subi	r18, 0x01	; 1
    5182:	fb cf       	rjmp	.-10     	; 0x517a <dtoa_prf+0x14c>
    5184:	fc 01       	movw	r30, r24
    5186:	eb 0d       	add	r30, r11
    5188:	f1 1d       	adc	r31, r1
    518a:	10 82       	st	Z, r1
    518c:	8e ef       	ldi	r24, 0xFE	; 254
    518e:	9f ef       	ldi	r25, 0xFF	; 255
    5190:	b7 c0       	rjmp	.+366    	; 0x5300 <dtoa_prf+0x2d2>
    5192:	b1 e0       	ldi	r27, 0x01	; 1
    5194:	61 11       	cpse	r22, r1
    5196:	01 c0       	rjmp	.+2      	; 0x519a <dtoa_prf+0x16c>
    5198:	b0 e0       	ldi	r27, 0x00	; 0
    519a:	4b 2f       	mov	r20, r27
    519c:	50 e0       	ldi	r21, 0x00	; 0
    519e:	18 16       	cp	r1, r24
    51a0:	19 06       	cpc	r1, r25
    51a2:	24 f4       	brge	.+8      	; 0x51ac <dtoa_prf+0x17e>
    51a4:	9c 01       	movw	r18, r24
    51a6:	2f 5f       	subi	r18, 0xFF	; 255
    51a8:	3f 4f       	sbci	r19, 0xFF	; 255
    51aa:	02 c0       	rjmp	.+4      	; 0x51b0 <dtoa_prf+0x182>
    51ac:	21 e0       	ldi	r18, 0x01	; 1
    51ae:	30 e0       	ldi	r19, 0x00	; 0
    51b0:	24 0f       	add	r18, r20
    51b2:	35 1f       	adc	r19, r21
    51b4:	11 23       	and	r17, r17
    51b6:	29 f0       	breq	.+10     	; 0x51c2 <dtoa_prf+0x194>
    51b8:	41 2f       	mov	r20, r17
    51ba:	50 e0       	ldi	r21, 0x00	; 0
    51bc:	4f 5f       	subi	r20, 0xFF	; 255
    51be:	5f 4f       	sbci	r21, 0xFF	; 255
    51c0:	02 c0       	rjmp	.+4      	; 0x51c6 <dtoa_prf+0x198>
    51c2:	40 e0       	ldi	r20, 0x00	; 0
    51c4:	50 e0       	ldi	r21, 0x00	; 0
    51c6:	42 0f       	add	r20, r18
    51c8:	53 1f       	adc	r21, r19
    51ca:	2b 2d       	mov	r18, r11
    51cc:	30 e0       	ldi	r19, 0x00	; 0
    51ce:	42 17       	cp	r20, r18
    51d0:	53 07       	cpc	r21, r19
    51d2:	14 f4       	brge	.+4      	; 0x51d8 <dtoa_prf+0x1aa>
    51d4:	b4 1a       	sub	r11, r20
    51d6:	01 c0       	rjmp	.+2      	; 0x51da <dtoa_prf+0x1ac>
    51d8:	b1 2c       	mov	r11, r1
    51da:	2e 2d       	mov	r18, r14
    51dc:	28 71       	andi	r18, 0x18	; 24
    51de:	59 f4       	brne	.+22     	; 0x51f6 <dtoa_prf+0x1c8>
    51e0:	f6 01       	movw	r30, r12
    51e2:	2b 2d       	mov	r18, r11
    51e4:	30 e2       	ldi	r19, 0x20	; 32
    51e6:	22 23       	and	r18, r18
    51e8:	19 f0       	breq	.+6      	; 0x51f0 <dtoa_prf+0x1c2>
    51ea:	31 93       	st	Z+, r19
    51ec:	21 50       	subi	r18, 0x01	; 1
    51ee:	fb cf       	rjmp	.-10     	; 0x51e6 <dtoa_prf+0x1b8>
    51f0:	cb 0c       	add	r12, r11
    51f2:	d1 1c       	adc	r13, r1
    51f4:	b1 2c       	mov	r11, r1
    51f6:	bb 23       	and	r27, r27
    51f8:	31 f0       	breq	.+12     	; 0x5206 <dtoa_prf+0x1d8>
    51fa:	f6 01       	movw	r30, r12
    51fc:	60 83       	st	Z, r22
    51fe:	96 01       	movw	r18, r12
    5200:	2f 5f       	subi	r18, 0xFF	; 255
    5202:	3f 4f       	sbci	r19, 0xFF	; 255
    5204:	69 01       	movw	r12, r18
    5206:	a1 11       	cpse	r26, r1
    5208:	0b c0       	rjmp	.+22     	; 0x5220 <dtoa_prf+0x1f2>
    520a:	f6 01       	movw	r30, r12
    520c:	2b 2d       	mov	r18, r11
    520e:	30 e3       	ldi	r19, 0x30	; 48
    5210:	22 23       	and	r18, r18
    5212:	19 f0       	breq	.+6      	; 0x521a <dtoa_prf+0x1ec>
    5214:	31 93       	st	Z+, r19
    5216:	21 50       	subi	r18, 0x01	; 1
    5218:	fb cf       	rjmp	.-10     	; 0x5210 <dtoa_prf+0x1e2>
    521a:	cb 0c       	add	r12, r11
    521c:	d1 1c       	adc	r13, r1
    521e:	b1 2c       	mov	r11, r1
    5220:	f8 0e       	add	r15, r24
    5222:	0a 81       	ldd	r16, Y+2	; 0x02
    5224:	37 2f       	mov	r19, r23
    5226:	30 71       	andi	r19, 0x10	; 16
    5228:	a3 2e       	mov	r10, r19
    522a:	74 ff       	sbrs	r23, 4
    522c:	03 c0       	rjmp	.+6      	; 0x5234 <dtoa_prf+0x206>
    522e:	01 33       	cpi	r16, 0x31	; 49
    5230:	09 f4       	brne	.+2      	; 0x5234 <dtoa_prf+0x206>
    5232:	fa 94       	dec	r15
    5234:	1f 14       	cp	r1, r15
    5236:	2c f4       	brge	.+10     	; 0x5242 <dtoa_prf+0x214>
    5238:	2f 2d       	mov	r18, r15
    523a:	29 30       	cpi	r18, 0x09	; 9
    523c:	18 f0       	brcs	.+6      	; 0x5244 <dtoa_prf+0x216>
    523e:	28 e0       	ldi	r18, 0x08	; 8
    5240:	01 c0       	rjmp	.+2      	; 0x5244 <dtoa_prf+0x216>
    5242:	21 e0       	ldi	r18, 0x01	; 1
    5244:	68 2f       	mov	r22, r24
    5246:	39 2f       	mov	r19, r25
    5248:	97 ff       	sbrs	r25, 7
    524a:	02 c0       	rjmp	.+4      	; 0x5250 <dtoa_prf+0x222>
    524c:	60 e0       	ldi	r22, 0x00	; 0
    524e:	30 e0       	ldi	r19, 0x00	; 0
    5250:	46 2f       	mov	r20, r22
    5252:	53 2f       	mov	r21, r19
    5254:	61 2c       	mov	r6, r1
    5256:	71 2c       	mov	r7, r1
    5258:	3e e2       	ldi	r19, 0x2E	; 46
    525a:	93 2e       	mov	r9, r19
    525c:	bc 01       	movw	r22, r24
    525e:	62 1b       	sub	r22, r18
    5260:	71 09       	sbc	r23, r1
    5262:	9b 01       	movw	r18, r22
    5264:	dc 01       	movw	r26, r24
    5266:	a4 1b       	sub	r26, r20
    5268:	b5 0b       	sbc	r27, r21
    526a:	e1 e0       	ldi	r30, 0x01	; 1
    526c:	f0 e0       	ldi	r31, 0x00	; 0
    526e:	ec 0f       	add	r30, r28
    5270:	fd 1f       	adc	r31, r29
    5272:	ae 0f       	add	r26, r30
    5274:	bf 1f       	adc	r27, r31
    5276:	e1 2e       	mov	r14, r17
    5278:	f1 2c       	mov	r15, r1
    527a:	f1 94       	neg	r15
    527c:	e1 94       	neg	r14
    527e:	f1 08       	sbc	r15, r1
    5280:	4f 3f       	cpi	r20, 0xFF	; 255
    5282:	ff ef       	ldi	r31, 0xFF	; 255
    5284:	5f 07       	cpc	r21, r31
    5286:	31 f4       	brne	.+12     	; 0x5294 <dtoa_prf+0x266>
    5288:	f6 01       	movw	r30, r12
    528a:	90 82       	st	Z, r9
    528c:	b6 01       	movw	r22, r12
    528e:	6f 5f       	subi	r22, 0xFF	; 255
    5290:	7f 4f       	sbci	r23, 0xFF	; 255
    5292:	6b 01       	movw	r12, r22
    5294:	84 17       	cp	r24, r20
    5296:	95 07       	cpc	r25, r21
    5298:	4c f0       	brlt	.+18     	; 0x52ac <dtoa_prf+0x27e>
    529a:	24 17       	cp	r18, r20
    529c:	35 07       	cpc	r19, r21
    529e:	34 f4       	brge	.+12     	; 0x52ac <dtoa_prf+0x27e>
    52a0:	bd 01       	movw	r22, r26
    52a2:	66 0d       	add	r22, r6
    52a4:	77 1d       	adc	r23, r7
    52a6:	fb 01       	movw	r30, r22
    52a8:	11 81       	ldd	r17, Z+1	; 0x01
    52aa:	01 c0       	rjmp	.+2      	; 0x52ae <dtoa_prf+0x280>
    52ac:	10 e3       	ldi	r17, 0x30	; 48
    52ae:	41 50       	subi	r20, 0x01	; 1
    52b0:	51 09       	sbc	r21, r1
    52b2:	ff ef       	ldi	r31, 0xFF	; 255
    52b4:	6f 1a       	sub	r6, r31
    52b6:	7f 0a       	sbc	r7, r31
    52b8:	b6 01       	movw	r22, r12
    52ba:	6f 5f       	subi	r22, 0xFF	; 255
    52bc:	7f 4f       	sbci	r23, 0xFF	; 255
    52be:	4e 15       	cp	r20, r14
    52c0:	5f 05       	cpc	r21, r15
    52c2:	24 f0       	brlt	.+8      	; 0x52cc <dtoa_prf+0x29e>
    52c4:	f6 01       	movw	r30, r12
    52c6:	10 83       	st	Z, r17
    52c8:	6b 01       	movw	r12, r22
    52ca:	da cf       	rjmp	.-76     	; 0x5280 <dtoa_prf+0x252>
    52cc:	48 17       	cp	r20, r24
    52ce:	59 07       	cpc	r21, r25
    52d0:	39 f4       	brne	.+14     	; 0x52e0 <dtoa_prf+0x2b2>
    52d2:	06 33       	cpi	r16, 0x36	; 54
    52d4:	20 f4       	brcc	.+8      	; 0x52de <dtoa_prf+0x2b0>
    52d6:	05 33       	cpi	r16, 0x35	; 53
    52d8:	19 f4       	brne	.+6      	; 0x52e0 <dtoa_prf+0x2b2>
    52da:	a1 10       	cpse	r10, r1
    52dc:	01 c0       	rjmp	.+2      	; 0x52e0 <dtoa_prf+0x2b2>
    52de:	11 e3       	ldi	r17, 0x31	; 49
    52e0:	f6 01       	movw	r30, r12
    52e2:	10 83       	st	Z, r17
    52e4:	fb 01       	movw	r30, r22
    52e6:	8b 2d       	mov	r24, r11
    52e8:	90 e2       	ldi	r25, 0x20	; 32
    52ea:	88 23       	and	r24, r24
    52ec:	19 f0       	breq	.+6      	; 0x52f4 <dtoa_prf+0x2c6>
    52ee:	91 93       	st	Z+, r25
    52f0:	81 50       	subi	r24, 0x01	; 1
    52f2:	fb cf       	rjmp	.-10     	; 0x52ea <dtoa_prf+0x2bc>
    52f4:	fb 01       	movw	r30, r22
    52f6:	eb 0d       	add	r30, r11
    52f8:	f1 1d       	adc	r31, r1
    52fa:	10 82       	st	Z, r1
    52fc:	80 e0       	ldi	r24, 0x00	; 0
    52fe:	90 e0       	ldi	r25, 0x00	; 0
    5300:	29 96       	adiw	r28, 0x09	; 9
    5302:	0f b6       	in	r0, 0x3f	; 63
    5304:	f8 94       	cli
    5306:	de bf       	out	0x3e, r29	; 62
    5308:	0f be       	out	0x3f, r0	; 63
    530a:	cd bf       	out	0x3d, r28	; 61
    530c:	df 91       	pop	r29
    530e:	cf 91       	pop	r28
    5310:	1f 91       	pop	r17
    5312:	0f 91       	pop	r16
    5314:	ff 90       	pop	r15
    5316:	ef 90       	pop	r14
    5318:	df 90       	pop	r13
    531a:	cf 90       	pop	r12
    531c:	bf 90       	pop	r11
    531e:	af 90       	pop	r10
    5320:	9f 90       	pop	r9
    5322:	7f 90       	pop	r7
    5324:	6f 90       	pop	r6
    5326:	08 95       	ret

00005328 <__ftoa_engine>:
    5328:	28 30       	cpi	r18, 0x08	; 8
    532a:	08 f0       	brcs	.+2      	; 0x532e <__ftoa_engine+0x6>
    532c:	27 e0       	ldi	r18, 0x07	; 7
    532e:	33 27       	eor	r19, r19
    5330:	da 01       	movw	r26, r20
    5332:	99 0f       	add	r25, r25
    5334:	31 1d       	adc	r19, r1
    5336:	87 fd       	sbrc	r24, 7
    5338:	91 60       	ori	r25, 0x01	; 1
    533a:	00 96       	adiw	r24, 0x00	; 0
    533c:	61 05       	cpc	r22, r1
    533e:	71 05       	cpc	r23, r1
    5340:	39 f4       	brne	.+14     	; 0x5350 <__ftoa_engine+0x28>
    5342:	32 60       	ori	r19, 0x02	; 2
    5344:	2e 5f       	subi	r18, 0xFE	; 254
    5346:	3d 93       	st	X+, r19
    5348:	30 e3       	ldi	r19, 0x30	; 48
    534a:	2a 95       	dec	r18
    534c:	e1 f7       	brne	.-8      	; 0x5346 <__ftoa_engine+0x1e>
    534e:	08 95       	ret
    5350:	9f 3f       	cpi	r25, 0xFF	; 255
    5352:	30 f0       	brcs	.+12     	; 0x5360 <__ftoa_engine+0x38>
    5354:	80 38       	cpi	r24, 0x80	; 128
    5356:	71 05       	cpc	r23, r1
    5358:	61 05       	cpc	r22, r1
    535a:	09 f0       	breq	.+2      	; 0x535e <__ftoa_engine+0x36>
    535c:	3c 5f       	subi	r19, 0xFC	; 252
    535e:	3c 5f       	subi	r19, 0xFC	; 252
    5360:	3d 93       	st	X+, r19
    5362:	91 30       	cpi	r25, 0x01	; 1
    5364:	08 f0       	brcs	.+2      	; 0x5368 <__ftoa_engine+0x40>
    5366:	80 68       	ori	r24, 0x80	; 128
    5368:	91 1d       	adc	r25, r1
    536a:	df 93       	push	r29
    536c:	cf 93       	push	r28
    536e:	1f 93       	push	r17
    5370:	0f 93       	push	r16
    5372:	ff 92       	push	r15
    5374:	ef 92       	push	r14
    5376:	19 2f       	mov	r17, r25
    5378:	98 7f       	andi	r25, 0xF8	; 248
    537a:	96 95       	lsr	r25
    537c:	e9 2f       	mov	r30, r25
    537e:	96 95       	lsr	r25
    5380:	96 95       	lsr	r25
    5382:	e9 0f       	add	r30, r25
    5384:	ff 27       	eor	r31, r31
    5386:	ec 5e       	subi	r30, 0xEC	; 236
    5388:	fc 4f       	sbci	r31, 0xFC	; 252
    538a:	99 27       	eor	r25, r25
    538c:	33 27       	eor	r19, r19
    538e:	ee 24       	eor	r14, r14
    5390:	ff 24       	eor	r15, r15
    5392:	a7 01       	movw	r20, r14
    5394:	e7 01       	movw	r28, r14
    5396:	05 90       	lpm	r0, Z+
    5398:	08 94       	sec
    539a:	07 94       	ror	r0
    539c:	28 f4       	brcc	.+10     	; 0x53a8 <__ftoa_engine+0x80>
    539e:	36 0f       	add	r19, r22
    53a0:	e7 1e       	adc	r14, r23
    53a2:	f8 1e       	adc	r15, r24
    53a4:	49 1f       	adc	r20, r25
    53a6:	51 1d       	adc	r21, r1
    53a8:	66 0f       	add	r22, r22
    53aa:	77 1f       	adc	r23, r23
    53ac:	88 1f       	adc	r24, r24
    53ae:	99 1f       	adc	r25, r25
    53b0:	06 94       	lsr	r0
    53b2:	a1 f7       	brne	.-24     	; 0x539c <__ftoa_engine+0x74>
    53b4:	05 90       	lpm	r0, Z+
    53b6:	07 94       	ror	r0
    53b8:	28 f4       	brcc	.+10     	; 0x53c4 <__ftoa_engine+0x9c>
    53ba:	e7 0e       	add	r14, r23
    53bc:	f8 1e       	adc	r15, r24
    53be:	49 1f       	adc	r20, r25
    53c0:	56 1f       	adc	r21, r22
    53c2:	c1 1d       	adc	r28, r1
    53c4:	77 0f       	add	r23, r23
    53c6:	88 1f       	adc	r24, r24
    53c8:	99 1f       	adc	r25, r25
    53ca:	66 1f       	adc	r22, r22
    53cc:	06 94       	lsr	r0
    53ce:	a1 f7       	brne	.-24     	; 0x53b8 <__ftoa_engine+0x90>
    53d0:	05 90       	lpm	r0, Z+
    53d2:	07 94       	ror	r0
    53d4:	28 f4       	brcc	.+10     	; 0x53e0 <__ftoa_engine+0xb8>
    53d6:	f8 0e       	add	r15, r24
    53d8:	49 1f       	adc	r20, r25
    53da:	56 1f       	adc	r21, r22
    53dc:	c7 1f       	adc	r28, r23
    53de:	d1 1d       	adc	r29, r1
    53e0:	88 0f       	add	r24, r24
    53e2:	99 1f       	adc	r25, r25
    53e4:	66 1f       	adc	r22, r22
    53e6:	77 1f       	adc	r23, r23
    53e8:	06 94       	lsr	r0
    53ea:	a1 f7       	brne	.-24     	; 0x53d4 <__ftoa_engine+0xac>
    53ec:	05 90       	lpm	r0, Z+
    53ee:	07 94       	ror	r0
    53f0:	20 f4       	brcc	.+8      	; 0x53fa <__ftoa_engine+0xd2>
    53f2:	49 0f       	add	r20, r25
    53f4:	56 1f       	adc	r21, r22
    53f6:	c7 1f       	adc	r28, r23
    53f8:	d8 1f       	adc	r29, r24
    53fa:	99 0f       	add	r25, r25
    53fc:	66 1f       	adc	r22, r22
    53fe:	77 1f       	adc	r23, r23
    5400:	88 1f       	adc	r24, r24
    5402:	06 94       	lsr	r0
    5404:	a9 f7       	brne	.-22     	; 0x53f0 <__ftoa_engine+0xc8>
    5406:	84 91       	lpm	r24, Z
    5408:	10 95       	com	r17
    540a:	17 70       	andi	r17, 0x07	; 7
    540c:	41 f0       	breq	.+16     	; 0x541e <__ftoa_engine+0xf6>
    540e:	d6 95       	lsr	r29
    5410:	c7 95       	ror	r28
    5412:	57 95       	ror	r21
    5414:	47 95       	ror	r20
    5416:	f7 94       	ror	r15
    5418:	e7 94       	ror	r14
    541a:	1a 95       	dec	r17
    541c:	c1 f7       	brne	.-16     	; 0x540e <__ftoa_engine+0xe6>
    541e:	ea eb       	ldi	r30, 0xBA	; 186
    5420:	f2 e0       	ldi	r31, 0x02	; 2
    5422:	68 94       	set
    5424:	15 90       	lpm	r1, Z+
    5426:	15 91       	lpm	r17, Z+
    5428:	35 91       	lpm	r19, Z+
    542a:	65 91       	lpm	r22, Z+
    542c:	95 91       	lpm	r25, Z+
    542e:	05 90       	lpm	r0, Z+
    5430:	7f e2       	ldi	r23, 0x2F	; 47
    5432:	73 95       	inc	r23
    5434:	e1 18       	sub	r14, r1
    5436:	f1 0a       	sbc	r15, r17
    5438:	43 0b       	sbc	r20, r19
    543a:	56 0b       	sbc	r21, r22
    543c:	c9 0b       	sbc	r28, r25
    543e:	d0 09       	sbc	r29, r0
    5440:	c0 f7       	brcc	.-16     	; 0x5432 <__ftoa_engine+0x10a>
    5442:	e1 0c       	add	r14, r1
    5444:	f1 1e       	adc	r15, r17
    5446:	43 1f       	adc	r20, r19
    5448:	56 1f       	adc	r21, r22
    544a:	c9 1f       	adc	r28, r25
    544c:	d0 1d       	adc	r29, r0
    544e:	7e f4       	brtc	.+30     	; 0x546e <__ftoa_engine+0x146>
    5450:	70 33       	cpi	r23, 0x30	; 48
    5452:	11 f4       	brne	.+4      	; 0x5458 <__ftoa_engine+0x130>
    5454:	8a 95       	dec	r24
    5456:	e6 cf       	rjmp	.-52     	; 0x5424 <__ftoa_engine+0xfc>
    5458:	e8 94       	clt
    545a:	01 50       	subi	r16, 0x01	; 1
    545c:	30 f0       	brcs	.+12     	; 0x546a <__ftoa_engine+0x142>
    545e:	08 0f       	add	r16, r24
    5460:	0a f4       	brpl	.+2      	; 0x5464 <__ftoa_engine+0x13c>
    5462:	00 27       	eor	r16, r16
    5464:	02 17       	cp	r16, r18
    5466:	08 f4       	brcc	.+2      	; 0x546a <__ftoa_engine+0x142>
    5468:	20 2f       	mov	r18, r16
    546a:	23 95       	inc	r18
    546c:	02 2f       	mov	r16, r18
    546e:	7a 33       	cpi	r23, 0x3A	; 58
    5470:	28 f0       	brcs	.+10     	; 0x547c <__ftoa_engine+0x154>
    5472:	79 e3       	ldi	r23, 0x39	; 57
    5474:	7d 93       	st	X+, r23
    5476:	2a 95       	dec	r18
    5478:	e9 f7       	brne	.-6      	; 0x5474 <__ftoa_engine+0x14c>
    547a:	10 c0       	rjmp	.+32     	; 0x549c <__ftoa_engine+0x174>
    547c:	7d 93       	st	X+, r23
    547e:	2a 95       	dec	r18
    5480:	89 f6       	brne	.-94     	; 0x5424 <__ftoa_engine+0xfc>
    5482:	06 94       	lsr	r0
    5484:	97 95       	ror	r25
    5486:	67 95       	ror	r22
    5488:	37 95       	ror	r19
    548a:	17 95       	ror	r17
    548c:	17 94       	ror	r1
    548e:	e1 18       	sub	r14, r1
    5490:	f1 0a       	sbc	r15, r17
    5492:	43 0b       	sbc	r20, r19
    5494:	56 0b       	sbc	r21, r22
    5496:	c9 0b       	sbc	r28, r25
    5498:	d0 09       	sbc	r29, r0
    549a:	98 f0       	brcs	.+38     	; 0x54c2 <__ftoa_engine+0x19a>
    549c:	23 95       	inc	r18
    549e:	7e 91       	ld	r23, -X
    54a0:	73 95       	inc	r23
    54a2:	7a 33       	cpi	r23, 0x3A	; 58
    54a4:	08 f0       	brcs	.+2      	; 0x54a8 <__ftoa_engine+0x180>
    54a6:	70 e3       	ldi	r23, 0x30	; 48
    54a8:	7c 93       	st	X, r23
    54aa:	20 13       	cpse	r18, r16
    54ac:	b8 f7       	brcc	.-18     	; 0x549c <__ftoa_engine+0x174>
    54ae:	7e 91       	ld	r23, -X
    54b0:	70 61       	ori	r23, 0x10	; 16
    54b2:	7d 93       	st	X+, r23
    54b4:	30 f0       	brcs	.+12     	; 0x54c2 <__ftoa_engine+0x19a>
    54b6:	83 95       	inc	r24
    54b8:	71 e3       	ldi	r23, 0x31	; 49
    54ba:	7d 93       	st	X+, r23
    54bc:	70 e3       	ldi	r23, 0x30	; 48
    54be:	2a 95       	dec	r18
    54c0:	e1 f7       	brne	.-8      	; 0x54ba <__ftoa_engine+0x192>
    54c2:	11 24       	eor	r1, r1
    54c4:	ef 90       	pop	r14
    54c6:	ff 90       	pop	r15
    54c8:	0f 91       	pop	r16
    54ca:	1f 91       	pop	r17
    54cc:	cf 91       	pop	r28
    54ce:	df 91       	pop	r29
    54d0:	99 27       	eor	r25, r25
    54d2:	87 fd       	sbrc	r24, 7
    54d4:	90 95       	com	r25
    54d6:	08 95       	ret

000054d8 <strrev>:
    54d8:	dc 01       	movw	r26, r24
    54da:	fc 01       	movw	r30, r24
    54dc:	67 2f       	mov	r22, r23
    54de:	71 91       	ld	r23, Z+
    54e0:	77 23       	and	r23, r23
    54e2:	e1 f7       	brne	.-8      	; 0x54dc <strrev+0x4>
    54e4:	32 97       	sbiw	r30, 0x02	; 2
    54e6:	04 c0       	rjmp	.+8      	; 0x54f0 <strrev+0x18>
    54e8:	7c 91       	ld	r23, X
    54ea:	6d 93       	st	X+, r22
    54ec:	70 83       	st	Z, r23
    54ee:	62 91       	ld	r22, -Z
    54f0:	ae 17       	cp	r26, r30
    54f2:	bf 07       	cpc	r27, r31
    54f4:	c8 f3       	brcs	.-14     	; 0x54e8 <strrev+0x10>
    54f6:	08 95       	ret

000054f8 <_exit>:
    54f8:	f8 94       	cli

000054fa <__stop_program>:
    54fa:	ff cf       	rjmp	.-2      	; 0x54fa <__stop_program>
